
GT_U7_GPS_Module.elf:     file format elf32-littlearm

Sections:
Idx Name          Size      VMA       LMA       File off  Algn
  0 .isr_vector   000001c4  08000000  08000000  00010000  2**0
                  CONTENTS, ALLOC, LOAD, READONLY, DATA
  1 .text         00008f94  080001d0  080001d0  000101d0  2**4
                  CONTENTS, ALLOC, LOAD, READONLY, CODE
  2 .rodata       0000053c  08009168  08009168  00019168  2**3
                  CONTENTS, ALLOC, LOAD, READONLY, DATA
  3 .ARM.extab    00000000  080096a4  080096a4  000201e0  2**0
                  CONTENTS
  4 .ARM          00000008  080096a4  080096a4  000196a4  2**2
                  CONTENTS, ALLOC, LOAD, READONLY, DATA
  5 .preinit_array 00000000  080096ac  080096ac  000201e0  2**0
                  CONTENTS, ALLOC, LOAD, DATA
  6 .init_array   00000004  080096ac  080096ac  000196ac  2**2
                  CONTENTS, ALLOC, LOAD, DATA
  7 .fini_array   00000004  080096b0  080096b0  000196b0  2**2
                  CONTENTS, ALLOC, LOAD, DATA
  8 .data         000001e0  20000000  080096b4  00020000  2**2
                  CONTENTS, ALLOC, LOAD, DATA
  9 .bss          00000784  200001e0  08009894  000201e0  2**2
                  ALLOC
 10 ._user_heap_stack 00000604  20000964  08009894  00020964  2**0
                  ALLOC
 11 .ARM.attributes 00000030  00000000  00000000  000201e0  2**0
                  CONTENTS, READONLY
 12 .debug_info   00009cb1  00000000  00000000  00020210  2**0
                  CONTENTS, READONLY, DEBUGGING, OCTETS
 13 .debug_abbrev 00001ad5  00000000  00000000  00029ec1  2**0
                  CONTENTS, READONLY, DEBUGGING, OCTETS
 14 .debug_aranges 00000810  00000000  00000000  0002b998  2**3
                  CONTENTS, READONLY, DEBUGGING, OCTETS
 15 .debug_ranges 00000768  00000000  00000000  0002c1a8  2**3
                  CONTENTS, READONLY, DEBUGGING, OCTETS
 16 .debug_macro  00021d27  00000000  00000000  0002c910  2**0
                  CONTENTS, READONLY, DEBUGGING, OCTETS
 17 .debug_line   0000a826  00000000  00000000  0004e637  2**0
                  CONTENTS, READONLY, DEBUGGING, OCTETS
 18 .debug_str    000c9c3c  00000000  00000000  00058e5d  2**0
                  CONTENTS, READONLY, DEBUGGING, OCTETS
 19 .comment      00000050  00000000  00000000  00122a99  2**0
                  CONTENTS, READONLY
 20 .debug_frame  00003814  00000000  00000000  00122aec  2**2
                  CONTENTS, READONLY, DEBUGGING, OCTETS

Disassembly of section .text:

080001d0 <__do_global_dtors_aux>:
 80001d0:	b510      	push	{r4, lr}
 80001d2:	4c05      	ldr	r4, [pc, #20]	; (80001e8 <__do_global_dtors_aux+0x18>)
 80001d4:	7823      	ldrb	r3, [r4, #0]
 80001d6:	b933      	cbnz	r3, 80001e6 <__do_global_dtors_aux+0x16>
 80001d8:	4b04      	ldr	r3, [pc, #16]	; (80001ec <__do_global_dtors_aux+0x1c>)
 80001da:	b113      	cbz	r3, 80001e2 <__do_global_dtors_aux+0x12>
 80001dc:	4804      	ldr	r0, [pc, #16]	; (80001f0 <__do_global_dtors_aux+0x20>)
 80001de:	f3af 8000 	nop.w
 80001e2:	2301      	movs	r3, #1
 80001e4:	7023      	strb	r3, [r4, #0]
 80001e6:	bd10      	pop	{r4, pc}
 80001e8:	200001e0 	.word	0x200001e0
 80001ec:	00000000 	.word	0x00000000
 80001f0:	0800914c 	.word	0x0800914c

080001f4 <frame_dummy>:
 80001f4:	b508      	push	{r3, lr}
 80001f6:	4b03      	ldr	r3, [pc, #12]	; (8000204 <frame_dummy+0x10>)
 80001f8:	b11b      	cbz	r3, 8000202 <frame_dummy+0xe>
 80001fa:	4903      	ldr	r1, [pc, #12]	; (8000208 <frame_dummy+0x14>)
 80001fc:	4803      	ldr	r0, [pc, #12]	; (800020c <frame_dummy+0x18>)
 80001fe:	f3af 8000 	nop.w
 8000202:	bd08      	pop	{r3, pc}
 8000204:	00000000 	.word	0x00000000
 8000208:	200001e4 	.word	0x200001e4
 800020c:	0800914c 	.word	0x0800914c

08000210 <strlen>:
 8000210:	4603      	mov	r3, r0
 8000212:	f813 2b01 	ldrb.w	r2, [r3], #1
 8000216:	2a00      	cmp	r2, #0
 8000218:	d1fb      	bne.n	8000212 <strlen+0x2>
 800021a:	1a18      	subs	r0, r3, r0
 800021c:	3801      	subs	r0, #1
 800021e:	4770      	bx	lr

08000220 <memchr>:
 8000220:	f001 01ff 	and.w	r1, r1, #255	; 0xff
 8000224:	2a10      	cmp	r2, #16
 8000226:	db2b      	blt.n	8000280 <memchr+0x60>
 8000228:	f010 0f07 	tst.w	r0, #7
 800022c:	d008      	beq.n	8000240 <memchr+0x20>
 800022e:	f810 3b01 	ldrb.w	r3, [r0], #1
 8000232:	3a01      	subs	r2, #1
 8000234:	428b      	cmp	r3, r1
 8000236:	d02d      	beq.n	8000294 <memchr+0x74>
 8000238:	f010 0f07 	tst.w	r0, #7
 800023c:	b342      	cbz	r2, 8000290 <memchr+0x70>
 800023e:	d1f6      	bne.n	800022e <memchr+0xe>
 8000240:	b4f0      	push	{r4, r5, r6, r7}
 8000242:	ea41 2101 	orr.w	r1, r1, r1, lsl #8
 8000246:	ea41 4101 	orr.w	r1, r1, r1, lsl #16
 800024a:	f022 0407 	bic.w	r4, r2, #7
 800024e:	f07f 0700 	mvns.w	r7, #0
 8000252:	2300      	movs	r3, #0
 8000254:	e8f0 5602 	ldrd	r5, r6, [r0], #8
 8000258:	3c08      	subs	r4, #8
 800025a:	ea85 0501 	eor.w	r5, r5, r1
 800025e:	ea86 0601 	eor.w	r6, r6, r1
 8000262:	fa85 f547 	uadd8	r5, r5, r7
 8000266:	faa3 f587 	sel	r5, r3, r7
 800026a:	fa86 f647 	uadd8	r6, r6, r7
 800026e:	faa5 f687 	sel	r6, r5, r7
 8000272:	b98e      	cbnz	r6, 8000298 <memchr+0x78>
 8000274:	d1ee      	bne.n	8000254 <memchr+0x34>
 8000276:	bcf0      	pop	{r4, r5, r6, r7}
 8000278:	f001 01ff 	and.w	r1, r1, #255	; 0xff
 800027c:	f002 0207 	and.w	r2, r2, #7
 8000280:	b132      	cbz	r2, 8000290 <memchr+0x70>
 8000282:	f810 3b01 	ldrb.w	r3, [r0], #1
 8000286:	3a01      	subs	r2, #1
 8000288:	ea83 0301 	eor.w	r3, r3, r1
 800028c:	b113      	cbz	r3, 8000294 <memchr+0x74>
 800028e:	d1f8      	bne.n	8000282 <memchr+0x62>
 8000290:	2000      	movs	r0, #0
 8000292:	4770      	bx	lr
 8000294:	3801      	subs	r0, #1
 8000296:	4770      	bx	lr
 8000298:	2d00      	cmp	r5, #0
 800029a:	bf06      	itte	eq
 800029c:	4635      	moveq	r5, r6
 800029e:	3803      	subeq	r0, #3
 80002a0:	3807      	subne	r0, #7
 80002a2:	f015 0f01 	tst.w	r5, #1
 80002a6:	d107      	bne.n	80002b8 <memchr+0x98>
 80002a8:	3001      	adds	r0, #1
 80002aa:	f415 7f80 	tst.w	r5, #256	; 0x100
 80002ae:	bf02      	ittt	eq
 80002b0:	3001      	addeq	r0, #1
 80002b2:	f415 3fc0 	tsteq.w	r5, #98304	; 0x18000
 80002b6:	3001      	addeq	r0, #1
 80002b8:	bcf0      	pop	{r4, r5, r6, r7}
 80002ba:	3801      	subs	r0, #1
 80002bc:	4770      	bx	lr
 80002be:	bf00      	nop

080002c0 <__aeabi_drsub>:
 80002c0:	f081 4100 	eor.w	r1, r1, #2147483648	; 0x80000000
 80002c4:	e002      	b.n	80002cc <__adddf3>
 80002c6:	bf00      	nop

080002c8 <__aeabi_dsub>:
 80002c8:	f083 4300 	eor.w	r3, r3, #2147483648	; 0x80000000

080002cc <__adddf3>:
 80002cc:	b530      	push	{r4, r5, lr}
 80002ce:	ea4f 0441 	mov.w	r4, r1, lsl #1
 80002d2:	ea4f 0543 	mov.w	r5, r3, lsl #1
 80002d6:	ea94 0f05 	teq	r4, r5
 80002da:	bf08      	it	eq
 80002dc:	ea90 0f02 	teqeq	r0, r2
 80002e0:	bf1f      	itttt	ne
 80002e2:	ea54 0c00 	orrsne.w	ip, r4, r0
 80002e6:	ea55 0c02 	orrsne.w	ip, r5, r2
 80002ea:	ea7f 5c64 	mvnsne.w	ip, r4, asr #21
 80002ee:	ea7f 5c65 	mvnsne.w	ip, r5, asr #21
 80002f2:	f000 80e2 	beq.w	80004ba <__adddf3+0x1ee>
 80002f6:	ea4f 5454 	mov.w	r4, r4, lsr #21
 80002fa:	ebd4 5555 	rsbs	r5, r4, r5, lsr #21
 80002fe:	bfb8      	it	lt
 8000300:	426d      	neglt	r5, r5
 8000302:	dd0c      	ble.n	800031e <__adddf3+0x52>
 8000304:	442c      	add	r4, r5
 8000306:	ea80 0202 	eor.w	r2, r0, r2
 800030a:	ea81 0303 	eor.w	r3, r1, r3
 800030e:	ea82 0000 	eor.w	r0, r2, r0
 8000312:	ea83 0101 	eor.w	r1, r3, r1
 8000316:	ea80 0202 	eor.w	r2, r0, r2
 800031a:	ea81 0303 	eor.w	r3, r1, r3
 800031e:	2d36      	cmp	r5, #54	; 0x36
 8000320:	bf88      	it	hi
 8000322:	bd30      	pophi	{r4, r5, pc}
 8000324:	f011 4f00 	tst.w	r1, #2147483648	; 0x80000000
 8000328:	ea4f 3101 	mov.w	r1, r1, lsl #12
 800032c:	f44f 1c80 	mov.w	ip, #1048576	; 0x100000
 8000330:	ea4c 3111 	orr.w	r1, ip, r1, lsr #12
 8000334:	d002      	beq.n	800033c <__adddf3+0x70>
 8000336:	4240      	negs	r0, r0
 8000338:	eb61 0141 	sbc.w	r1, r1, r1, lsl #1
 800033c:	f013 4f00 	tst.w	r3, #2147483648	; 0x80000000
 8000340:	ea4f 3303 	mov.w	r3, r3, lsl #12
 8000344:	ea4c 3313 	orr.w	r3, ip, r3, lsr #12
 8000348:	d002      	beq.n	8000350 <__adddf3+0x84>
 800034a:	4252      	negs	r2, r2
 800034c:	eb63 0343 	sbc.w	r3, r3, r3, lsl #1
 8000350:	ea94 0f05 	teq	r4, r5
 8000354:	f000 80a7 	beq.w	80004a6 <__adddf3+0x1da>
 8000358:	f1a4 0401 	sub.w	r4, r4, #1
 800035c:	f1d5 0e20 	rsbs	lr, r5, #32
 8000360:	db0d      	blt.n	800037e <__adddf3+0xb2>
 8000362:	fa02 fc0e 	lsl.w	ip, r2, lr
 8000366:	fa22 f205 	lsr.w	r2, r2, r5
 800036a:	1880      	adds	r0, r0, r2
 800036c:	f141 0100 	adc.w	r1, r1, #0
 8000370:	fa03 f20e 	lsl.w	r2, r3, lr
 8000374:	1880      	adds	r0, r0, r2
 8000376:	fa43 f305 	asr.w	r3, r3, r5
 800037a:	4159      	adcs	r1, r3
 800037c:	e00e      	b.n	800039c <__adddf3+0xd0>
 800037e:	f1a5 0520 	sub.w	r5, r5, #32
 8000382:	f10e 0e20 	add.w	lr, lr, #32
 8000386:	2a01      	cmp	r2, #1
 8000388:	fa03 fc0e 	lsl.w	ip, r3, lr
 800038c:	bf28      	it	cs
 800038e:	f04c 0c02 	orrcs.w	ip, ip, #2
 8000392:	fa43 f305 	asr.w	r3, r3, r5
 8000396:	18c0      	adds	r0, r0, r3
 8000398:	eb51 71e3 	adcs.w	r1, r1, r3, asr #31
 800039c:	f001 4500 	and.w	r5, r1, #2147483648	; 0x80000000
 80003a0:	d507      	bpl.n	80003b2 <__adddf3+0xe6>
 80003a2:	f04f 0e00 	mov.w	lr, #0
 80003a6:	f1dc 0c00 	rsbs	ip, ip, #0
 80003aa:	eb7e 0000 	sbcs.w	r0, lr, r0
 80003ae:	eb6e 0101 	sbc.w	r1, lr, r1
 80003b2:	f5b1 1f80 	cmp.w	r1, #1048576	; 0x100000
 80003b6:	d31b      	bcc.n	80003f0 <__adddf3+0x124>
 80003b8:	f5b1 1f00 	cmp.w	r1, #2097152	; 0x200000
 80003bc:	d30c      	bcc.n	80003d8 <__adddf3+0x10c>
 80003be:	0849      	lsrs	r1, r1, #1
 80003c0:	ea5f 0030 	movs.w	r0, r0, rrx
 80003c4:	ea4f 0c3c 	mov.w	ip, ip, rrx
 80003c8:	f104 0401 	add.w	r4, r4, #1
 80003cc:	ea4f 5244 	mov.w	r2, r4, lsl #21
 80003d0:	f512 0f80 	cmn.w	r2, #4194304	; 0x400000
 80003d4:	f080 809a 	bcs.w	800050c <__adddf3+0x240>
 80003d8:	f1bc 4f00 	cmp.w	ip, #2147483648	; 0x80000000
 80003dc:	bf08      	it	eq
 80003de:	ea5f 0c50 	movseq.w	ip, r0, lsr #1
 80003e2:	f150 0000 	adcs.w	r0, r0, #0
 80003e6:	eb41 5104 	adc.w	r1, r1, r4, lsl #20
 80003ea:	ea41 0105 	orr.w	r1, r1, r5
 80003ee:	bd30      	pop	{r4, r5, pc}
 80003f0:	ea5f 0c4c 	movs.w	ip, ip, lsl #1
 80003f4:	4140      	adcs	r0, r0
 80003f6:	eb41 0101 	adc.w	r1, r1, r1
 80003fa:	3c01      	subs	r4, #1
 80003fc:	bf28      	it	cs
 80003fe:	f5b1 1f80 	cmpcs.w	r1, #1048576	; 0x100000
 8000402:	d2e9      	bcs.n	80003d8 <__adddf3+0x10c>
 8000404:	f091 0f00 	teq	r1, #0
 8000408:	bf04      	itt	eq
 800040a:	4601      	moveq	r1, r0
 800040c:	2000      	moveq	r0, #0
 800040e:	fab1 f381 	clz	r3, r1
 8000412:	bf08      	it	eq
 8000414:	3320      	addeq	r3, #32
 8000416:	f1a3 030b 	sub.w	r3, r3, #11
 800041a:	f1b3 0220 	subs.w	r2, r3, #32
 800041e:	da0c      	bge.n	800043a <__adddf3+0x16e>
 8000420:	320c      	adds	r2, #12
 8000422:	dd08      	ble.n	8000436 <__adddf3+0x16a>
 8000424:	f102 0c14 	add.w	ip, r2, #20
 8000428:	f1c2 020c 	rsb	r2, r2, #12
 800042c:	fa01 f00c 	lsl.w	r0, r1, ip
 8000430:	fa21 f102 	lsr.w	r1, r1, r2
 8000434:	e00c      	b.n	8000450 <__adddf3+0x184>
 8000436:	f102 0214 	add.w	r2, r2, #20
 800043a:	bfd8      	it	le
 800043c:	f1c2 0c20 	rsble	ip, r2, #32
 8000440:	fa01 f102 	lsl.w	r1, r1, r2
 8000444:	fa20 fc0c 	lsr.w	ip, r0, ip
 8000448:	bfdc      	itt	le
 800044a:	ea41 010c 	orrle.w	r1, r1, ip
 800044e:	4090      	lslle	r0, r2
 8000450:	1ae4      	subs	r4, r4, r3
 8000452:	bfa2      	ittt	ge
 8000454:	eb01 5104 	addge.w	r1, r1, r4, lsl #20
 8000458:	4329      	orrge	r1, r5
 800045a:	bd30      	popge	{r4, r5, pc}
 800045c:	ea6f 0404 	mvn.w	r4, r4
 8000460:	3c1f      	subs	r4, #31
 8000462:	da1c      	bge.n	800049e <__adddf3+0x1d2>
 8000464:	340c      	adds	r4, #12
 8000466:	dc0e      	bgt.n	8000486 <__adddf3+0x1ba>
 8000468:	f104 0414 	add.w	r4, r4, #20
 800046c:	f1c4 0220 	rsb	r2, r4, #32
 8000470:	fa20 f004 	lsr.w	r0, r0, r4
 8000474:	fa01 f302 	lsl.w	r3, r1, r2
 8000478:	ea40 0003 	orr.w	r0, r0, r3
 800047c:	fa21 f304 	lsr.w	r3, r1, r4
 8000480:	ea45 0103 	orr.w	r1, r5, r3
 8000484:	bd30      	pop	{r4, r5, pc}
 8000486:	f1c4 040c 	rsb	r4, r4, #12
 800048a:	f1c4 0220 	rsb	r2, r4, #32
 800048e:	fa20 f002 	lsr.w	r0, r0, r2
 8000492:	fa01 f304 	lsl.w	r3, r1, r4
 8000496:	ea40 0003 	orr.w	r0, r0, r3
 800049a:	4629      	mov	r1, r5
 800049c:	bd30      	pop	{r4, r5, pc}
 800049e:	fa21 f004 	lsr.w	r0, r1, r4
 80004a2:	4629      	mov	r1, r5
 80004a4:	bd30      	pop	{r4, r5, pc}
 80004a6:	f094 0f00 	teq	r4, #0
 80004aa:	f483 1380 	eor.w	r3, r3, #1048576	; 0x100000
 80004ae:	bf06      	itte	eq
 80004b0:	f481 1180 	eoreq.w	r1, r1, #1048576	; 0x100000
 80004b4:	3401      	addeq	r4, #1
 80004b6:	3d01      	subne	r5, #1
 80004b8:	e74e      	b.n	8000358 <__adddf3+0x8c>
 80004ba:	ea7f 5c64 	mvns.w	ip, r4, asr #21
 80004be:	bf18      	it	ne
 80004c0:	ea7f 5c65 	mvnsne.w	ip, r5, asr #21
 80004c4:	d029      	beq.n	800051a <__adddf3+0x24e>
 80004c6:	ea94 0f05 	teq	r4, r5
 80004ca:	bf08      	it	eq
 80004cc:	ea90 0f02 	teqeq	r0, r2
 80004d0:	d005      	beq.n	80004de <__adddf3+0x212>
 80004d2:	ea54 0c00 	orrs.w	ip, r4, r0
 80004d6:	bf04      	itt	eq
 80004d8:	4619      	moveq	r1, r3
 80004da:	4610      	moveq	r0, r2
 80004dc:	bd30      	pop	{r4, r5, pc}
 80004de:	ea91 0f03 	teq	r1, r3
 80004e2:	bf1e      	ittt	ne
 80004e4:	2100      	movne	r1, #0
 80004e6:	2000      	movne	r0, #0
 80004e8:	bd30      	popne	{r4, r5, pc}
 80004ea:	ea5f 5c54 	movs.w	ip, r4, lsr #21
 80004ee:	d105      	bne.n	80004fc <__adddf3+0x230>
 80004f0:	0040      	lsls	r0, r0, #1
 80004f2:	4149      	adcs	r1, r1
 80004f4:	bf28      	it	cs
 80004f6:	f041 4100 	orrcs.w	r1, r1, #2147483648	; 0x80000000
 80004fa:	bd30      	pop	{r4, r5, pc}
 80004fc:	f514 0480 	adds.w	r4, r4, #4194304	; 0x400000
 8000500:	bf3c      	itt	cc
 8000502:	f501 1180 	addcc.w	r1, r1, #1048576	; 0x100000
 8000506:	bd30      	popcc	{r4, r5, pc}
 8000508:	f001 4500 	and.w	r5, r1, #2147483648	; 0x80000000
 800050c:	f045 41fe 	orr.w	r1, r5, #2130706432	; 0x7f000000
 8000510:	f441 0170 	orr.w	r1, r1, #15728640	; 0xf00000
 8000514:	f04f 0000 	mov.w	r0, #0
 8000518:	bd30      	pop	{r4, r5, pc}
 800051a:	ea7f 5c64 	mvns.w	ip, r4, asr #21
 800051e:	bf1a      	itte	ne
 8000520:	4619      	movne	r1, r3
 8000522:	4610      	movne	r0, r2
 8000524:	ea7f 5c65 	mvnseq.w	ip, r5, asr #21
 8000528:	bf1c      	itt	ne
 800052a:	460b      	movne	r3, r1
 800052c:	4602      	movne	r2, r0
 800052e:	ea50 3401 	orrs.w	r4, r0, r1, lsl #12
 8000532:	bf06      	itte	eq
 8000534:	ea52 3503 	orrseq.w	r5, r2, r3, lsl #12
 8000538:	ea91 0f03 	teqeq	r1, r3
 800053c:	f441 2100 	orrne.w	r1, r1, #524288	; 0x80000
 8000540:	bd30      	pop	{r4, r5, pc}
 8000542:	bf00      	nop

08000544 <__aeabi_ui2d>:
 8000544:	f090 0f00 	teq	r0, #0
 8000548:	bf04      	itt	eq
 800054a:	2100      	moveq	r1, #0
 800054c:	4770      	bxeq	lr
 800054e:	b530      	push	{r4, r5, lr}
 8000550:	f44f 6480 	mov.w	r4, #1024	; 0x400
 8000554:	f104 0432 	add.w	r4, r4, #50	; 0x32
 8000558:	f04f 0500 	mov.w	r5, #0
 800055c:	f04f 0100 	mov.w	r1, #0
 8000560:	e750      	b.n	8000404 <__adddf3+0x138>
 8000562:	bf00      	nop

08000564 <__aeabi_i2d>:
 8000564:	f090 0f00 	teq	r0, #0
 8000568:	bf04      	itt	eq
 800056a:	2100      	moveq	r1, #0
 800056c:	4770      	bxeq	lr
 800056e:	b530      	push	{r4, r5, lr}
 8000570:	f44f 6480 	mov.w	r4, #1024	; 0x400
 8000574:	f104 0432 	add.w	r4, r4, #50	; 0x32
 8000578:	f010 4500 	ands.w	r5, r0, #2147483648	; 0x80000000
 800057c:	bf48      	it	mi
 800057e:	4240      	negmi	r0, r0
 8000580:	f04f 0100 	mov.w	r1, #0
 8000584:	e73e      	b.n	8000404 <__adddf3+0x138>
 8000586:	bf00      	nop

08000588 <__aeabi_f2d>:
 8000588:	0042      	lsls	r2, r0, #1
 800058a:	ea4f 01e2 	mov.w	r1, r2, asr #3
 800058e:	ea4f 0131 	mov.w	r1, r1, rrx
 8000592:	ea4f 7002 	mov.w	r0, r2, lsl #28
 8000596:	bf1f      	itttt	ne
 8000598:	f012 437f 	andsne.w	r3, r2, #4278190080	; 0xff000000
 800059c:	f093 4f7f 	teqne	r3, #4278190080	; 0xff000000
 80005a0:	f081 5160 	eorne.w	r1, r1, #939524096	; 0x38000000
 80005a4:	4770      	bxne	lr
 80005a6:	f032 427f 	bics.w	r2, r2, #4278190080	; 0xff000000
 80005aa:	bf08      	it	eq
 80005ac:	4770      	bxeq	lr
 80005ae:	f093 4f7f 	teq	r3, #4278190080	; 0xff000000
 80005b2:	bf04      	itt	eq
 80005b4:	f441 2100 	orreq.w	r1, r1, #524288	; 0x80000
 80005b8:	4770      	bxeq	lr
 80005ba:	b530      	push	{r4, r5, lr}
 80005bc:	f44f 7460 	mov.w	r4, #896	; 0x380
 80005c0:	f001 4500 	and.w	r5, r1, #2147483648	; 0x80000000
 80005c4:	f021 4100 	bic.w	r1, r1, #2147483648	; 0x80000000
 80005c8:	e71c      	b.n	8000404 <__adddf3+0x138>
 80005ca:	bf00      	nop

080005cc <__aeabi_ul2d>:
 80005cc:	ea50 0201 	orrs.w	r2, r0, r1
 80005d0:	bf08      	it	eq
 80005d2:	4770      	bxeq	lr
 80005d4:	b530      	push	{r4, r5, lr}
 80005d6:	f04f 0500 	mov.w	r5, #0
 80005da:	e00a      	b.n	80005f2 <__aeabi_l2d+0x16>

080005dc <__aeabi_l2d>:
 80005dc:	ea50 0201 	orrs.w	r2, r0, r1
 80005e0:	bf08      	it	eq
 80005e2:	4770      	bxeq	lr
 80005e4:	b530      	push	{r4, r5, lr}
 80005e6:	f011 4500 	ands.w	r5, r1, #2147483648	; 0x80000000
 80005ea:	d502      	bpl.n	80005f2 <__aeabi_l2d+0x16>
 80005ec:	4240      	negs	r0, r0
 80005ee:	eb61 0141 	sbc.w	r1, r1, r1, lsl #1
 80005f2:	f44f 6480 	mov.w	r4, #1024	; 0x400
 80005f6:	f104 0432 	add.w	r4, r4, #50	; 0x32
 80005fa:	ea5f 5c91 	movs.w	ip, r1, lsr #22
 80005fe:	f43f aed8 	beq.w	80003b2 <__adddf3+0xe6>
 8000602:	f04f 0203 	mov.w	r2, #3
 8000606:	ea5f 0cdc 	movs.w	ip, ip, lsr #3
 800060a:	bf18      	it	ne
 800060c:	3203      	addne	r2, #3
 800060e:	ea5f 0cdc 	movs.w	ip, ip, lsr #3
 8000612:	bf18      	it	ne
 8000614:	3203      	addne	r2, #3
 8000616:	eb02 02dc 	add.w	r2, r2, ip, lsr #3
 800061a:	f1c2 0320 	rsb	r3, r2, #32
 800061e:	fa00 fc03 	lsl.w	ip, r0, r3
 8000622:	fa20 f002 	lsr.w	r0, r0, r2
 8000626:	fa01 fe03 	lsl.w	lr, r1, r3
 800062a:	ea40 000e 	orr.w	r0, r0, lr
 800062e:	fa21 f102 	lsr.w	r1, r1, r2
 8000632:	4414      	add	r4, r2
 8000634:	e6bd      	b.n	80003b2 <__adddf3+0xe6>
 8000636:	bf00      	nop

08000638 <__aeabi_dmul>:
 8000638:	b570      	push	{r4, r5, r6, lr}
 800063a:	f04f 0cff 	mov.w	ip, #255	; 0xff
 800063e:	f44c 6ce0 	orr.w	ip, ip, #1792	; 0x700
 8000642:	ea1c 5411 	ands.w	r4, ip, r1, lsr #20
 8000646:	bf1d      	ittte	ne
 8000648:	ea1c 5513 	andsne.w	r5, ip, r3, lsr #20
 800064c:	ea94 0f0c 	teqne	r4, ip
 8000650:	ea95 0f0c 	teqne	r5, ip
 8000654:	f000 f8de 	bleq	8000814 <__aeabi_dmul+0x1dc>
 8000658:	442c      	add	r4, r5
 800065a:	ea81 0603 	eor.w	r6, r1, r3
 800065e:	ea21 514c 	bic.w	r1, r1, ip, lsl #21
 8000662:	ea23 534c 	bic.w	r3, r3, ip, lsl #21
 8000666:	ea50 3501 	orrs.w	r5, r0, r1, lsl #12
 800066a:	bf18      	it	ne
 800066c:	ea52 3503 	orrsne.w	r5, r2, r3, lsl #12
 8000670:	f441 1180 	orr.w	r1, r1, #1048576	; 0x100000
 8000674:	f443 1380 	orr.w	r3, r3, #1048576	; 0x100000
 8000678:	d038      	beq.n	80006ec <__aeabi_dmul+0xb4>
 800067a:	fba0 ce02 	umull	ip, lr, r0, r2
 800067e:	f04f 0500 	mov.w	r5, #0
 8000682:	fbe1 e502 	umlal	lr, r5, r1, r2
 8000686:	f006 4200 	and.w	r2, r6, #2147483648	; 0x80000000
 800068a:	fbe0 e503 	umlal	lr, r5, r0, r3
 800068e:	f04f 0600 	mov.w	r6, #0
 8000692:	fbe1 5603 	umlal	r5, r6, r1, r3
 8000696:	f09c 0f00 	teq	ip, #0
 800069a:	bf18      	it	ne
 800069c:	f04e 0e01 	orrne.w	lr, lr, #1
 80006a0:	f1a4 04ff 	sub.w	r4, r4, #255	; 0xff
 80006a4:	f5b6 7f00 	cmp.w	r6, #512	; 0x200
 80006a8:	f564 7440 	sbc.w	r4, r4, #768	; 0x300
 80006ac:	d204      	bcs.n	80006b8 <__aeabi_dmul+0x80>
 80006ae:	ea5f 0e4e 	movs.w	lr, lr, lsl #1
 80006b2:	416d      	adcs	r5, r5
 80006b4:	eb46 0606 	adc.w	r6, r6, r6
 80006b8:	ea42 21c6 	orr.w	r1, r2, r6, lsl #11
 80006bc:	ea41 5155 	orr.w	r1, r1, r5, lsr #21
 80006c0:	ea4f 20c5 	mov.w	r0, r5, lsl #11
 80006c4:	ea40 505e 	orr.w	r0, r0, lr, lsr #21
 80006c8:	ea4f 2ece 	mov.w	lr, lr, lsl #11
 80006cc:	f1b4 0cfd 	subs.w	ip, r4, #253	; 0xfd
 80006d0:	bf88      	it	hi
 80006d2:	f5bc 6fe0 	cmphi.w	ip, #1792	; 0x700
 80006d6:	d81e      	bhi.n	8000716 <__aeabi_dmul+0xde>
 80006d8:	f1be 4f00 	cmp.w	lr, #2147483648	; 0x80000000
 80006dc:	bf08      	it	eq
 80006de:	ea5f 0e50 	movseq.w	lr, r0, lsr #1
 80006e2:	f150 0000 	adcs.w	r0, r0, #0
 80006e6:	eb41 5104 	adc.w	r1, r1, r4, lsl #20
 80006ea:	bd70      	pop	{r4, r5, r6, pc}
 80006ec:	f006 4600 	and.w	r6, r6, #2147483648	; 0x80000000
 80006f0:	ea46 0101 	orr.w	r1, r6, r1
 80006f4:	ea40 0002 	orr.w	r0, r0, r2
 80006f8:	ea81 0103 	eor.w	r1, r1, r3
 80006fc:	ebb4 045c 	subs.w	r4, r4, ip, lsr #1
 8000700:	bfc2      	ittt	gt
 8000702:	ebd4 050c 	rsbsgt	r5, r4, ip
 8000706:	ea41 5104 	orrgt.w	r1, r1, r4, lsl #20
 800070a:	bd70      	popgt	{r4, r5, r6, pc}
 800070c:	f441 1180 	orr.w	r1, r1, #1048576	; 0x100000
 8000710:	f04f 0e00 	mov.w	lr, #0
 8000714:	3c01      	subs	r4, #1
 8000716:	f300 80ab 	bgt.w	8000870 <__aeabi_dmul+0x238>
 800071a:	f114 0f36 	cmn.w	r4, #54	; 0x36
 800071e:	bfde      	ittt	le
 8000720:	2000      	movle	r0, #0
 8000722:	f001 4100 	andle.w	r1, r1, #2147483648	; 0x80000000
 8000726:	bd70      	pople	{r4, r5, r6, pc}
 8000728:	f1c4 0400 	rsb	r4, r4, #0
 800072c:	3c20      	subs	r4, #32
 800072e:	da35      	bge.n	800079c <__aeabi_dmul+0x164>
 8000730:	340c      	adds	r4, #12
 8000732:	dc1b      	bgt.n	800076c <__aeabi_dmul+0x134>
 8000734:	f104 0414 	add.w	r4, r4, #20
 8000738:	f1c4 0520 	rsb	r5, r4, #32
 800073c:	fa00 f305 	lsl.w	r3, r0, r5
 8000740:	fa20 f004 	lsr.w	r0, r0, r4
 8000744:	fa01 f205 	lsl.w	r2, r1, r5
 8000748:	ea40 0002 	orr.w	r0, r0, r2
 800074c:	f001 4200 	and.w	r2, r1, #2147483648	; 0x80000000
 8000750:	f021 4100 	bic.w	r1, r1, #2147483648	; 0x80000000
 8000754:	eb10 70d3 	adds.w	r0, r0, r3, lsr #31
 8000758:	fa21 f604 	lsr.w	r6, r1, r4
 800075c:	eb42 0106 	adc.w	r1, r2, r6
 8000760:	ea5e 0e43 	orrs.w	lr, lr, r3, lsl #1
 8000764:	bf08      	it	eq
 8000766:	ea20 70d3 	biceq.w	r0, r0, r3, lsr #31
 800076a:	bd70      	pop	{r4, r5, r6, pc}
 800076c:	f1c4 040c 	rsb	r4, r4, #12
 8000770:	f1c4 0520 	rsb	r5, r4, #32
 8000774:	fa00 f304 	lsl.w	r3, r0, r4
 8000778:	fa20 f005 	lsr.w	r0, r0, r5
 800077c:	fa01 f204 	lsl.w	r2, r1, r4
 8000780:	ea40 0002 	orr.w	r0, r0, r2
 8000784:	f001 4100 	and.w	r1, r1, #2147483648	; 0x80000000
 8000788:	eb10 70d3 	adds.w	r0, r0, r3, lsr #31
 800078c:	f141 0100 	adc.w	r1, r1, #0
 8000790:	ea5e 0e43 	orrs.w	lr, lr, r3, lsl #1
 8000794:	bf08      	it	eq
 8000796:	ea20 70d3 	biceq.w	r0, r0, r3, lsr #31
 800079a:	bd70      	pop	{r4, r5, r6, pc}
 800079c:	f1c4 0520 	rsb	r5, r4, #32
 80007a0:	fa00 f205 	lsl.w	r2, r0, r5
 80007a4:	ea4e 0e02 	orr.w	lr, lr, r2
 80007a8:	fa20 f304 	lsr.w	r3, r0, r4
 80007ac:	fa01 f205 	lsl.w	r2, r1, r5
 80007b0:	ea43 0302 	orr.w	r3, r3, r2
 80007b4:	fa21 f004 	lsr.w	r0, r1, r4
 80007b8:	f001 4100 	and.w	r1, r1, #2147483648	; 0x80000000
 80007bc:	fa21 f204 	lsr.w	r2, r1, r4
 80007c0:	ea20 0002 	bic.w	r0, r0, r2
 80007c4:	eb00 70d3 	add.w	r0, r0, r3, lsr #31
 80007c8:	ea5e 0e43 	orrs.w	lr, lr, r3, lsl #1
 80007cc:	bf08      	it	eq
 80007ce:	ea20 70d3 	biceq.w	r0, r0, r3, lsr #31
 80007d2:	bd70      	pop	{r4, r5, r6, pc}
 80007d4:	f094 0f00 	teq	r4, #0
 80007d8:	d10f      	bne.n	80007fa <__aeabi_dmul+0x1c2>
 80007da:	f001 4600 	and.w	r6, r1, #2147483648	; 0x80000000
 80007de:	0040      	lsls	r0, r0, #1
 80007e0:	eb41 0101 	adc.w	r1, r1, r1
 80007e4:	f411 1f80 	tst.w	r1, #1048576	; 0x100000
 80007e8:	bf08      	it	eq
 80007ea:	3c01      	subeq	r4, #1
 80007ec:	d0f7      	beq.n	80007de <__aeabi_dmul+0x1a6>
 80007ee:	ea41 0106 	orr.w	r1, r1, r6
 80007f2:	f095 0f00 	teq	r5, #0
 80007f6:	bf18      	it	ne
 80007f8:	4770      	bxne	lr
 80007fa:	f003 4600 	and.w	r6, r3, #2147483648	; 0x80000000
 80007fe:	0052      	lsls	r2, r2, #1
 8000800:	eb43 0303 	adc.w	r3, r3, r3
 8000804:	f413 1f80 	tst.w	r3, #1048576	; 0x100000
 8000808:	bf08      	it	eq
 800080a:	3d01      	subeq	r5, #1
 800080c:	d0f7      	beq.n	80007fe <__aeabi_dmul+0x1c6>
 800080e:	ea43 0306 	orr.w	r3, r3, r6
 8000812:	4770      	bx	lr
 8000814:	ea94 0f0c 	teq	r4, ip
 8000818:	ea0c 5513 	and.w	r5, ip, r3, lsr #20
 800081c:	bf18      	it	ne
 800081e:	ea95 0f0c 	teqne	r5, ip
 8000822:	d00c      	beq.n	800083e <__aeabi_dmul+0x206>
 8000824:	ea50 0641 	orrs.w	r6, r0, r1, lsl #1
 8000828:	bf18      	it	ne
 800082a:	ea52 0643 	orrsne.w	r6, r2, r3, lsl #1
 800082e:	d1d1      	bne.n	80007d4 <__aeabi_dmul+0x19c>
 8000830:	ea81 0103 	eor.w	r1, r1, r3
 8000834:	f001 4100 	and.w	r1, r1, #2147483648	; 0x80000000
 8000838:	f04f 0000 	mov.w	r0, #0
 800083c:	bd70      	pop	{r4, r5, r6, pc}
 800083e:	ea50 0641 	orrs.w	r6, r0, r1, lsl #1
 8000842:	bf06      	itte	eq
 8000844:	4610      	moveq	r0, r2
 8000846:	4619      	moveq	r1, r3
 8000848:	ea52 0643 	orrsne.w	r6, r2, r3, lsl #1
 800084c:	d019      	beq.n	8000882 <__aeabi_dmul+0x24a>
 800084e:	ea94 0f0c 	teq	r4, ip
 8000852:	d102      	bne.n	800085a <__aeabi_dmul+0x222>
 8000854:	ea50 3601 	orrs.w	r6, r0, r1, lsl #12
 8000858:	d113      	bne.n	8000882 <__aeabi_dmul+0x24a>
 800085a:	ea95 0f0c 	teq	r5, ip
 800085e:	d105      	bne.n	800086c <__aeabi_dmul+0x234>
 8000860:	ea52 3603 	orrs.w	r6, r2, r3, lsl #12
 8000864:	bf1c      	itt	ne
 8000866:	4610      	movne	r0, r2
 8000868:	4619      	movne	r1, r3
 800086a:	d10a      	bne.n	8000882 <__aeabi_dmul+0x24a>
 800086c:	ea81 0103 	eor.w	r1, r1, r3
 8000870:	f001 4100 	and.w	r1, r1, #2147483648	; 0x80000000
 8000874:	f041 41fe 	orr.w	r1, r1, #2130706432	; 0x7f000000
 8000878:	f441 0170 	orr.w	r1, r1, #15728640	; 0xf00000
 800087c:	f04f 0000 	mov.w	r0, #0
 8000880:	bd70      	pop	{r4, r5, r6, pc}
 8000882:	f041 41fe 	orr.w	r1, r1, #2130706432	; 0x7f000000
 8000886:	f441 0178 	orr.w	r1, r1, #16252928	; 0xf80000
 800088a:	bd70      	pop	{r4, r5, r6, pc}

0800088c <__aeabi_ddiv>:
 800088c:	b570      	push	{r4, r5, r6, lr}
 800088e:	f04f 0cff 	mov.w	ip, #255	; 0xff
 8000892:	f44c 6ce0 	orr.w	ip, ip, #1792	; 0x700
 8000896:	ea1c 5411 	ands.w	r4, ip, r1, lsr #20
 800089a:	bf1d      	ittte	ne
 800089c:	ea1c 5513 	andsne.w	r5, ip, r3, lsr #20
 80008a0:	ea94 0f0c 	teqne	r4, ip
 80008a4:	ea95 0f0c 	teqne	r5, ip
 80008a8:	f000 f8a7 	bleq	80009fa <__aeabi_ddiv+0x16e>
 80008ac:	eba4 0405 	sub.w	r4, r4, r5
 80008b0:	ea81 0e03 	eor.w	lr, r1, r3
 80008b4:	ea52 3503 	orrs.w	r5, r2, r3, lsl #12
 80008b8:	ea4f 3101 	mov.w	r1, r1, lsl #12
 80008bc:	f000 8088 	beq.w	80009d0 <__aeabi_ddiv+0x144>
 80008c0:	ea4f 3303 	mov.w	r3, r3, lsl #12
 80008c4:	f04f 5580 	mov.w	r5, #268435456	; 0x10000000
 80008c8:	ea45 1313 	orr.w	r3, r5, r3, lsr #4
 80008cc:	ea43 6312 	orr.w	r3, r3, r2, lsr #24
 80008d0:	ea4f 2202 	mov.w	r2, r2, lsl #8
 80008d4:	ea45 1511 	orr.w	r5, r5, r1, lsr #4
 80008d8:	ea45 6510 	orr.w	r5, r5, r0, lsr #24
 80008dc:	ea4f 2600 	mov.w	r6, r0, lsl #8
 80008e0:	f00e 4100 	and.w	r1, lr, #2147483648	; 0x80000000
 80008e4:	429d      	cmp	r5, r3
 80008e6:	bf08      	it	eq
 80008e8:	4296      	cmpeq	r6, r2
 80008ea:	f144 04fd 	adc.w	r4, r4, #253	; 0xfd
 80008ee:	f504 7440 	add.w	r4, r4, #768	; 0x300
 80008f2:	d202      	bcs.n	80008fa <__aeabi_ddiv+0x6e>
 80008f4:	085b      	lsrs	r3, r3, #1
 80008f6:	ea4f 0232 	mov.w	r2, r2, rrx
 80008fa:	1ab6      	subs	r6, r6, r2
 80008fc:	eb65 0503 	sbc.w	r5, r5, r3
 8000900:	085b      	lsrs	r3, r3, #1
 8000902:	ea4f 0232 	mov.w	r2, r2, rrx
 8000906:	f44f 1080 	mov.w	r0, #1048576	; 0x100000
 800090a:	f44f 2c00 	mov.w	ip, #524288	; 0x80000
 800090e:	ebb6 0e02 	subs.w	lr, r6, r2
 8000912:	eb75 0e03 	sbcs.w	lr, r5, r3
 8000916:	bf22      	ittt	cs
 8000918:	1ab6      	subcs	r6, r6, r2
 800091a:	4675      	movcs	r5, lr
 800091c:	ea40 000c 	orrcs.w	r0, r0, ip
 8000920:	085b      	lsrs	r3, r3, #1
 8000922:	ea4f 0232 	mov.w	r2, r2, rrx
 8000926:	ebb6 0e02 	subs.w	lr, r6, r2
 800092a:	eb75 0e03 	sbcs.w	lr, r5, r3
 800092e:	bf22      	ittt	cs
 8000930:	1ab6      	subcs	r6, r6, r2
 8000932:	4675      	movcs	r5, lr
 8000934:	ea40 005c 	orrcs.w	r0, r0, ip, lsr #1
 8000938:	085b      	lsrs	r3, r3, #1
 800093a:	ea4f 0232 	mov.w	r2, r2, rrx
 800093e:	ebb6 0e02 	subs.w	lr, r6, r2
 8000942:	eb75 0e03 	sbcs.w	lr, r5, r3
 8000946:	bf22      	ittt	cs
 8000948:	1ab6      	subcs	r6, r6, r2
 800094a:	4675      	movcs	r5, lr
 800094c:	ea40 009c 	orrcs.w	r0, r0, ip, lsr #2
 8000950:	085b      	lsrs	r3, r3, #1
 8000952:	ea4f 0232 	mov.w	r2, r2, rrx
 8000956:	ebb6 0e02 	subs.w	lr, r6, r2
 800095a:	eb75 0e03 	sbcs.w	lr, r5, r3
 800095e:	bf22      	ittt	cs
 8000960:	1ab6      	subcs	r6, r6, r2
 8000962:	4675      	movcs	r5, lr
 8000964:	ea40 00dc 	orrcs.w	r0, r0, ip, lsr #3
 8000968:	ea55 0e06 	orrs.w	lr, r5, r6
 800096c:	d018      	beq.n	80009a0 <__aeabi_ddiv+0x114>
 800096e:	ea4f 1505 	mov.w	r5, r5, lsl #4
 8000972:	ea45 7516 	orr.w	r5, r5, r6, lsr #28
 8000976:	ea4f 1606 	mov.w	r6, r6, lsl #4
 800097a:	ea4f 03c3 	mov.w	r3, r3, lsl #3
 800097e:	ea43 7352 	orr.w	r3, r3, r2, lsr #29
 8000982:	ea4f 02c2 	mov.w	r2, r2, lsl #3
 8000986:	ea5f 1c1c 	movs.w	ip, ip, lsr #4
 800098a:	d1c0      	bne.n	800090e <__aeabi_ddiv+0x82>
 800098c:	f411 1f80 	tst.w	r1, #1048576	; 0x100000
 8000990:	d10b      	bne.n	80009aa <__aeabi_ddiv+0x11e>
 8000992:	ea41 0100 	orr.w	r1, r1, r0
 8000996:	f04f 0000 	mov.w	r0, #0
 800099a:	f04f 4c00 	mov.w	ip, #2147483648	; 0x80000000
 800099e:	e7b6      	b.n	800090e <__aeabi_ddiv+0x82>
 80009a0:	f411 1f80 	tst.w	r1, #1048576	; 0x100000
 80009a4:	bf04      	itt	eq
 80009a6:	4301      	orreq	r1, r0
 80009a8:	2000      	moveq	r0, #0
 80009aa:	f1b4 0cfd 	subs.w	ip, r4, #253	; 0xfd
 80009ae:	bf88      	it	hi
 80009b0:	f5bc 6fe0 	cmphi.w	ip, #1792	; 0x700
 80009b4:	f63f aeaf 	bhi.w	8000716 <__aeabi_dmul+0xde>
 80009b8:	ebb5 0c03 	subs.w	ip, r5, r3
 80009bc:	bf04      	itt	eq
 80009be:	ebb6 0c02 	subseq.w	ip, r6, r2
 80009c2:	ea5f 0c50 	movseq.w	ip, r0, lsr #1
 80009c6:	f150 0000 	adcs.w	r0, r0, #0
 80009ca:	eb41 5104 	adc.w	r1, r1, r4, lsl #20
 80009ce:	bd70      	pop	{r4, r5, r6, pc}
 80009d0:	f00e 4e00 	and.w	lr, lr, #2147483648	; 0x80000000
 80009d4:	ea4e 3111 	orr.w	r1, lr, r1, lsr #12
 80009d8:	eb14 045c 	adds.w	r4, r4, ip, lsr #1
 80009dc:	bfc2      	ittt	gt
 80009de:	ebd4 050c 	rsbsgt	r5, r4, ip
 80009e2:	ea41 5104 	orrgt.w	r1, r1, r4, lsl #20
 80009e6:	bd70      	popgt	{r4, r5, r6, pc}
 80009e8:	f441 1180 	orr.w	r1, r1, #1048576	; 0x100000
 80009ec:	f04f 0e00 	mov.w	lr, #0
 80009f0:	3c01      	subs	r4, #1
 80009f2:	e690      	b.n	8000716 <__aeabi_dmul+0xde>
 80009f4:	ea45 0e06 	orr.w	lr, r5, r6
 80009f8:	e68d      	b.n	8000716 <__aeabi_dmul+0xde>
 80009fa:	ea0c 5513 	and.w	r5, ip, r3, lsr #20
 80009fe:	ea94 0f0c 	teq	r4, ip
 8000a02:	bf08      	it	eq
 8000a04:	ea95 0f0c 	teqeq	r5, ip
 8000a08:	f43f af3b 	beq.w	8000882 <__aeabi_dmul+0x24a>
 8000a0c:	ea94 0f0c 	teq	r4, ip
 8000a10:	d10a      	bne.n	8000a28 <__aeabi_ddiv+0x19c>
 8000a12:	ea50 3401 	orrs.w	r4, r0, r1, lsl #12
 8000a16:	f47f af34 	bne.w	8000882 <__aeabi_dmul+0x24a>
 8000a1a:	ea95 0f0c 	teq	r5, ip
 8000a1e:	f47f af25 	bne.w	800086c <__aeabi_dmul+0x234>
 8000a22:	4610      	mov	r0, r2
 8000a24:	4619      	mov	r1, r3
 8000a26:	e72c      	b.n	8000882 <__aeabi_dmul+0x24a>
 8000a28:	ea95 0f0c 	teq	r5, ip
 8000a2c:	d106      	bne.n	8000a3c <__aeabi_ddiv+0x1b0>
 8000a2e:	ea52 3503 	orrs.w	r5, r2, r3, lsl #12
 8000a32:	f43f aefd 	beq.w	8000830 <__aeabi_dmul+0x1f8>
 8000a36:	4610      	mov	r0, r2
 8000a38:	4619      	mov	r1, r3
 8000a3a:	e722      	b.n	8000882 <__aeabi_dmul+0x24a>
 8000a3c:	ea50 0641 	orrs.w	r6, r0, r1, lsl #1
 8000a40:	bf18      	it	ne
 8000a42:	ea52 0643 	orrsne.w	r6, r2, r3, lsl #1
 8000a46:	f47f aec5 	bne.w	80007d4 <__aeabi_dmul+0x19c>
 8000a4a:	ea50 0441 	orrs.w	r4, r0, r1, lsl #1
 8000a4e:	f47f af0d 	bne.w	800086c <__aeabi_dmul+0x234>
 8000a52:	ea52 0543 	orrs.w	r5, r2, r3, lsl #1
 8000a56:	f47f aeeb 	bne.w	8000830 <__aeabi_dmul+0x1f8>
 8000a5a:	e712      	b.n	8000882 <__aeabi_dmul+0x24a>

08000a5c <__gedf2>:
 8000a5c:	f04f 3cff 	mov.w	ip, #4294967295
 8000a60:	e006      	b.n	8000a70 <__cmpdf2+0x4>
 8000a62:	bf00      	nop

08000a64 <__ledf2>:
 8000a64:	f04f 0c01 	mov.w	ip, #1
 8000a68:	e002      	b.n	8000a70 <__cmpdf2+0x4>
 8000a6a:	bf00      	nop

08000a6c <__cmpdf2>:
 8000a6c:	f04f 0c01 	mov.w	ip, #1
 8000a70:	f84d cd04 	str.w	ip, [sp, #-4]!
 8000a74:	ea4f 0c41 	mov.w	ip, r1, lsl #1
 8000a78:	ea7f 5c6c 	mvns.w	ip, ip, asr #21
 8000a7c:	ea4f 0c43 	mov.w	ip, r3, lsl #1
 8000a80:	bf18      	it	ne
 8000a82:	ea7f 5c6c 	mvnsne.w	ip, ip, asr #21
 8000a86:	d01b      	beq.n	8000ac0 <__cmpdf2+0x54>
 8000a88:	b001      	add	sp, #4
 8000a8a:	ea50 0c41 	orrs.w	ip, r0, r1, lsl #1
 8000a8e:	bf0c      	ite	eq
 8000a90:	ea52 0c43 	orrseq.w	ip, r2, r3, lsl #1
 8000a94:	ea91 0f03 	teqne	r1, r3
 8000a98:	bf02      	ittt	eq
 8000a9a:	ea90 0f02 	teqeq	r0, r2
 8000a9e:	2000      	moveq	r0, #0
 8000aa0:	4770      	bxeq	lr
 8000aa2:	f110 0f00 	cmn.w	r0, #0
 8000aa6:	ea91 0f03 	teq	r1, r3
 8000aaa:	bf58      	it	pl
 8000aac:	4299      	cmppl	r1, r3
 8000aae:	bf08      	it	eq
 8000ab0:	4290      	cmpeq	r0, r2
 8000ab2:	bf2c      	ite	cs
 8000ab4:	17d8      	asrcs	r0, r3, #31
 8000ab6:	ea6f 70e3 	mvncc.w	r0, r3, asr #31
 8000aba:	f040 0001 	orr.w	r0, r0, #1
 8000abe:	4770      	bx	lr
 8000ac0:	ea4f 0c41 	mov.w	ip, r1, lsl #1
 8000ac4:	ea7f 5c6c 	mvns.w	ip, ip, asr #21
 8000ac8:	d102      	bne.n	8000ad0 <__cmpdf2+0x64>
 8000aca:	ea50 3c01 	orrs.w	ip, r0, r1, lsl #12
 8000ace:	d107      	bne.n	8000ae0 <__cmpdf2+0x74>
 8000ad0:	ea4f 0c43 	mov.w	ip, r3, lsl #1
 8000ad4:	ea7f 5c6c 	mvns.w	ip, ip, asr #21
 8000ad8:	d1d6      	bne.n	8000a88 <__cmpdf2+0x1c>
 8000ada:	ea52 3c03 	orrs.w	ip, r2, r3, lsl #12
 8000ade:	d0d3      	beq.n	8000a88 <__cmpdf2+0x1c>
 8000ae0:	f85d 0b04 	ldr.w	r0, [sp], #4
 8000ae4:	4770      	bx	lr
 8000ae6:	bf00      	nop

08000ae8 <__aeabi_cdrcmple>:
 8000ae8:	4684      	mov	ip, r0
 8000aea:	4610      	mov	r0, r2
 8000aec:	4662      	mov	r2, ip
 8000aee:	468c      	mov	ip, r1
 8000af0:	4619      	mov	r1, r3
 8000af2:	4663      	mov	r3, ip
 8000af4:	e000      	b.n	8000af8 <__aeabi_cdcmpeq>
 8000af6:	bf00      	nop

08000af8 <__aeabi_cdcmpeq>:
 8000af8:	b501      	push	{r0, lr}
 8000afa:	f7ff ffb7 	bl	8000a6c <__cmpdf2>
 8000afe:	2800      	cmp	r0, #0
 8000b00:	bf48      	it	mi
 8000b02:	f110 0f00 	cmnmi.w	r0, #0
 8000b06:	bd01      	pop	{r0, pc}

08000b08 <__aeabi_dcmpeq>:
 8000b08:	f84d ed08 	str.w	lr, [sp, #-8]!
 8000b0c:	f7ff fff4 	bl	8000af8 <__aeabi_cdcmpeq>
 8000b10:	bf0c      	ite	eq
 8000b12:	2001      	moveq	r0, #1
 8000b14:	2000      	movne	r0, #0
 8000b16:	f85d fb08 	ldr.w	pc, [sp], #8
 8000b1a:	bf00      	nop

08000b1c <__aeabi_dcmplt>:
 8000b1c:	f84d ed08 	str.w	lr, [sp, #-8]!
 8000b20:	f7ff ffea 	bl	8000af8 <__aeabi_cdcmpeq>
 8000b24:	bf34      	ite	cc
 8000b26:	2001      	movcc	r0, #1
 8000b28:	2000      	movcs	r0, #0
 8000b2a:	f85d fb08 	ldr.w	pc, [sp], #8
 8000b2e:	bf00      	nop

08000b30 <__aeabi_dcmple>:
 8000b30:	f84d ed08 	str.w	lr, [sp, #-8]!
 8000b34:	f7ff ffe0 	bl	8000af8 <__aeabi_cdcmpeq>
 8000b38:	bf94      	ite	ls
 8000b3a:	2001      	movls	r0, #1
 8000b3c:	2000      	movhi	r0, #0
 8000b3e:	f85d fb08 	ldr.w	pc, [sp], #8
 8000b42:	bf00      	nop

08000b44 <__aeabi_dcmpge>:
 8000b44:	f84d ed08 	str.w	lr, [sp, #-8]!
 8000b48:	f7ff ffce 	bl	8000ae8 <__aeabi_cdrcmple>
 8000b4c:	bf94      	ite	ls
 8000b4e:	2001      	movls	r0, #1
 8000b50:	2000      	movhi	r0, #0
 8000b52:	f85d fb08 	ldr.w	pc, [sp], #8
 8000b56:	bf00      	nop

08000b58 <__aeabi_dcmpgt>:
 8000b58:	f84d ed08 	str.w	lr, [sp, #-8]!
 8000b5c:	f7ff ffc4 	bl	8000ae8 <__aeabi_cdrcmple>
 8000b60:	bf34      	ite	cc
 8000b62:	2001      	movcc	r0, #1
 8000b64:	2000      	movcs	r0, #0
 8000b66:	f85d fb08 	ldr.w	pc, [sp], #8
 8000b6a:	bf00      	nop

08000b6c <__aeabi_dcmpun>:
 8000b6c:	ea4f 0c41 	mov.w	ip, r1, lsl #1
 8000b70:	ea7f 5c6c 	mvns.w	ip, ip, asr #21
 8000b74:	d102      	bne.n	8000b7c <__aeabi_dcmpun+0x10>
 8000b76:	ea50 3c01 	orrs.w	ip, r0, r1, lsl #12
 8000b7a:	d10a      	bne.n	8000b92 <__aeabi_dcmpun+0x26>
 8000b7c:	ea4f 0c43 	mov.w	ip, r3, lsl #1
 8000b80:	ea7f 5c6c 	mvns.w	ip, ip, asr #21
 8000b84:	d102      	bne.n	8000b8c <__aeabi_dcmpun+0x20>
 8000b86:	ea52 3c03 	orrs.w	ip, r2, r3, lsl #12
 8000b8a:	d102      	bne.n	8000b92 <__aeabi_dcmpun+0x26>
 8000b8c:	f04f 0000 	mov.w	r0, #0
 8000b90:	4770      	bx	lr
 8000b92:	f04f 0001 	mov.w	r0, #1
 8000b96:	4770      	bx	lr

08000b98 <__aeabi_d2iz>:
 8000b98:	ea4f 0241 	mov.w	r2, r1, lsl #1
 8000b9c:	f512 1200 	adds.w	r2, r2, #2097152	; 0x200000
 8000ba0:	d215      	bcs.n	8000bce <__aeabi_d2iz+0x36>
 8000ba2:	d511      	bpl.n	8000bc8 <__aeabi_d2iz+0x30>
 8000ba4:	f46f 7378 	mvn.w	r3, #992	; 0x3e0
 8000ba8:	ebb3 5262 	subs.w	r2, r3, r2, asr #21
 8000bac:	d912      	bls.n	8000bd4 <__aeabi_d2iz+0x3c>
 8000bae:	ea4f 23c1 	mov.w	r3, r1, lsl #11
 8000bb2:	f043 4300 	orr.w	r3, r3, #2147483648	; 0x80000000
 8000bb6:	ea43 5350 	orr.w	r3, r3, r0, lsr #21
 8000bba:	f011 4f00 	tst.w	r1, #2147483648	; 0x80000000
 8000bbe:	fa23 f002 	lsr.w	r0, r3, r2
 8000bc2:	bf18      	it	ne
 8000bc4:	4240      	negne	r0, r0
 8000bc6:	4770      	bx	lr
 8000bc8:	f04f 0000 	mov.w	r0, #0
 8000bcc:	4770      	bx	lr
 8000bce:	ea50 3001 	orrs.w	r0, r0, r1, lsl #12
 8000bd2:	d105      	bne.n	8000be0 <__aeabi_d2iz+0x48>
 8000bd4:	f011 4000 	ands.w	r0, r1, #2147483648	; 0x80000000
 8000bd8:	bf08      	it	eq
 8000bda:	f06f 4000 	mvneq.w	r0, #2147483648	; 0x80000000
 8000bde:	4770      	bx	lr
 8000be0:	f04f 0000 	mov.w	r0, #0
 8000be4:	4770      	bx	lr
 8000be6:	bf00      	nop

08000be8 <__aeabi_d2uiz>:
 8000be8:	004a      	lsls	r2, r1, #1
 8000bea:	d211      	bcs.n	8000c10 <__aeabi_d2uiz+0x28>
 8000bec:	f512 1200 	adds.w	r2, r2, #2097152	; 0x200000
 8000bf0:	d211      	bcs.n	8000c16 <__aeabi_d2uiz+0x2e>
 8000bf2:	d50d      	bpl.n	8000c10 <__aeabi_d2uiz+0x28>
 8000bf4:	f46f 7378 	mvn.w	r3, #992	; 0x3e0
 8000bf8:	ebb3 5262 	subs.w	r2, r3, r2, asr #21
 8000bfc:	d40e      	bmi.n	8000c1c <__aeabi_d2uiz+0x34>
 8000bfe:	ea4f 23c1 	mov.w	r3, r1, lsl #11
 8000c02:	f043 4300 	orr.w	r3, r3, #2147483648	; 0x80000000
 8000c06:	ea43 5350 	orr.w	r3, r3, r0, lsr #21
 8000c0a:	fa23 f002 	lsr.w	r0, r3, r2
 8000c0e:	4770      	bx	lr
 8000c10:	f04f 0000 	mov.w	r0, #0
 8000c14:	4770      	bx	lr
 8000c16:	ea50 3001 	orrs.w	r0, r0, r1, lsl #12
 8000c1a:	d102      	bne.n	8000c22 <__aeabi_d2uiz+0x3a>
 8000c1c:	f04f 30ff 	mov.w	r0, #4294967295
 8000c20:	4770      	bx	lr
 8000c22:	f04f 0000 	mov.w	r0, #0
 8000c26:	4770      	bx	lr

08000c28 <__aeabi_d2f>:
 8000c28:	ea4f 0241 	mov.w	r2, r1, lsl #1
 8000c2c:	f1b2 43e0 	subs.w	r3, r2, #1879048192	; 0x70000000
 8000c30:	bf24      	itt	cs
 8000c32:	f5b3 1c00 	subscs.w	ip, r3, #2097152	; 0x200000
 8000c36:	f1dc 5cfe 	rsbscs	ip, ip, #532676608	; 0x1fc00000
 8000c3a:	d90d      	bls.n	8000c58 <__aeabi_d2f+0x30>
 8000c3c:	f001 4c00 	and.w	ip, r1, #2147483648	; 0x80000000
 8000c40:	ea4f 02c0 	mov.w	r2, r0, lsl #3
 8000c44:	ea4c 7050 	orr.w	r0, ip, r0, lsr #29
 8000c48:	f1b2 4f00 	cmp.w	r2, #2147483648	; 0x80000000
 8000c4c:	eb40 0083 	adc.w	r0, r0, r3, lsl #2
 8000c50:	bf08      	it	eq
 8000c52:	f020 0001 	biceq.w	r0, r0, #1
 8000c56:	4770      	bx	lr
 8000c58:	f011 4f80 	tst.w	r1, #1073741824	; 0x40000000
 8000c5c:	d121      	bne.n	8000ca2 <__aeabi_d2f+0x7a>
 8000c5e:	f113 7238 	adds.w	r2, r3, #48234496	; 0x2e00000
 8000c62:	bfbc      	itt	lt
 8000c64:	f001 4000 	andlt.w	r0, r1, #2147483648	; 0x80000000
 8000c68:	4770      	bxlt	lr
 8000c6a:	f441 1180 	orr.w	r1, r1, #1048576	; 0x100000
 8000c6e:	ea4f 5252 	mov.w	r2, r2, lsr #21
 8000c72:	f1c2 0218 	rsb	r2, r2, #24
 8000c76:	f1c2 0c20 	rsb	ip, r2, #32
 8000c7a:	fa10 f30c 	lsls.w	r3, r0, ip
 8000c7e:	fa20 f002 	lsr.w	r0, r0, r2
 8000c82:	bf18      	it	ne
 8000c84:	f040 0001 	orrne.w	r0, r0, #1
 8000c88:	ea4f 23c1 	mov.w	r3, r1, lsl #11
 8000c8c:	ea4f 23d3 	mov.w	r3, r3, lsr #11
 8000c90:	fa03 fc0c 	lsl.w	ip, r3, ip
 8000c94:	ea40 000c 	orr.w	r0, r0, ip
 8000c98:	fa23 f302 	lsr.w	r3, r3, r2
 8000c9c:	ea4f 0343 	mov.w	r3, r3, lsl #1
 8000ca0:	e7cc      	b.n	8000c3c <__aeabi_d2f+0x14>
 8000ca2:	ea7f 5362 	mvns.w	r3, r2, asr #21
 8000ca6:	d107      	bne.n	8000cb8 <__aeabi_d2f+0x90>
 8000ca8:	ea50 3301 	orrs.w	r3, r0, r1, lsl #12
 8000cac:	bf1e      	ittt	ne
 8000cae:	f04f 40fe 	movne.w	r0, #2130706432	; 0x7f000000
 8000cb2:	f440 0040 	orrne.w	r0, r0, #12582912	; 0xc00000
 8000cb6:	4770      	bxne	lr
 8000cb8:	f001 4000 	and.w	r0, r1, #2147483648	; 0x80000000
 8000cbc:	f040 40fe 	orr.w	r0, r0, #2130706432	; 0x7f000000
 8000cc0:	f440 0000 	orr.w	r0, r0, #8388608	; 0x800000
 8000cc4:	4770      	bx	lr
 8000cc6:	bf00      	nop

08000cc8 <__aeabi_uldivmod>:
 8000cc8:	b953      	cbnz	r3, 8000ce0 <__aeabi_uldivmod+0x18>
 8000cca:	b94a      	cbnz	r2, 8000ce0 <__aeabi_uldivmod+0x18>
 8000ccc:	2900      	cmp	r1, #0
 8000cce:	bf08      	it	eq
 8000cd0:	2800      	cmpeq	r0, #0
 8000cd2:	bf1c      	itt	ne
 8000cd4:	f04f 31ff 	movne.w	r1, #4294967295
 8000cd8:	f04f 30ff 	movne.w	r0, #4294967295
 8000cdc:	f000 b9aa 	b.w	8001034 <__aeabi_idiv0>
 8000ce0:	f1ad 0c08 	sub.w	ip, sp, #8
 8000ce4:	e96d ce04 	strd	ip, lr, [sp, #-16]!
 8000ce8:	f000 f83c 	bl	8000d64 <__udivmoddi4>
 8000cec:	f8dd e004 	ldr.w	lr, [sp, #4]
 8000cf0:	e9dd 2302 	ldrd	r2, r3, [sp, #8]
 8000cf4:	b004      	add	sp, #16
 8000cf6:	4770      	bx	lr

08000cf8 <__aeabi_d2lz>:
 8000cf8:	b538      	push	{r3, r4, r5, lr}
 8000cfa:	2200      	movs	r2, #0
 8000cfc:	2300      	movs	r3, #0
 8000cfe:	4604      	mov	r4, r0
 8000d00:	460d      	mov	r5, r1
 8000d02:	f7ff ff0b 	bl	8000b1c <__aeabi_dcmplt>
 8000d06:	b928      	cbnz	r0, 8000d14 <__aeabi_d2lz+0x1c>
 8000d08:	4620      	mov	r0, r4
 8000d0a:	4629      	mov	r1, r5
 8000d0c:	e8bd 4038 	ldmia.w	sp!, {r3, r4, r5, lr}
 8000d10:	f000 b80a 	b.w	8000d28 <__aeabi_d2ulz>
 8000d14:	4620      	mov	r0, r4
 8000d16:	f105 4100 	add.w	r1, r5, #2147483648	; 0x80000000
 8000d1a:	f000 f805 	bl	8000d28 <__aeabi_d2ulz>
 8000d1e:	4240      	negs	r0, r0
 8000d20:	eb61 0141 	sbc.w	r1, r1, r1, lsl #1
 8000d24:	bd38      	pop	{r3, r4, r5, pc}
 8000d26:	bf00      	nop

08000d28 <__aeabi_d2ulz>:
 8000d28:	b5d0      	push	{r4, r6, r7, lr}
 8000d2a:	4b0c      	ldr	r3, [pc, #48]	; (8000d5c <__aeabi_d2ulz+0x34>)
 8000d2c:	2200      	movs	r2, #0
 8000d2e:	4606      	mov	r6, r0
 8000d30:	460f      	mov	r7, r1
 8000d32:	f7ff fc81 	bl	8000638 <__aeabi_dmul>
 8000d36:	f7ff ff57 	bl	8000be8 <__aeabi_d2uiz>
 8000d3a:	4604      	mov	r4, r0
 8000d3c:	f7ff fc02 	bl	8000544 <__aeabi_ui2d>
 8000d40:	4b07      	ldr	r3, [pc, #28]	; (8000d60 <__aeabi_d2ulz+0x38>)
 8000d42:	2200      	movs	r2, #0
 8000d44:	f7ff fc78 	bl	8000638 <__aeabi_dmul>
 8000d48:	4602      	mov	r2, r0
 8000d4a:	460b      	mov	r3, r1
 8000d4c:	4630      	mov	r0, r6
 8000d4e:	4639      	mov	r1, r7
 8000d50:	f7ff faba 	bl	80002c8 <__aeabi_dsub>
 8000d54:	f7ff ff48 	bl	8000be8 <__aeabi_d2uiz>
 8000d58:	4621      	mov	r1, r4
 8000d5a:	bdd0      	pop	{r4, r6, r7, pc}
 8000d5c:	3df00000 	.word	0x3df00000
 8000d60:	41f00000 	.word	0x41f00000

08000d64 <__udivmoddi4>:
 8000d64:	e92d 47f0 	stmdb	sp!, {r4, r5, r6, r7, r8, r9, sl, lr}
 8000d68:	9d08      	ldr	r5, [sp, #32]
 8000d6a:	4604      	mov	r4, r0
 8000d6c:	468e      	mov	lr, r1
 8000d6e:	2b00      	cmp	r3, #0
 8000d70:	d14d      	bne.n	8000e0e <__udivmoddi4+0xaa>
 8000d72:	428a      	cmp	r2, r1
 8000d74:	4694      	mov	ip, r2
 8000d76:	d969      	bls.n	8000e4c <__udivmoddi4+0xe8>
 8000d78:	fab2 f282 	clz	r2, r2
 8000d7c:	b152      	cbz	r2, 8000d94 <__udivmoddi4+0x30>
 8000d7e:	fa01 f302 	lsl.w	r3, r1, r2
 8000d82:	f1c2 0120 	rsb	r1, r2, #32
 8000d86:	fa20 f101 	lsr.w	r1, r0, r1
 8000d8a:	fa0c fc02 	lsl.w	ip, ip, r2
 8000d8e:	ea41 0e03 	orr.w	lr, r1, r3
 8000d92:	4094      	lsls	r4, r2
 8000d94:	ea4f 481c 	mov.w	r8, ip, lsr #16
 8000d98:	0c21      	lsrs	r1, r4, #16
 8000d9a:	fbbe f6f8 	udiv	r6, lr, r8
 8000d9e:	fa1f f78c 	uxth.w	r7, ip
 8000da2:	fb08 e316 	mls	r3, r8, r6, lr
 8000da6:	ea41 4303 	orr.w	r3, r1, r3, lsl #16
 8000daa:	fb06 f107 	mul.w	r1, r6, r7
 8000dae:	4299      	cmp	r1, r3
 8000db0:	d90a      	bls.n	8000dc8 <__udivmoddi4+0x64>
 8000db2:	eb1c 0303 	adds.w	r3, ip, r3
 8000db6:	f106 30ff 	add.w	r0, r6, #4294967295
 8000dba:	f080 811f 	bcs.w	8000ffc <__udivmoddi4+0x298>
 8000dbe:	4299      	cmp	r1, r3
 8000dc0:	f240 811c 	bls.w	8000ffc <__udivmoddi4+0x298>
 8000dc4:	3e02      	subs	r6, #2
 8000dc6:	4463      	add	r3, ip
 8000dc8:	1a5b      	subs	r3, r3, r1
 8000dca:	b2a4      	uxth	r4, r4
 8000dcc:	fbb3 f0f8 	udiv	r0, r3, r8
 8000dd0:	fb08 3310 	mls	r3, r8, r0, r3
 8000dd4:	ea44 4403 	orr.w	r4, r4, r3, lsl #16
 8000dd8:	fb00 f707 	mul.w	r7, r0, r7
 8000ddc:	42a7      	cmp	r7, r4
 8000dde:	d90a      	bls.n	8000df6 <__udivmoddi4+0x92>
 8000de0:	eb1c 0404 	adds.w	r4, ip, r4
 8000de4:	f100 33ff 	add.w	r3, r0, #4294967295
 8000de8:	f080 810a 	bcs.w	8001000 <__udivmoddi4+0x29c>
 8000dec:	42a7      	cmp	r7, r4
 8000dee:	f240 8107 	bls.w	8001000 <__udivmoddi4+0x29c>
 8000df2:	4464      	add	r4, ip
 8000df4:	3802      	subs	r0, #2
 8000df6:	ea40 4006 	orr.w	r0, r0, r6, lsl #16
 8000dfa:	1be4      	subs	r4, r4, r7
 8000dfc:	2600      	movs	r6, #0
 8000dfe:	b11d      	cbz	r5, 8000e08 <__udivmoddi4+0xa4>
 8000e00:	40d4      	lsrs	r4, r2
 8000e02:	2300      	movs	r3, #0
 8000e04:	e9c5 4300 	strd	r4, r3, [r5]
 8000e08:	4631      	mov	r1, r6
 8000e0a:	e8bd 87f0 	ldmia.w	sp!, {r4, r5, r6, r7, r8, r9, sl, pc}
 8000e0e:	428b      	cmp	r3, r1
 8000e10:	d909      	bls.n	8000e26 <__udivmoddi4+0xc2>
 8000e12:	2d00      	cmp	r5, #0
 8000e14:	f000 80ef 	beq.w	8000ff6 <__udivmoddi4+0x292>
 8000e18:	2600      	movs	r6, #0
 8000e1a:	e9c5 0100 	strd	r0, r1, [r5]
 8000e1e:	4630      	mov	r0, r6
 8000e20:	4631      	mov	r1, r6
 8000e22:	e8bd 87f0 	ldmia.w	sp!, {r4, r5, r6, r7, r8, r9, sl, pc}
 8000e26:	fab3 f683 	clz	r6, r3
 8000e2a:	2e00      	cmp	r6, #0
 8000e2c:	d14a      	bne.n	8000ec4 <__udivmoddi4+0x160>
 8000e2e:	428b      	cmp	r3, r1
 8000e30:	d302      	bcc.n	8000e38 <__udivmoddi4+0xd4>
 8000e32:	4282      	cmp	r2, r0
 8000e34:	f200 80f9 	bhi.w	800102a <__udivmoddi4+0x2c6>
 8000e38:	1a84      	subs	r4, r0, r2
 8000e3a:	eb61 0303 	sbc.w	r3, r1, r3
 8000e3e:	2001      	movs	r0, #1
 8000e40:	469e      	mov	lr, r3
 8000e42:	2d00      	cmp	r5, #0
 8000e44:	d0e0      	beq.n	8000e08 <__udivmoddi4+0xa4>
 8000e46:	e9c5 4e00 	strd	r4, lr, [r5]
 8000e4a:	e7dd      	b.n	8000e08 <__udivmoddi4+0xa4>
 8000e4c:	b902      	cbnz	r2, 8000e50 <__udivmoddi4+0xec>
 8000e4e:	deff      	udf	#255	; 0xff
 8000e50:	fab2 f282 	clz	r2, r2
 8000e54:	2a00      	cmp	r2, #0
 8000e56:	f040 8092 	bne.w	8000f7e <__udivmoddi4+0x21a>
 8000e5a:	eba1 010c 	sub.w	r1, r1, ip
 8000e5e:	ea4f 471c 	mov.w	r7, ip, lsr #16
 8000e62:	fa1f fe8c 	uxth.w	lr, ip
 8000e66:	2601      	movs	r6, #1
 8000e68:	0c20      	lsrs	r0, r4, #16
 8000e6a:	fbb1 f3f7 	udiv	r3, r1, r7
 8000e6e:	fb07 1113 	mls	r1, r7, r3, r1
 8000e72:	ea40 4101 	orr.w	r1, r0, r1, lsl #16
 8000e76:	fb0e f003 	mul.w	r0, lr, r3
 8000e7a:	4288      	cmp	r0, r1
 8000e7c:	d908      	bls.n	8000e90 <__udivmoddi4+0x12c>
 8000e7e:	eb1c 0101 	adds.w	r1, ip, r1
 8000e82:	f103 38ff 	add.w	r8, r3, #4294967295
 8000e86:	d202      	bcs.n	8000e8e <__udivmoddi4+0x12a>
 8000e88:	4288      	cmp	r0, r1
 8000e8a:	f200 80cb 	bhi.w	8001024 <__udivmoddi4+0x2c0>
 8000e8e:	4643      	mov	r3, r8
 8000e90:	1a09      	subs	r1, r1, r0
 8000e92:	b2a4      	uxth	r4, r4
 8000e94:	fbb1 f0f7 	udiv	r0, r1, r7
 8000e98:	fb07 1110 	mls	r1, r7, r0, r1
 8000e9c:	ea44 4401 	orr.w	r4, r4, r1, lsl #16
 8000ea0:	fb0e fe00 	mul.w	lr, lr, r0
 8000ea4:	45a6      	cmp	lr, r4
 8000ea6:	d908      	bls.n	8000eba <__udivmoddi4+0x156>
 8000ea8:	eb1c 0404 	adds.w	r4, ip, r4
 8000eac:	f100 31ff 	add.w	r1, r0, #4294967295
 8000eb0:	d202      	bcs.n	8000eb8 <__udivmoddi4+0x154>
 8000eb2:	45a6      	cmp	lr, r4
 8000eb4:	f200 80bb 	bhi.w	800102e <__udivmoddi4+0x2ca>
 8000eb8:	4608      	mov	r0, r1
 8000eba:	eba4 040e 	sub.w	r4, r4, lr
 8000ebe:	ea40 4003 	orr.w	r0, r0, r3, lsl #16
 8000ec2:	e79c      	b.n	8000dfe <__udivmoddi4+0x9a>
 8000ec4:	f1c6 0720 	rsb	r7, r6, #32
 8000ec8:	40b3      	lsls	r3, r6
 8000eca:	fa22 fc07 	lsr.w	ip, r2, r7
 8000ece:	ea4c 0c03 	orr.w	ip, ip, r3
 8000ed2:	fa20 f407 	lsr.w	r4, r0, r7
 8000ed6:	fa01 f306 	lsl.w	r3, r1, r6
 8000eda:	431c      	orrs	r4, r3
 8000edc:	40f9      	lsrs	r1, r7
 8000ede:	ea4f 491c 	mov.w	r9, ip, lsr #16
 8000ee2:	fa00 f306 	lsl.w	r3, r0, r6
 8000ee6:	fbb1 f8f9 	udiv	r8, r1, r9
 8000eea:	0c20      	lsrs	r0, r4, #16
 8000eec:	fa1f fe8c 	uxth.w	lr, ip
 8000ef0:	fb09 1118 	mls	r1, r9, r8, r1
 8000ef4:	ea40 4101 	orr.w	r1, r0, r1, lsl #16
 8000ef8:	fb08 f00e 	mul.w	r0, r8, lr
 8000efc:	4288      	cmp	r0, r1
 8000efe:	fa02 f206 	lsl.w	r2, r2, r6
 8000f02:	d90b      	bls.n	8000f1c <__udivmoddi4+0x1b8>
 8000f04:	eb1c 0101 	adds.w	r1, ip, r1
 8000f08:	f108 3aff 	add.w	sl, r8, #4294967295
 8000f0c:	f080 8088 	bcs.w	8001020 <__udivmoddi4+0x2bc>
 8000f10:	4288      	cmp	r0, r1
 8000f12:	f240 8085 	bls.w	8001020 <__udivmoddi4+0x2bc>
 8000f16:	f1a8 0802 	sub.w	r8, r8, #2
 8000f1a:	4461      	add	r1, ip
 8000f1c:	1a09      	subs	r1, r1, r0
 8000f1e:	b2a4      	uxth	r4, r4
 8000f20:	fbb1 f0f9 	udiv	r0, r1, r9
 8000f24:	fb09 1110 	mls	r1, r9, r0, r1
 8000f28:	ea44 4101 	orr.w	r1, r4, r1, lsl #16
 8000f2c:	fb00 fe0e 	mul.w	lr, r0, lr
 8000f30:	458e      	cmp	lr, r1
 8000f32:	d908      	bls.n	8000f46 <__udivmoddi4+0x1e2>
 8000f34:	eb1c 0101 	adds.w	r1, ip, r1
 8000f38:	f100 34ff 	add.w	r4, r0, #4294967295
 8000f3c:	d26c      	bcs.n	8001018 <__udivmoddi4+0x2b4>
 8000f3e:	458e      	cmp	lr, r1
 8000f40:	d96a      	bls.n	8001018 <__udivmoddi4+0x2b4>
 8000f42:	3802      	subs	r0, #2
 8000f44:	4461      	add	r1, ip
 8000f46:	ea40 4008 	orr.w	r0, r0, r8, lsl #16
 8000f4a:	fba0 9402 	umull	r9, r4, r0, r2
 8000f4e:	eba1 010e 	sub.w	r1, r1, lr
 8000f52:	42a1      	cmp	r1, r4
 8000f54:	46c8      	mov	r8, r9
 8000f56:	46a6      	mov	lr, r4
 8000f58:	d356      	bcc.n	8001008 <__udivmoddi4+0x2a4>
 8000f5a:	d053      	beq.n	8001004 <__udivmoddi4+0x2a0>
 8000f5c:	b15d      	cbz	r5, 8000f76 <__udivmoddi4+0x212>
 8000f5e:	ebb3 0208 	subs.w	r2, r3, r8
 8000f62:	eb61 010e 	sbc.w	r1, r1, lr
 8000f66:	fa01 f707 	lsl.w	r7, r1, r7
 8000f6a:	fa22 f306 	lsr.w	r3, r2, r6
 8000f6e:	40f1      	lsrs	r1, r6
 8000f70:	431f      	orrs	r7, r3
 8000f72:	e9c5 7100 	strd	r7, r1, [r5]
 8000f76:	2600      	movs	r6, #0
 8000f78:	4631      	mov	r1, r6
 8000f7a:	e8bd 87f0 	ldmia.w	sp!, {r4, r5, r6, r7, r8, r9, sl, pc}
 8000f7e:	f1c2 0320 	rsb	r3, r2, #32
 8000f82:	40d8      	lsrs	r0, r3
 8000f84:	fa0c fc02 	lsl.w	ip, ip, r2
 8000f88:	fa21 f303 	lsr.w	r3, r1, r3
 8000f8c:	4091      	lsls	r1, r2
 8000f8e:	4301      	orrs	r1, r0
 8000f90:	ea4f 471c 	mov.w	r7, ip, lsr #16
 8000f94:	fa1f fe8c 	uxth.w	lr, ip
 8000f98:	fbb3 f0f7 	udiv	r0, r3, r7
 8000f9c:	fb07 3610 	mls	r6, r7, r0, r3
 8000fa0:	0c0b      	lsrs	r3, r1, #16
 8000fa2:	ea43 4306 	orr.w	r3, r3, r6, lsl #16
 8000fa6:	fb00 f60e 	mul.w	r6, r0, lr
 8000faa:	429e      	cmp	r6, r3
 8000fac:	fa04 f402 	lsl.w	r4, r4, r2
 8000fb0:	d908      	bls.n	8000fc4 <__udivmoddi4+0x260>
 8000fb2:	eb1c 0303 	adds.w	r3, ip, r3
 8000fb6:	f100 38ff 	add.w	r8, r0, #4294967295
 8000fba:	d22f      	bcs.n	800101c <__udivmoddi4+0x2b8>
 8000fbc:	429e      	cmp	r6, r3
 8000fbe:	d92d      	bls.n	800101c <__udivmoddi4+0x2b8>
 8000fc0:	3802      	subs	r0, #2
 8000fc2:	4463      	add	r3, ip
 8000fc4:	1b9b      	subs	r3, r3, r6
 8000fc6:	b289      	uxth	r1, r1
 8000fc8:	fbb3 f6f7 	udiv	r6, r3, r7
 8000fcc:	fb07 3316 	mls	r3, r7, r6, r3
 8000fd0:	ea41 4103 	orr.w	r1, r1, r3, lsl #16
 8000fd4:	fb06 f30e 	mul.w	r3, r6, lr
 8000fd8:	428b      	cmp	r3, r1
 8000fda:	d908      	bls.n	8000fee <__udivmoddi4+0x28a>
 8000fdc:	eb1c 0101 	adds.w	r1, ip, r1
 8000fe0:	f106 38ff 	add.w	r8, r6, #4294967295
 8000fe4:	d216      	bcs.n	8001014 <__udivmoddi4+0x2b0>
 8000fe6:	428b      	cmp	r3, r1
 8000fe8:	d914      	bls.n	8001014 <__udivmoddi4+0x2b0>
 8000fea:	3e02      	subs	r6, #2
 8000fec:	4461      	add	r1, ip
 8000fee:	1ac9      	subs	r1, r1, r3
 8000ff0:	ea46 4600 	orr.w	r6, r6, r0, lsl #16
 8000ff4:	e738      	b.n	8000e68 <__udivmoddi4+0x104>
 8000ff6:	462e      	mov	r6, r5
 8000ff8:	4628      	mov	r0, r5
 8000ffa:	e705      	b.n	8000e08 <__udivmoddi4+0xa4>
 8000ffc:	4606      	mov	r6, r0
 8000ffe:	e6e3      	b.n	8000dc8 <__udivmoddi4+0x64>
 8001000:	4618      	mov	r0, r3
 8001002:	e6f8      	b.n	8000df6 <__udivmoddi4+0x92>
 8001004:	454b      	cmp	r3, r9
 8001006:	d2a9      	bcs.n	8000f5c <__udivmoddi4+0x1f8>
 8001008:	ebb9 0802 	subs.w	r8, r9, r2
 800100c:	eb64 0e0c 	sbc.w	lr, r4, ip
 8001010:	3801      	subs	r0, #1
 8001012:	e7a3      	b.n	8000f5c <__udivmoddi4+0x1f8>
 8001014:	4646      	mov	r6, r8
 8001016:	e7ea      	b.n	8000fee <__udivmoddi4+0x28a>
 8001018:	4620      	mov	r0, r4
 800101a:	e794      	b.n	8000f46 <__udivmoddi4+0x1e2>
 800101c:	4640      	mov	r0, r8
 800101e:	e7d1      	b.n	8000fc4 <__udivmoddi4+0x260>
 8001020:	46d0      	mov	r8, sl
 8001022:	e77b      	b.n	8000f1c <__udivmoddi4+0x1b8>
 8001024:	3b02      	subs	r3, #2
 8001026:	4461      	add	r1, ip
 8001028:	e732      	b.n	8000e90 <__udivmoddi4+0x12c>
 800102a:	4630      	mov	r0, r6
 800102c:	e709      	b.n	8000e42 <__udivmoddi4+0xde>
 800102e:	4464      	add	r4, ip
 8001030:	3802      	subs	r0, #2
 8001032:	e742      	b.n	8000eba <__udivmoddi4+0x156>

08001034 <__aeabi_idiv0>:
 8001034:	4770      	bx	lr
 8001036:	bf00      	nop

08001038 <main>:
/**
  * @brief  The application entry point.
  * @retval int
  */
int main(void)
{
 8001038:	b580      	push	{r7, lr}
 800103a:	af00      	add	r7, sp, #0
  /* USER CODE END 1 */

  /* MCU Configuration--------------------------------------------------------*/

  /* Reset of all peripherals, Initializes the Flash interface and the Systick. */
  HAL_Init();
 800103c:	f000 fcaa 	bl	8001994 <HAL_Init>
  /* USER CODE BEGIN Init */

  /* USER CODE END Init */

  /* Configure the system clock */
  SystemClock_Config();
 8001040:	f000 f81a 	bl	8001078 <SystemClock_Config>
  /* USER CODE BEGIN SysInit */

  /* USER CODE END SysInit */

  /* Initialize all configured peripherals */
  MX_GPIO_Init();
 8001044:	f000 f8fa 	bl	800123c <MX_GPIO_Init>
  MX_DMA_Init();
 8001048:	f000 f8d8 	bl	80011fc <MX_DMA_Init>
  MX_USART2_UART_Init();
 800104c:	f000 f8ac 	bl	80011a8 <MX_USART2_UART_Init>
  MX_USART1_UART_Init();
 8001050:	f000 f880 	bl	8001154 <MX_USART1_UART_Init>
  /* USER CODE BEGIN 2 */

  HAL_UART_Receive_DMA(&huart1, (uint8_t*) Rx_Data, 700);
 8001054:	f44f 722f 	mov.w	r2, #700	; 0x2bc
 8001058:	4905      	ldr	r1, [pc, #20]	; (8001070 <main+0x38>)
 800105a:	4806      	ldr	r0, [pc, #24]	; (8001074 <main+0x3c>)
 800105c:	f002 fa27 	bl	80034ae <HAL_UART_Receive_DMA>
  {
    /* USER CODE END WHILE */
    /* USER CODE BEGIN 3 */
	//printf("Hello world\r\n");
	//HAL_Delay(1000);
	get_location();
 8001060:	f000 f97c 	bl	800135c <get_location>
	HAL_Delay(1000);
 8001064:	f44f 707a 	mov.w	r0, #1000	; 0x3e8
 8001068:	f000 fd06 	bl	8001a78 <HAL_Delay>
	get_location();
 800106c:	e7f8      	b.n	8001060 <main+0x28>
 800106e:	bf00      	nop
 8001070:	200002e4 	.word	0x200002e4
 8001074:	200001fc 	.word	0x200001fc

08001078 <SystemClock_Config>:
/**
  * @brief System Clock Configuration
  * @retval None
  */
void SystemClock_Config(void)
{
 8001078:	b580      	push	{r7, lr}
 800107a:	b094      	sub	sp, #80	; 0x50
 800107c:	af00      	add	r7, sp, #0
  RCC_OscInitTypeDef RCC_OscInitStruct = {0};
 800107e:	f107 031c 	add.w	r3, r7, #28
 8001082:	2234      	movs	r2, #52	; 0x34
 8001084:	2100      	movs	r1, #0
 8001086:	4618      	mov	r0, r3
 8001088:	f002 ff90 	bl	8003fac <memset>
  RCC_ClkInitTypeDef RCC_ClkInitStruct = {0};
 800108c:	f107 0308 	add.w	r3, r7, #8
 8001090:	2200      	movs	r2, #0
 8001092:	601a      	str	r2, [r3, #0]
 8001094:	605a      	str	r2, [r3, #4]
 8001096:	609a      	str	r2, [r3, #8]
 8001098:	60da      	str	r2, [r3, #12]
 800109a:	611a      	str	r2, [r3, #16]

  /** Configure the main internal regulator output voltage
  */
  __HAL_RCC_PWR_CLK_ENABLE();
 800109c:	2300      	movs	r3, #0
 800109e:	607b      	str	r3, [r7, #4]
 80010a0:	4b2a      	ldr	r3, [pc, #168]	; (800114c <SystemClock_Config+0xd4>)
 80010a2:	6c1b      	ldr	r3, [r3, #64]	; 0x40
 80010a4:	4a29      	ldr	r2, [pc, #164]	; (800114c <SystemClock_Config+0xd4>)
 80010a6:	f043 5380 	orr.w	r3, r3, #268435456	; 0x10000000
 80010aa:	6413      	str	r3, [r2, #64]	; 0x40
 80010ac:	4b27      	ldr	r3, [pc, #156]	; (800114c <SystemClock_Config+0xd4>)
 80010ae:	6c1b      	ldr	r3, [r3, #64]	; 0x40
 80010b0:	f003 5380 	and.w	r3, r3, #268435456	; 0x10000000
 80010b4:	607b      	str	r3, [r7, #4]
 80010b6:	687b      	ldr	r3, [r7, #4]
  __HAL_PWR_VOLTAGESCALING_CONFIG(PWR_REGULATOR_VOLTAGE_SCALE3);
 80010b8:	2300      	movs	r3, #0
 80010ba:	603b      	str	r3, [r7, #0]
 80010bc:	4b24      	ldr	r3, [pc, #144]	; (8001150 <SystemClock_Config+0xd8>)
 80010be:	681b      	ldr	r3, [r3, #0]
 80010c0:	f423 4340 	bic.w	r3, r3, #49152	; 0xc000
 80010c4:	4a22      	ldr	r2, [pc, #136]	; (8001150 <SystemClock_Config+0xd8>)
 80010c6:	f443 4380 	orr.w	r3, r3, #16384	; 0x4000
 80010ca:	6013      	str	r3, [r2, #0]
 80010cc:	4b20      	ldr	r3, [pc, #128]	; (8001150 <SystemClock_Config+0xd8>)
 80010ce:	681b      	ldr	r3, [r3, #0]
 80010d0:	f403 4340 	and.w	r3, r3, #49152	; 0xc000
 80010d4:	603b      	str	r3, [r7, #0]
 80010d6:	683b      	ldr	r3, [r7, #0]

  /** Initializes the RCC Oscillators according to the specified parameters
  * in the RCC_OscInitTypeDef structure.
  */
  RCC_OscInitStruct.OscillatorType = RCC_OSCILLATORTYPE_HSI;
 80010d8:	2302      	movs	r3, #2
 80010da:	61fb      	str	r3, [r7, #28]
  RCC_OscInitStruct.HSIState = RCC_HSI_ON;
 80010dc:	2301      	movs	r3, #1
 80010de:	62bb      	str	r3, [r7, #40]	; 0x28
  RCC_OscInitStruct.HSICalibrationValue = RCC_HSICALIBRATION_DEFAULT;
 80010e0:	2310      	movs	r3, #16
 80010e2:	62fb      	str	r3, [r7, #44]	; 0x2c
  RCC_OscInitStruct.PLL.PLLState = RCC_PLL_ON;
 80010e4:	2302      	movs	r3, #2
 80010e6:	637b      	str	r3, [r7, #52]	; 0x34
  RCC_OscInitStruct.PLL.PLLSource = RCC_PLLSOURCE_HSI;
 80010e8:	2300      	movs	r3, #0
 80010ea:	63bb      	str	r3, [r7, #56]	; 0x38
  RCC_OscInitStruct.PLL.PLLM = 16;
 80010ec:	2310      	movs	r3, #16
 80010ee:	63fb      	str	r3, [r7, #60]	; 0x3c
  RCC_OscInitStruct.PLL.PLLN = 336;
 80010f0:	f44f 73a8 	mov.w	r3, #336	; 0x150
 80010f4:	643b      	str	r3, [r7, #64]	; 0x40
  RCC_OscInitStruct.PLL.PLLP = RCC_PLLP_DIV4;
 80010f6:	2304      	movs	r3, #4
 80010f8:	647b      	str	r3, [r7, #68]	; 0x44
  RCC_OscInitStruct.PLL.PLLQ = 2;
 80010fa:	2302      	movs	r3, #2
 80010fc:	64bb      	str	r3, [r7, #72]	; 0x48
  RCC_OscInitStruct.PLL.PLLR = 2;
 80010fe:	2302      	movs	r3, #2
 8001100:	64fb      	str	r3, [r7, #76]	; 0x4c
  if (HAL_RCC_OscConfig(&RCC_OscInitStruct) != HAL_OK)
 8001102:	f107 031c 	add.w	r3, r7, #28
 8001106:	4618      	mov	r0, r3
 8001108:	f001 fe54 	bl	8002db4 <HAL_RCC_OscConfig>
 800110c:	4603      	mov	r3, r0
 800110e:	2b00      	cmp	r3, #0
 8001110:	d001      	beq.n	8001116 <SystemClock_Config+0x9e>
  {
    Error_Handler();
 8001112:	f000 fa2b 	bl	800156c <Error_Handler>
  }

  /** Initializes the CPU, AHB and APB buses clocks
  */
  RCC_ClkInitStruct.ClockType = RCC_CLOCKTYPE_HCLK|RCC_CLOCKTYPE_SYSCLK
 8001116:	230f      	movs	r3, #15
 8001118:	60bb      	str	r3, [r7, #8]
                              |RCC_CLOCKTYPE_PCLK1|RCC_CLOCKTYPE_PCLK2;
  RCC_ClkInitStruct.SYSCLKSource = RCC_SYSCLKSOURCE_PLLCLK;
 800111a:	2302      	movs	r3, #2
 800111c:	60fb      	str	r3, [r7, #12]
  RCC_ClkInitStruct.AHBCLKDivider = RCC_SYSCLK_DIV1;
 800111e:	2300      	movs	r3, #0
 8001120:	613b      	str	r3, [r7, #16]
  RCC_ClkInitStruct.APB1CLKDivider = RCC_HCLK_DIV2;
 8001122:	f44f 5380 	mov.w	r3, #4096	; 0x1000
 8001126:	617b      	str	r3, [r7, #20]
  RCC_ClkInitStruct.APB2CLKDivider = RCC_HCLK_DIV1;
 8001128:	2300      	movs	r3, #0
 800112a:	61bb      	str	r3, [r7, #24]

  if (HAL_RCC_ClockConfig(&RCC_ClkInitStruct, FLASH_LATENCY_2) != HAL_OK)
 800112c:	f107 0308 	add.w	r3, r7, #8
 8001130:	2102      	movs	r1, #2
 8001132:	4618      	mov	r0, r3
 8001134:	f001 faf4 	bl	8002720 <HAL_RCC_ClockConfig>
 8001138:	4603      	mov	r3, r0
 800113a:	2b00      	cmp	r3, #0
 800113c:	d001      	beq.n	8001142 <SystemClock_Config+0xca>
  {
    Error_Handler();
 800113e:	f000 fa15 	bl	800156c <Error_Handler>
  }
}
 8001142:	bf00      	nop
 8001144:	3750      	adds	r7, #80	; 0x50
 8001146:	46bd      	mov	sp, r7
 8001148:	bd80      	pop	{r7, pc}
 800114a:	bf00      	nop
 800114c:	40023800 	.word	0x40023800
 8001150:	40007000 	.word	0x40007000

08001154 <MX_USART1_UART_Init>:
  * @brief USART1 Initialization Function
  * @param None
  * @retval None
  */
static void MX_USART1_UART_Init(void)
{
 8001154:	b580      	push	{r7, lr}
 8001156:	af00      	add	r7, sp, #0
  /* USER CODE END USART1_Init 0 */

  /* USER CODE BEGIN USART1_Init 1 */

  /* USER CODE END USART1_Init 1 */
  huart1.Instance = USART1;
 8001158:	4b11      	ldr	r3, [pc, #68]	; (80011a0 <MX_USART1_UART_Init+0x4c>)
 800115a:	4a12      	ldr	r2, [pc, #72]	; (80011a4 <MX_USART1_UART_Init+0x50>)
 800115c:	601a      	str	r2, [r3, #0]
  huart1.Init.BaudRate = 9600;
 800115e:	4b10      	ldr	r3, [pc, #64]	; (80011a0 <MX_USART1_UART_Init+0x4c>)
 8001160:	f44f 5216 	mov.w	r2, #9600	; 0x2580
 8001164:	605a      	str	r2, [r3, #4]
  huart1.Init.WordLength = UART_WORDLENGTH_8B;
 8001166:	4b0e      	ldr	r3, [pc, #56]	; (80011a0 <MX_USART1_UART_Init+0x4c>)
 8001168:	2200      	movs	r2, #0
 800116a:	609a      	str	r2, [r3, #8]
  huart1.Init.StopBits = UART_STOPBITS_1;
 800116c:	4b0c      	ldr	r3, [pc, #48]	; (80011a0 <MX_USART1_UART_Init+0x4c>)
 800116e:	2200      	movs	r2, #0
 8001170:	60da      	str	r2, [r3, #12]
  huart1.Init.Parity = UART_PARITY_NONE;
 8001172:	4b0b      	ldr	r3, [pc, #44]	; (80011a0 <MX_USART1_UART_Init+0x4c>)
 8001174:	2200      	movs	r2, #0
 8001176:	611a      	str	r2, [r3, #16]
  huart1.Init.Mode = UART_MODE_TX_RX;
 8001178:	4b09      	ldr	r3, [pc, #36]	; (80011a0 <MX_USART1_UART_Init+0x4c>)
 800117a:	220c      	movs	r2, #12
 800117c:	615a      	str	r2, [r3, #20]
  huart1.Init.HwFlowCtl = UART_HWCONTROL_NONE;
 800117e:	4b08      	ldr	r3, [pc, #32]	; (80011a0 <MX_USART1_UART_Init+0x4c>)
 8001180:	2200      	movs	r2, #0
 8001182:	619a      	str	r2, [r3, #24]
  huart1.Init.OverSampling = UART_OVERSAMPLING_16;
 8001184:	4b06      	ldr	r3, [pc, #24]	; (80011a0 <MX_USART1_UART_Init+0x4c>)
 8001186:	2200      	movs	r2, #0
 8001188:	61da      	str	r2, [r3, #28]
  if (HAL_UART_Init(&huart1) != HAL_OK)
 800118a:	4805      	ldr	r0, [pc, #20]	; (80011a0 <MX_USART1_UART_Init+0x4c>)
 800118c:	f002 f8b0 	bl	80032f0 <HAL_UART_Init>
 8001190:	4603      	mov	r3, r0
 8001192:	2b00      	cmp	r3, #0
 8001194:	d001      	beq.n	800119a <MX_USART1_UART_Init+0x46>
  {
    Error_Handler();
 8001196:	f000 f9e9 	bl	800156c <Error_Handler>
  }
  /* USER CODE BEGIN USART1_Init 2 */

  /* USER CODE END USART1_Init 2 */

}
 800119a:	bf00      	nop
 800119c:	bd80      	pop	{r7, pc}
 800119e:	bf00      	nop
 80011a0:	200001fc 	.word	0x200001fc
 80011a4:	40011000 	.word	0x40011000

080011a8 <MX_USART2_UART_Init>:
  * @brief USART2 Initialization Function
  * @param None
  * @retval None
  */
static void MX_USART2_UART_Init(void)
{
 80011a8:	b580      	push	{r7, lr}
 80011aa:	af00      	add	r7, sp, #0
  /* USER CODE END USART2_Init 0 */

  /* USER CODE BEGIN USART2_Init 1 */

  /* USER CODE END USART2_Init 1 */
  huart2.Instance = USART2;
 80011ac:	4b11      	ldr	r3, [pc, #68]	; (80011f4 <MX_USART2_UART_Init+0x4c>)
 80011ae:	4a12      	ldr	r2, [pc, #72]	; (80011f8 <MX_USART2_UART_Init+0x50>)
 80011b0:	601a      	str	r2, [r3, #0]
  huart2.Init.BaudRate = 9600;
 80011b2:	4b10      	ldr	r3, [pc, #64]	; (80011f4 <MX_USART2_UART_Init+0x4c>)
 80011b4:	f44f 5216 	mov.w	r2, #9600	; 0x2580
 80011b8:	605a      	str	r2, [r3, #4]
  huart2.Init.WordLength = UART_WORDLENGTH_8B;
 80011ba:	4b0e      	ldr	r3, [pc, #56]	; (80011f4 <MX_USART2_UART_Init+0x4c>)
 80011bc:	2200      	movs	r2, #0
 80011be:	609a      	str	r2, [r3, #8]
  huart2.Init.StopBits = UART_STOPBITS_1;
 80011c0:	4b0c      	ldr	r3, [pc, #48]	; (80011f4 <MX_USART2_UART_Init+0x4c>)
 80011c2:	2200      	movs	r2, #0
 80011c4:	60da      	str	r2, [r3, #12]
  huart2.Init.Parity = UART_PARITY_NONE;
 80011c6:	4b0b      	ldr	r3, [pc, #44]	; (80011f4 <MX_USART2_UART_Init+0x4c>)
 80011c8:	2200      	movs	r2, #0
 80011ca:	611a      	str	r2, [r3, #16]
  huart2.Init.Mode = UART_MODE_TX_RX;
 80011cc:	4b09      	ldr	r3, [pc, #36]	; (80011f4 <MX_USART2_UART_Init+0x4c>)
 80011ce:	220c      	movs	r2, #12
 80011d0:	615a      	str	r2, [r3, #20]
  huart2.Init.HwFlowCtl = UART_HWCONTROL_NONE;
 80011d2:	4b08      	ldr	r3, [pc, #32]	; (80011f4 <MX_USART2_UART_Init+0x4c>)
 80011d4:	2200      	movs	r2, #0
 80011d6:	619a      	str	r2, [r3, #24]
  huart2.Init.OverSampling = UART_OVERSAMPLING_16;
 80011d8:	4b06      	ldr	r3, [pc, #24]	; (80011f4 <MX_USART2_UART_Init+0x4c>)
 80011da:	2200      	movs	r2, #0
 80011dc:	61da      	str	r2, [r3, #28]
  if (HAL_UART_Init(&huart2) != HAL_OK)
 80011de:	4805      	ldr	r0, [pc, #20]	; (80011f4 <MX_USART2_UART_Init+0x4c>)
 80011e0:	f002 f886 	bl	80032f0 <HAL_UART_Init>
 80011e4:	4603      	mov	r3, r0
 80011e6:	2b00      	cmp	r3, #0
 80011e8:	d001      	beq.n	80011ee <MX_USART2_UART_Init+0x46>
  {
    Error_Handler();
 80011ea:	f000 f9bf 	bl	800156c <Error_Handler>
  }
  /* USER CODE BEGIN USART2_Init 2 */

  /* USER CODE END USART2_Init 2 */

}
 80011ee:	bf00      	nop
 80011f0:	bd80      	pop	{r7, pc}
 80011f2:	bf00      	nop
 80011f4:	20000240 	.word	0x20000240
 80011f8:	40004400 	.word	0x40004400

080011fc <MX_DMA_Init>:

/**
  * Enable DMA controller clock
  */
static void MX_DMA_Init(void)
{
 80011fc:	b580      	push	{r7, lr}
 80011fe:	b082      	sub	sp, #8
 8001200:	af00      	add	r7, sp, #0

  /* DMA controller clock enable */
  __HAL_RCC_DMA2_CLK_ENABLE();
 8001202:	2300      	movs	r3, #0
 8001204:	607b      	str	r3, [r7, #4]
 8001206:	4b0c      	ldr	r3, [pc, #48]	; (8001238 <MX_DMA_Init+0x3c>)
 8001208:	6b1b      	ldr	r3, [r3, #48]	; 0x30
 800120a:	4a0b      	ldr	r2, [pc, #44]	; (8001238 <MX_DMA_Init+0x3c>)
 800120c:	f443 0380 	orr.w	r3, r3, #4194304	; 0x400000
 8001210:	6313      	str	r3, [r2, #48]	; 0x30
 8001212:	4b09      	ldr	r3, [pc, #36]	; (8001238 <MX_DMA_Init+0x3c>)
 8001214:	6b1b      	ldr	r3, [r3, #48]	; 0x30
 8001216:	f403 0380 	and.w	r3, r3, #4194304	; 0x400000
 800121a:	607b      	str	r3, [r7, #4]
 800121c:	687b      	ldr	r3, [r7, #4]

  /* DMA interrupt init */
  /* DMA2_Stream2_IRQn interrupt configuration */
  HAL_NVIC_SetPriority(DMA2_Stream2_IRQn, 0, 0);
 800121e:	2200      	movs	r2, #0
 8001220:	2100      	movs	r1, #0
 8001222:	203a      	movs	r0, #58	; 0x3a
 8001224:	f000 fd27 	bl	8001c76 <HAL_NVIC_SetPriority>
  HAL_NVIC_EnableIRQ(DMA2_Stream2_IRQn);
 8001228:	203a      	movs	r0, #58	; 0x3a
 800122a:	f000 fd40 	bl	8001cae <HAL_NVIC_EnableIRQ>

}
 800122e:	bf00      	nop
 8001230:	3708      	adds	r7, #8
 8001232:	46bd      	mov	sp, r7
 8001234:	bd80      	pop	{r7, pc}
 8001236:	bf00      	nop
 8001238:	40023800 	.word	0x40023800

0800123c <MX_GPIO_Init>:
  * @brief GPIO Initialization Function
  * @param None
  * @retval None
  */
static void MX_GPIO_Init(void)
{
 800123c:	b580      	push	{r7, lr}
 800123e:	b08a      	sub	sp, #40	; 0x28
 8001240:	af00      	add	r7, sp, #0
  GPIO_InitTypeDef GPIO_InitStruct = {0};
 8001242:	f107 0314 	add.w	r3, r7, #20
 8001246:	2200      	movs	r2, #0
 8001248:	601a      	str	r2, [r3, #0]
 800124a:	605a      	str	r2, [r3, #4]
 800124c:	609a      	str	r2, [r3, #8]
 800124e:	60da      	str	r2, [r3, #12]
 8001250:	611a      	str	r2, [r3, #16]
/* USER CODE BEGIN MX_GPIO_Init_1 */
/* USER CODE END MX_GPIO_Init_1 */

  /* GPIO Ports Clock Enable */
  __HAL_RCC_GPIOC_CLK_ENABLE();
 8001252:	2300      	movs	r3, #0
 8001254:	613b      	str	r3, [r7, #16]
 8001256:	4b2d      	ldr	r3, [pc, #180]	; (800130c <MX_GPIO_Init+0xd0>)
 8001258:	6b1b      	ldr	r3, [r3, #48]	; 0x30
 800125a:	4a2c      	ldr	r2, [pc, #176]	; (800130c <MX_GPIO_Init+0xd0>)
 800125c:	f043 0304 	orr.w	r3, r3, #4
 8001260:	6313      	str	r3, [r2, #48]	; 0x30
 8001262:	4b2a      	ldr	r3, [pc, #168]	; (800130c <MX_GPIO_Init+0xd0>)
 8001264:	6b1b      	ldr	r3, [r3, #48]	; 0x30
 8001266:	f003 0304 	and.w	r3, r3, #4
 800126a:	613b      	str	r3, [r7, #16]
 800126c:	693b      	ldr	r3, [r7, #16]
  __HAL_RCC_GPIOH_CLK_ENABLE();
 800126e:	2300      	movs	r3, #0
 8001270:	60fb      	str	r3, [r7, #12]
 8001272:	4b26      	ldr	r3, [pc, #152]	; (800130c <MX_GPIO_Init+0xd0>)
 8001274:	6b1b      	ldr	r3, [r3, #48]	; 0x30
 8001276:	4a25      	ldr	r2, [pc, #148]	; (800130c <MX_GPIO_Init+0xd0>)
 8001278:	f043 0380 	orr.w	r3, r3, #128	; 0x80
 800127c:	6313      	str	r3, [r2, #48]	; 0x30
 800127e:	4b23      	ldr	r3, [pc, #140]	; (800130c <MX_GPIO_Init+0xd0>)
 8001280:	6b1b      	ldr	r3, [r3, #48]	; 0x30
 8001282:	f003 0380 	and.w	r3, r3, #128	; 0x80
 8001286:	60fb      	str	r3, [r7, #12]
 8001288:	68fb      	ldr	r3, [r7, #12]
  __HAL_RCC_GPIOA_CLK_ENABLE();
 800128a:	2300      	movs	r3, #0
 800128c:	60bb      	str	r3, [r7, #8]
 800128e:	4b1f      	ldr	r3, [pc, #124]	; (800130c <MX_GPIO_Init+0xd0>)
 8001290:	6b1b      	ldr	r3, [r3, #48]	; 0x30
 8001292:	4a1e      	ldr	r2, [pc, #120]	; (800130c <MX_GPIO_Init+0xd0>)
 8001294:	f043 0301 	orr.w	r3, r3, #1
 8001298:	6313      	str	r3, [r2, #48]	; 0x30
 800129a:	4b1c      	ldr	r3, [pc, #112]	; (800130c <MX_GPIO_Init+0xd0>)
 800129c:	6b1b      	ldr	r3, [r3, #48]	; 0x30
 800129e:	f003 0301 	and.w	r3, r3, #1
 80012a2:	60bb      	str	r3, [r7, #8]
 80012a4:	68bb      	ldr	r3, [r7, #8]
  __HAL_RCC_GPIOB_CLK_ENABLE();
 80012a6:	2300      	movs	r3, #0
 80012a8:	607b      	str	r3, [r7, #4]
 80012aa:	4b18      	ldr	r3, [pc, #96]	; (800130c <MX_GPIO_Init+0xd0>)
 80012ac:	6b1b      	ldr	r3, [r3, #48]	; 0x30
 80012ae:	4a17      	ldr	r2, [pc, #92]	; (800130c <MX_GPIO_Init+0xd0>)
 80012b0:	f043 0302 	orr.w	r3, r3, #2
 80012b4:	6313      	str	r3, [r2, #48]	; 0x30
 80012b6:	4b15      	ldr	r3, [pc, #84]	; (800130c <MX_GPIO_Init+0xd0>)
 80012b8:	6b1b      	ldr	r3, [r3, #48]	; 0x30
 80012ba:	f003 0302 	and.w	r3, r3, #2
 80012be:	607b      	str	r3, [r7, #4]
 80012c0:	687b      	ldr	r3, [r7, #4]

  /*Configure GPIO pin Output Level */
  HAL_GPIO_WritePin(LD2_GPIO_Port, LD2_Pin, GPIO_PIN_RESET);
 80012c2:	2200      	movs	r2, #0
 80012c4:	2120      	movs	r1, #32
 80012c6:	4812      	ldr	r0, [pc, #72]	; (8001310 <MX_GPIO_Init+0xd4>)
 80012c8:	f001 fa10 	bl	80026ec <HAL_GPIO_WritePin>

  /*Configure GPIO pin : B1_Pin */
  GPIO_InitStruct.Pin = B1_Pin;
 80012cc:	f44f 5300 	mov.w	r3, #8192	; 0x2000
 80012d0:	617b      	str	r3, [r7, #20]
  GPIO_InitStruct.Mode = GPIO_MODE_IT_FALLING;
 80012d2:	f44f 1304 	mov.w	r3, #2162688	; 0x210000
 80012d6:	61bb      	str	r3, [r7, #24]
  GPIO_InitStruct.Pull = GPIO_NOPULL;
 80012d8:	2300      	movs	r3, #0
 80012da:	61fb      	str	r3, [r7, #28]
  HAL_GPIO_Init(B1_GPIO_Port, &GPIO_InitStruct);
 80012dc:	f107 0314 	add.w	r3, r7, #20
 80012e0:	4619      	mov	r1, r3
 80012e2:	480c      	ldr	r0, [pc, #48]	; (8001314 <MX_GPIO_Init+0xd8>)
 80012e4:	f001 f86e 	bl	80023c4 <HAL_GPIO_Init>

  /*Configure GPIO pin : LD2_Pin */
  GPIO_InitStruct.Pin = LD2_Pin;
 80012e8:	2320      	movs	r3, #32
 80012ea:	617b      	str	r3, [r7, #20]
  GPIO_InitStruct.Mode = GPIO_MODE_OUTPUT_PP;
 80012ec:	2301      	movs	r3, #1
 80012ee:	61bb      	str	r3, [r7, #24]
  GPIO_InitStruct.Pull = GPIO_NOPULL;
 80012f0:	2300      	movs	r3, #0
 80012f2:	61fb      	str	r3, [r7, #28]
  GPIO_InitStruct.Speed = GPIO_SPEED_FREQ_LOW;
 80012f4:	2300      	movs	r3, #0
 80012f6:	623b      	str	r3, [r7, #32]
  HAL_GPIO_Init(LD2_GPIO_Port, &GPIO_InitStruct);
 80012f8:	f107 0314 	add.w	r3, r7, #20
 80012fc:	4619      	mov	r1, r3
 80012fe:	4804      	ldr	r0, [pc, #16]	; (8001310 <MX_GPIO_Init+0xd4>)
 8001300:	f001 f860 	bl	80023c4 <HAL_GPIO_Init>

/* USER CODE BEGIN MX_GPIO_Init_2 */
/* USER CODE END MX_GPIO_Init_2 */
}
 8001304:	bf00      	nop
 8001306:	3728      	adds	r7, #40	; 0x28
 8001308:	46bd      	mov	sp, r7
 800130a:	bd80      	pop	{r7, pc}
 800130c:	40023800 	.word	0x40023800
 8001310:	40020000 	.word	0x40020000
 8001314:	40020800 	.word	0x40020800

08001318 <HAL_UART_RxCpltCallback>:
/* USER CODE BEGIN 4 */




void HAL_UART_RxCpltCallback(UART_HandleTypeDef *huart) {
 8001318:	b480      	push	{r7}
 800131a:	b083      	sub	sp, #12
 800131c:	af00      	add	r7, sp, #0
 800131e:	6078      	str	r0, [r7, #4]
	Rx_Data_Ready_Flag = 1;
 8001320:	4b04      	ldr	r3, [pc, #16]	; (8001334 <HAL_UART_RxCpltCallback+0x1c>)
 8001322:	2201      	movs	r2, #1
 8001324:	701a      	strb	r2, [r3, #0]
}
 8001326:	bf00      	nop
 8001328:	370c      	adds	r7, #12
 800132a:	46bd      	mov	sp, r7
 800132c:	f85d 7b04 	ldr.w	r7, [sp], #4
 8001330:	4770      	bx	lr
 8001332:	bf00      	nop
 8001334:	20000928 	.word	0x20000928

08001338 <__io_putchar>:


PUTCHAR_PROTOTYPE
{
 8001338:	b580      	push	{r7, lr}
 800133a:	b082      	sub	sp, #8
 800133c:	af00      	add	r7, sp, #0
 800133e:	6078      	str	r0, [r7, #4]
  /* Place your implementation of fputc here */
  /* e.g. write a character to the EVAL_COM1 and Loop until the end of transmission */
  HAL_UART_Transmit(&huart2, (uint8_t *)&ch, 1, 0xFFFF);
 8001340:	1d39      	adds	r1, r7, #4
 8001342:	f64f 73ff 	movw	r3, #65535	; 0xffff
 8001346:	2201      	movs	r2, #1
 8001348:	4803      	ldr	r0, [pc, #12]	; (8001358 <__io_putchar+0x20>)
 800134a:	f002 f81e 	bl	800338a <HAL_UART_Transmit>

  return ch;
 800134e:	687b      	ldr	r3, [r7, #4]
}
 8001350:	4618      	mov	r0, r3
 8001352:	3708      	adds	r7, #8
 8001354:	46bd      	mov	sp, r7
 8001356:	bd80      	pop	{r7, pc}
 8001358:	20000240 	.word	0x20000240

0800135c <get_location>:


void get_location() {
 800135c:	b580      	push	{r7, lr}
 800135e:	b082      	sub	sp, #8
 8001360:	af02      	add	r7, sp, #8

	if(Rx_Data_Ready_Flag == 1) {
 8001362:	4b2c      	ldr	r3, [pc, #176]	; (8001414 <get_location+0xb8>)
 8001364:	781b      	ldrb	r3, [r3, #0]
 8001366:	2b01      	cmp	r3, #1
 8001368:	d151      	bne.n	800140e <get_location+0xb2>
		Msg_Index = 0;
 800136a:	4b2b      	ldr	r3, [pc, #172]	; (8001418 <get_location+0xbc>)
 800136c:	2200      	movs	r2, #0
 800136e:	601a      	str	r2, [r3, #0]
		strcpy(Data_Buffer, (char*)(Rx_Data));
 8001370:	492a      	ldr	r1, [pc, #168]	; (800141c <get_location+0xc0>)
 8001372:	482b      	ldr	r0, [pc, #172]	; (8001420 <get_location+0xc4>)
 8001374:	f003 fd33 	bl	8004dde <strcpy>
		GPS_Data_Ptr = strstr(Data_Buffer, "GPRMC");
 8001378:	492a      	ldr	r1, [pc, #168]	; (8001424 <get_location+0xc8>)
 800137a:	4829      	ldr	r0, [pc, #164]	; (8001420 <get_location+0xc4>)
 800137c:	f003 fd37 	bl	8004dee <strstr>
 8001380:	4603      	mov	r3, r0
 8001382:	4a29      	ldr	r2, [pc, #164]	; (8001428 <get_location+0xcc>)
 8001384:	6013      	str	r3, [r2, #0]

		if(*GPS_Data_Ptr == 'G') {
 8001386:	4b28      	ldr	r3, [pc, #160]	; (8001428 <get_location+0xcc>)
 8001388:	681b      	ldr	r3, [r3, #0]
 800138a:	781b      	ldrb	r3, [r3, #0]
 800138c:	2b47      	cmp	r3, #71	; 0x47
 800138e:	d13e      	bne.n	800140e <get_location+0xb2>
			while(1) {
				GPS_Payload[Msg_Index] = *GPS_Data_Ptr;
 8001390:	4b25      	ldr	r3, [pc, #148]	; (8001428 <get_location+0xcc>)
 8001392:	681a      	ldr	r2, [r3, #0]
 8001394:	4b20      	ldr	r3, [pc, #128]	; (8001418 <get_location+0xbc>)
 8001396:	681b      	ldr	r3, [r3, #0]
 8001398:	7811      	ldrb	r1, [r2, #0]
 800139a:	4a24      	ldr	r2, [pc, #144]	; (800142c <get_location+0xd0>)
 800139c:	54d1      	strb	r1, [r2, r3]
				Msg_Index++;
 800139e:	4b1e      	ldr	r3, [pc, #120]	; (8001418 <get_location+0xbc>)
 80013a0:	681b      	ldr	r3, [r3, #0]
 80013a2:	3301      	adds	r3, #1
 80013a4:	4a1c      	ldr	r2, [pc, #112]	; (8001418 <get_location+0xbc>)
 80013a6:	6013      	str	r3, [r2, #0]
				*GPS_Data_Ptr = *(GPS_Data_Ptr + Msg_Index);
 80013a8:	4b1f      	ldr	r3, [pc, #124]	; (8001428 <get_location+0xcc>)
 80013aa:	681b      	ldr	r3, [r3, #0]
 80013ac:	4a1a      	ldr	r2, [pc, #104]	; (8001418 <get_location+0xbc>)
 80013ae:	6812      	ldr	r2, [r2, #0]
 80013b0:	441a      	add	r2, r3
 80013b2:	4b1d      	ldr	r3, [pc, #116]	; (8001428 <get_location+0xcc>)
 80013b4:	681b      	ldr	r3, [r3, #0]
 80013b6:	7812      	ldrb	r2, [r2, #0]
 80013b8:	701a      	strb	r2, [r3, #0]

				if(*GPS_Data_Ptr == '\n') {
 80013ba:	4b1b      	ldr	r3, [pc, #108]	; (8001428 <get_location+0xcc>)
 80013bc:	681b      	ldr	r3, [r3, #0]
 80013be:	781b      	ldrb	r3, [r3, #0]
 80013c0:	2b0a      	cmp	r3, #10
 80013c2:	d1e5      	bne.n	8001390 <get_location+0x34>
					GPS_Payload[Msg_Index] = '\0';
 80013c4:	4b14      	ldr	r3, [pc, #80]	; (8001418 <get_location+0xbc>)
 80013c6:	681b      	ldr	r3, [r3, #0]
 80013c8:	4a18      	ldr	r2, [pc, #96]	; (800142c <get_location+0xd0>)
 80013ca:	2100      	movs	r1, #0
 80013cc:	54d1      	strb	r1, [r2, r3]
					break;
 80013ce:	bf00      	nop
				}
			}

		sscanf(GPS_Payload, "GPRMC, %f, A, %f, N, %f,", &Time, &Latitude, &Longitude);
 80013d0:	4b17      	ldr	r3, [pc, #92]	; (8001430 <get_location+0xd4>)
 80013d2:	9300      	str	r3, [sp, #0]
 80013d4:	4b17      	ldr	r3, [pc, #92]	; (8001434 <get_location+0xd8>)
 80013d6:	4a18      	ldr	r2, [pc, #96]	; (8001438 <get_location+0xdc>)
 80013d8:	4918      	ldr	r1, [pc, #96]	; (800143c <get_location+0xe0>)
 80013da:	4814      	ldr	r0, [pc, #80]	; (800142c <get_location+0xd0>)
 80013dc:	f003 fc8e 	bl	8004cfc <siscanf>
		format_data(Time, Latitude, Longitude);
 80013e0:	4b15      	ldr	r3, [pc, #84]	; (8001438 <get_location+0xdc>)
 80013e2:	edd3 7a00 	vldr	s15, [r3]
 80013e6:	4b13      	ldr	r3, [pc, #76]	; (8001434 <get_location+0xd8>)
 80013e8:	ed93 7a00 	vldr	s14, [r3]
 80013ec:	4b10      	ldr	r3, [pc, #64]	; (8001430 <get_location+0xd4>)
 80013ee:	edd3 6a00 	vldr	s13, [r3]
 80013f2:	eeb0 1a66 	vmov.f32	s2, s13
 80013f6:	eef0 0a47 	vmov.f32	s1, s14
 80013fa:	eeb0 0a67 	vmov.f32	s0, s15
 80013fe:	f000 f81f 	bl	8001440 <format_data>
		HAL_Delay(1);
 8001402:	2001      	movs	r0, #1
 8001404:	f000 fb38 	bl	8001a78 <HAL_Delay>
		Rx_Data_Ready_Flag = 0;
 8001408:	4b02      	ldr	r3, [pc, #8]	; (8001414 <get_location+0xb8>)
 800140a:	2200      	movs	r2, #0
 800140c:	701a      	strb	r2, [r3, #0]
		}
	}
}
 800140e:	bf00      	nop
 8001410:	46bd      	mov	sp, r7
 8001412:	bd80      	pop	{r7, pc}
 8001414:	20000928 	.word	0x20000928
 8001418:	2000092c 	.word	0x2000092c
 800141c:	200002e4 	.word	0x200002e4
 8001420:	200005d4 	.word	0x200005d4
 8001424:	08009168 	.word	0x08009168
 8001428:	20000930 	.word	0x20000930
 800142c:	200008c4 	.word	0x200008c4
 8001430:	2000093c 	.word	0x2000093c
 8001434:	20000938 	.word	0x20000938
 8001438:	20000934 	.word	0x20000934
 800143c:	08009170 	.word	0x08009170

08001440 <format_data>:



void format_data(float Time, float Lat, float Long) {
 8001440:	e92d 41f0 	stmdb	sp!, {r4, r5, r6, r7, r8, lr}
 8001444:	b0a4      	sub	sp, #144	; 0x90
 8001446:	af06      	add	r7, sp, #24
 8001448:	ed87 0a03 	vstr	s0, [r7, #12]
 800144c:	edc7 0a02 	vstr	s1, [r7, #8]
 8001450:	ed87 1a01 	vstr	s2, [r7, #4]
	char Data[100];
	Hours = (int)Time / 10000;
 8001454:	edd7 7a03 	vldr	s15, [r7, #12]
 8001458:	eefd 7ae7 	vcvt.s32.f32	s15, s15
 800145c:	ee17 1a90 	vmov	r1, s15
 8001460:	4b3a      	ldr	r3, [pc, #232]	; (800154c <format_data+0x10c>)
 8001462:	fb83 2301 	smull	r2, r3, r3, r1
 8001466:	131a      	asrs	r2, r3, #12
 8001468:	17cb      	asrs	r3, r1, #31
 800146a:	1ad3      	subs	r3, r2, r3
 800146c:	4a38      	ldr	r2, [pc, #224]	; (8001550 <format_data+0x110>)
 800146e:	6013      	str	r3, [r2, #0]
	Min = (int)(Time - (Hours * 10000)) / 100;
 8001470:	4b37      	ldr	r3, [pc, #220]	; (8001550 <format_data+0x110>)
 8001472:	681b      	ldr	r3, [r3, #0]
 8001474:	f242 7210 	movw	r2, #10000	; 0x2710
 8001478:	fb02 f303 	mul.w	r3, r2, r3
 800147c:	ee07 3a90 	vmov	s15, r3
 8001480:	eef8 7ae7 	vcvt.f32.s32	s15, s15
 8001484:	ed97 7a03 	vldr	s14, [r7, #12]
 8001488:	ee77 7a67 	vsub.f32	s15, s14, s15
 800148c:	eefd 7ae7 	vcvt.s32.f32	s15, s15
 8001490:	ee17 1a90 	vmov	r1, s15
 8001494:	4b2f      	ldr	r3, [pc, #188]	; (8001554 <format_data+0x114>)
 8001496:	fb83 2301 	smull	r2, r3, r3, r1
 800149a:	115a      	asrs	r2, r3, #5
 800149c:	17cb      	asrs	r3, r1, #31
 800149e:	1ad3      	subs	r3, r2, r3
 80014a0:	4a2d      	ldr	r2, [pc, #180]	; (8001558 <format_data+0x118>)
 80014a2:	6013      	str	r3, [r2, #0]
	Sec = (int)(Time - ((Hours * 10000) + (Min * 100)));
 80014a4:	4b2a      	ldr	r3, [pc, #168]	; (8001550 <format_data+0x110>)
 80014a6:	681b      	ldr	r3, [r3, #0]
 80014a8:	f242 7210 	movw	r2, #10000	; 0x2710
 80014ac:	fb03 f202 	mul.w	r2, r3, r2
 80014b0:	4b29      	ldr	r3, [pc, #164]	; (8001558 <format_data+0x118>)
 80014b2:	681b      	ldr	r3, [r3, #0]
 80014b4:	2164      	movs	r1, #100	; 0x64
 80014b6:	fb01 f303 	mul.w	r3, r1, r3
 80014ba:	4413      	add	r3, r2
 80014bc:	ee07 3a90 	vmov	s15, r3
 80014c0:	eef8 7ae7 	vcvt.f32.s32	s15, s15
 80014c4:	ed97 7a03 	vldr	s14, [r7, #12]
 80014c8:	ee77 7a67 	vsub.f32	s15, s14, s15
 80014cc:	eefd 7ae7 	vcvt.s32.f32	s15, s15
 80014d0:	ee17 2a90 	vmov	r2, s15
 80014d4:	4b21      	ldr	r3, [pc, #132]	; (800155c <format_data+0x11c>)
 80014d6:	601a      	str	r2, [r3, #0]
	sprintf(Data, "\r\nTime=%d:%d:%d Latitude=%f, Longitude=%f", Hours+3, Min, Sec, Lat, Long);
 80014d8:	4b1d      	ldr	r3, [pc, #116]	; (8001550 <format_data+0x110>)
 80014da:	681b      	ldr	r3, [r3, #0]
 80014dc:	f103 0803 	add.w	r8, r3, #3
 80014e0:	4b1d      	ldr	r3, [pc, #116]	; (8001558 <format_data+0x118>)
 80014e2:	681b      	ldr	r3, [r3, #0]
 80014e4:	603b      	str	r3, [r7, #0]
 80014e6:	4b1d      	ldr	r3, [pc, #116]	; (800155c <format_data+0x11c>)
 80014e8:	681e      	ldr	r6, [r3, #0]
 80014ea:	68b8      	ldr	r0, [r7, #8]
 80014ec:	f7ff f84c 	bl	8000588 <__aeabi_f2d>
 80014f0:	4604      	mov	r4, r0
 80014f2:	460d      	mov	r5, r1
 80014f4:	6878      	ldr	r0, [r7, #4]
 80014f6:	f7ff f847 	bl	8000588 <__aeabi_f2d>
 80014fa:	4602      	mov	r2, r0
 80014fc:	460b      	mov	r3, r1
 80014fe:	f107 0014 	add.w	r0, r7, #20
 8001502:	e9cd 2304 	strd	r2, r3, [sp, #16]
 8001506:	e9cd 4502 	strd	r4, r5, [sp, #8]
 800150a:	9600      	str	r6, [sp, #0]
 800150c:	683b      	ldr	r3, [r7, #0]
 800150e:	4642      	mov	r2, r8
 8001510:	4913      	ldr	r1, [pc, #76]	; (8001560 <format_data+0x120>)
 8001512:	f003 fbd3 	bl	8004cbc <siprintf>
	HAL_UART_Transmit(&huart2, (uint8_t*)Data, strlen(Data), HAL_MAX_DELAY);
 8001516:	f107 0314 	add.w	r3, r7, #20
 800151a:	4618      	mov	r0, r3
 800151c:	f7fe fe78 	bl	8000210 <strlen>
 8001520:	4603      	mov	r3, r0
 8001522:	b29a      	uxth	r2, r3
 8001524:	f107 0114 	add.w	r1, r7, #20
 8001528:	f04f 33ff 	mov.w	r3, #4294967295
 800152c:	480d      	ldr	r0, [pc, #52]	; (8001564 <format_data+0x124>)
 800152e:	f001 ff2c 	bl	800338a <HAL_UART_Transmit>
	HAL_UART_Transmit(&huart2, (uint8_t*)"\r\n\n", 3, HAL_MAX_DELAY);
 8001532:	f04f 33ff 	mov.w	r3, #4294967295
 8001536:	2203      	movs	r2, #3
 8001538:	490b      	ldr	r1, [pc, #44]	; (8001568 <format_data+0x128>)
 800153a:	480a      	ldr	r0, [pc, #40]	; (8001564 <format_data+0x124>)
 800153c:	f001 ff25 	bl	800338a <HAL_UART_Transmit>

}
 8001540:	bf00      	nop
 8001542:	3778      	adds	r7, #120	; 0x78
 8001544:	46bd      	mov	sp, r7
 8001546:	e8bd 81f0 	ldmia.w	sp!, {r4, r5, r6, r7, r8, pc}
 800154a:	bf00      	nop
 800154c:	68db8bad 	.word	0x68db8bad
 8001550:	20000940 	.word	0x20000940
 8001554:	51eb851f 	.word	0x51eb851f
 8001558:	20000944 	.word	0x20000944
 800155c:	20000948 	.word	0x20000948
 8001560:	0800918c 	.word	0x0800918c
 8001564:	20000240 	.word	0x20000240
 8001568:	080091b8 	.word	0x080091b8

0800156c <Error_Handler>:
/**
  * @brief  This function is executed in case of error occurrence.
  * @retval None
  */
void Error_Handler(void)
{
 800156c:	b480      	push	{r7}
 800156e:	af00      	add	r7, sp, #0
  \details Disables IRQ interrupts by setting the I-bit in the CPSR.
           Can only be executed in Privileged modes.
 */
__STATIC_FORCEINLINE void __disable_irq(void)
{
  __ASM volatile ("cpsid i" : : : "memory");
 8001570:	b672      	cpsid	i
}
 8001572:	bf00      	nop
  /* USER CODE BEGIN Error_Handler_Debug */
  /* User can add his own implementation to report the HAL error return state */
  __disable_irq();
  while (1)
 8001574:	e7fe      	b.n	8001574 <Error_Handler+0x8>
	...

08001578 <HAL_MspInit>:
/* USER CODE END 0 */
/**
  * Initializes the Global MSP.
  */
void HAL_MspInit(void)
{
 8001578:	b580      	push	{r7, lr}
 800157a:	b082      	sub	sp, #8
 800157c:	af00      	add	r7, sp, #0
  /* USER CODE BEGIN MspInit 0 */

  /* USER CODE END MspInit 0 */

  __HAL_RCC_SYSCFG_CLK_ENABLE();
 800157e:	2300      	movs	r3, #0
 8001580:	607b      	str	r3, [r7, #4]
 8001582:	4b10      	ldr	r3, [pc, #64]	; (80015c4 <HAL_MspInit+0x4c>)
 8001584:	6c5b      	ldr	r3, [r3, #68]	; 0x44
 8001586:	4a0f      	ldr	r2, [pc, #60]	; (80015c4 <HAL_MspInit+0x4c>)
 8001588:	f443 4380 	orr.w	r3, r3, #16384	; 0x4000
 800158c:	6453      	str	r3, [r2, #68]	; 0x44
 800158e:	4b0d      	ldr	r3, [pc, #52]	; (80015c4 <HAL_MspInit+0x4c>)
 8001590:	6c5b      	ldr	r3, [r3, #68]	; 0x44
 8001592:	f403 4380 	and.w	r3, r3, #16384	; 0x4000
 8001596:	607b      	str	r3, [r7, #4]
 8001598:	687b      	ldr	r3, [r7, #4]
  __HAL_RCC_PWR_CLK_ENABLE();
 800159a:	2300      	movs	r3, #0
 800159c:	603b      	str	r3, [r7, #0]
 800159e:	4b09      	ldr	r3, [pc, #36]	; (80015c4 <HAL_MspInit+0x4c>)
 80015a0:	6c1b      	ldr	r3, [r3, #64]	; 0x40
 80015a2:	4a08      	ldr	r2, [pc, #32]	; (80015c4 <HAL_MspInit+0x4c>)
 80015a4:	f043 5380 	orr.w	r3, r3, #268435456	; 0x10000000
 80015a8:	6413      	str	r3, [r2, #64]	; 0x40
 80015aa:	4b06      	ldr	r3, [pc, #24]	; (80015c4 <HAL_MspInit+0x4c>)
 80015ac:	6c1b      	ldr	r3, [r3, #64]	; 0x40
 80015ae:	f003 5380 	and.w	r3, r3, #268435456	; 0x10000000
 80015b2:	603b      	str	r3, [r7, #0]
 80015b4:	683b      	ldr	r3, [r7, #0]

  HAL_NVIC_SetPriorityGrouping(NVIC_PRIORITYGROUP_0);
 80015b6:	2007      	movs	r0, #7
 80015b8:	f000 fb52 	bl	8001c60 <HAL_NVIC_SetPriorityGrouping>
  /* System interrupt init*/

  /* USER CODE BEGIN MspInit 1 */

  /* USER CODE END MspInit 1 */
}
 80015bc:	bf00      	nop
 80015be:	3708      	adds	r7, #8
 80015c0:	46bd      	mov	sp, r7
 80015c2:	bd80      	pop	{r7, pc}
 80015c4:	40023800 	.word	0x40023800

080015c8 <HAL_UART_MspInit>:
* This function configures the hardware resources used in this example
* @param huart: UART handle pointer
* @retval None
*/
void HAL_UART_MspInit(UART_HandleTypeDef* huart)
{
 80015c8:	b580      	push	{r7, lr}
 80015ca:	b08c      	sub	sp, #48	; 0x30
 80015cc:	af00      	add	r7, sp, #0
 80015ce:	6078      	str	r0, [r7, #4]
  GPIO_InitTypeDef GPIO_InitStruct = {0};
 80015d0:	f107 031c 	add.w	r3, r7, #28
 80015d4:	2200      	movs	r2, #0
 80015d6:	601a      	str	r2, [r3, #0]
 80015d8:	605a      	str	r2, [r3, #4]
 80015da:	609a      	str	r2, [r3, #8]
 80015dc:	60da      	str	r2, [r3, #12]
 80015de:	611a      	str	r2, [r3, #16]
  if(huart->Instance==USART1)
 80015e0:	687b      	ldr	r3, [r7, #4]
 80015e2:	681b      	ldr	r3, [r3, #0]
 80015e4:	4a4a      	ldr	r2, [pc, #296]	; (8001710 <HAL_UART_MspInit+0x148>)
 80015e6:	4293      	cmp	r3, r2
 80015e8:	d15c      	bne.n	80016a4 <HAL_UART_MspInit+0xdc>
  {
  /* USER CODE BEGIN USART1_MspInit 0 */

  /* USER CODE END USART1_MspInit 0 */
    /* Peripheral clock enable */
    __HAL_RCC_USART1_CLK_ENABLE();
 80015ea:	2300      	movs	r3, #0
 80015ec:	61bb      	str	r3, [r7, #24]
 80015ee:	4b49      	ldr	r3, [pc, #292]	; (8001714 <HAL_UART_MspInit+0x14c>)
 80015f0:	6c5b      	ldr	r3, [r3, #68]	; 0x44
 80015f2:	4a48      	ldr	r2, [pc, #288]	; (8001714 <HAL_UART_MspInit+0x14c>)
 80015f4:	f043 0310 	orr.w	r3, r3, #16
 80015f8:	6453      	str	r3, [r2, #68]	; 0x44
 80015fa:	4b46      	ldr	r3, [pc, #280]	; (8001714 <HAL_UART_MspInit+0x14c>)
 80015fc:	6c5b      	ldr	r3, [r3, #68]	; 0x44
 80015fe:	f003 0310 	and.w	r3, r3, #16
 8001602:	61bb      	str	r3, [r7, #24]
 8001604:	69bb      	ldr	r3, [r7, #24]

    __HAL_RCC_GPIOA_CLK_ENABLE();
 8001606:	2300      	movs	r3, #0
 8001608:	617b      	str	r3, [r7, #20]
 800160a:	4b42      	ldr	r3, [pc, #264]	; (8001714 <HAL_UART_MspInit+0x14c>)
 800160c:	6b1b      	ldr	r3, [r3, #48]	; 0x30
 800160e:	4a41      	ldr	r2, [pc, #260]	; (8001714 <HAL_UART_MspInit+0x14c>)
 8001610:	f043 0301 	orr.w	r3, r3, #1
 8001614:	6313      	str	r3, [r2, #48]	; 0x30
 8001616:	4b3f      	ldr	r3, [pc, #252]	; (8001714 <HAL_UART_MspInit+0x14c>)
 8001618:	6b1b      	ldr	r3, [r3, #48]	; 0x30
 800161a:	f003 0301 	and.w	r3, r3, #1
 800161e:	617b      	str	r3, [r7, #20]
 8001620:	697b      	ldr	r3, [r7, #20]
    /**USART1 GPIO Configuration
    PA9     ------> USART1_TX
    PA10     ------> USART1_RX
    */
    GPIO_InitStruct.Pin = GPIO_PIN_9|GPIO_PIN_10;
 8001622:	f44f 63c0 	mov.w	r3, #1536	; 0x600
 8001626:	61fb      	str	r3, [r7, #28]
    GPIO_InitStruct.Mode = GPIO_MODE_AF_PP;
 8001628:	2302      	movs	r3, #2
 800162a:	623b      	str	r3, [r7, #32]
    GPIO_InitStruct.Pull = GPIO_NOPULL;
 800162c:	2300      	movs	r3, #0
 800162e:	627b      	str	r3, [r7, #36]	; 0x24
    GPIO_InitStruct.Speed = GPIO_SPEED_FREQ_VERY_HIGH;
 8001630:	2303      	movs	r3, #3
 8001632:	62bb      	str	r3, [r7, #40]	; 0x28
    GPIO_InitStruct.Alternate = GPIO_AF7_USART1;
 8001634:	2307      	movs	r3, #7
 8001636:	62fb      	str	r3, [r7, #44]	; 0x2c
    HAL_GPIO_Init(GPIOA, &GPIO_InitStruct);
 8001638:	f107 031c 	add.w	r3, r7, #28
 800163c:	4619      	mov	r1, r3
 800163e:	4836      	ldr	r0, [pc, #216]	; (8001718 <HAL_UART_MspInit+0x150>)
 8001640:	f000 fec0 	bl	80023c4 <HAL_GPIO_Init>

    /* USART1 DMA Init */
    /* USART1_RX Init */
    hdma_usart1_rx.Instance = DMA2_Stream2;
 8001644:	4b35      	ldr	r3, [pc, #212]	; (800171c <HAL_UART_MspInit+0x154>)
 8001646:	4a36      	ldr	r2, [pc, #216]	; (8001720 <HAL_UART_MspInit+0x158>)
 8001648:	601a      	str	r2, [r3, #0]
    hdma_usart1_rx.Init.Channel = DMA_CHANNEL_4;
 800164a:	4b34      	ldr	r3, [pc, #208]	; (800171c <HAL_UART_MspInit+0x154>)
 800164c:	f04f 6200 	mov.w	r2, #134217728	; 0x8000000
 8001650:	605a      	str	r2, [r3, #4]
    hdma_usart1_rx.Init.Direction = DMA_PERIPH_TO_MEMORY;
 8001652:	4b32      	ldr	r3, [pc, #200]	; (800171c <HAL_UART_MspInit+0x154>)
 8001654:	2200      	movs	r2, #0
 8001656:	609a      	str	r2, [r3, #8]
    hdma_usart1_rx.Init.PeriphInc = DMA_PINC_DISABLE;
 8001658:	4b30      	ldr	r3, [pc, #192]	; (800171c <HAL_UART_MspInit+0x154>)
 800165a:	2200      	movs	r2, #0
 800165c:	60da      	str	r2, [r3, #12]
    hdma_usart1_rx.Init.MemInc = DMA_MINC_ENABLE;
 800165e:	4b2f      	ldr	r3, [pc, #188]	; (800171c <HAL_UART_MspInit+0x154>)
 8001660:	f44f 6280 	mov.w	r2, #1024	; 0x400
 8001664:	611a      	str	r2, [r3, #16]
    hdma_usart1_rx.Init.PeriphDataAlignment = DMA_PDATAALIGN_BYTE;
 8001666:	4b2d      	ldr	r3, [pc, #180]	; (800171c <HAL_UART_MspInit+0x154>)
 8001668:	2200      	movs	r2, #0
 800166a:	615a      	str	r2, [r3, #20]
    hdma_usart1_rx.Init.MemDataAlignment = DMA_MDATAALIGN_BYTE;
 800166c:	4b2b      	ldr	r3, [pc, #172]	; (800171c <HAL_UART_MspInit+0x154>)
 800166e:	2200      	movs	r2, #0
 8001670:	619a      	str	r2, [r3, #24]
    hdma_usart1_rx.Init.Mode = DMA_CIRCULAR;
 8001672:	4b2a      	ldr	r3, [pc, #168]	; (800171c <HAL_UART_MspInit+0x154>)
 8001674:	f44f 7280 	mov.w	r2, #256	; 0x100
 8001678:	61da      	str	r2, [r3, #28]
    hdma_usart1_rx.Init.Priority = DMA_PRIORITY_LOW;
 800167a:	4b28      	ldr	r3, [pc, #160]	; (800171c <HAL_UART_MspInit+0x154>)
 800167c:	2200      	movs	r2, #0
 800167e:	621a      	str	r2, [r3, #32]
    hdma_usart1_rx.Init.FIFOMode = DMA_FIFOMODE_DISABLE;
 8001680:	4b26      	ldr	r3, [pc, #152]	; (800171c <HAL_UART_MspInit+0x154>)
 8001682:	2200      	movs	r2, #0
 8001684:	625a      	str	r2, [r3, #36]	; 0x24
    if (HAL_DMA_Init(&hdma_usart1_rx) != HAL_OK)
 8001686:	4825      	ldr	r0, [pc, #148]	; (800171c <HAL_UART_MspInit+0x154>)
 8001688:	f000 fb2c 	bl	8001ce4 <HAL_DMA_Init>
 800168c:	4603      	mov	r3, r0
 800168e:	2b00      	cmp	r3, #0
 8001690:	d001      	beq.n	8001696 <HAL_UART_MspInit+0xce>
    {
      Error_Handler();
 8001692:	f7ff ff6b 	bl	800156c <Error_Handler>
    }

    __HAL_LINKDMA(huart,hdmarx,hdma_usart1_rx);
 8001696:	687b      	ldr	r3, [r7, #4]
 8001698:	4a20      	ldr	r2, [pc, #128]	; (800171c <HAL_UART_MspInit+0x154>)
 800169a:	639a      	str	r2, [r3, #56]	; 0x38
 800169c:	4a1f      	ldr	r2, [pc, #124]	; (800171c <HAL_UART_MspInit+0x154>)
 800169e:	687b      	ldr	r3, [r7, #4]
 80016a0:	6393      	str	r3, [r2, #56]	; 0x38
  /* USER CODE BEGIN USART2_MspInit 1 */

  /* USER CODE END USART2_MspInit 1 */
  }

}
 80016a2:	e030      	b.n	8001706 <HAL_UART_MspInit+0x13e>
  else if(huart->Instance==USART2)
 80016a4:	687b      	ldr	r3, [r7, #4]
 80016a6:	681b      	ldr	r3, [r3, #0]
 80016a8:	4a1e      	ldr	r2, [pc, #120]	; (8001724 <HAL_UART_MspInit+0x15c>)
 80016aa:	4293      	cmp	r3, r2
 80016ac:	d12b      	bne.n	8001706 <HAL_UART_MspInit+0x13e>
    __HAL_RCC_USART2_CLK_ENABLE();
 80016ae:	2300      	movs	r3, #0
 80016b0:	613b      	str	r3, [r7, #16]
 80016b2:	4b18      	ldr	r3, [pc, #96]	; (8001714 <HAL_UART_MspInit+0x14c>)
 80016b4:	6c1b      	ldr	r3, [r3, #64]	; 0x40
 80016b6:	4a17      	ldr	r2, [pc, #92]	; (8001714 <HAL_UART_MspInit+0x14c>)
 80016b8:	f443 3300 	orr.w	r3, r3, #131072	; 0x20000
 80016bc:	6413      	str	r3, [r2, #64]	; 0x40
 80016be:	4b15      	ldr	r3, [pc, #84]	; (8001714 <HAL_UART_MspInit+0x14c>)
 80016c0:	6c1b      	ldr	r3, [r3, #64]	; 0x40
 80016c2:	f403 3300 	and.w	r3, r3, #131072	; 0x20000
 80016c6:	613b      	str	r3, [r7, #16]
 80016c8:	693b      	ldr	r3, [r7, #16]
    __HAL_RCC_GPIOA_CLK_ENABLE();
 80016ca:	2300      	movs	r3, #0
 80016cc:	60fb      	str	r3, [r7, #12]
 80016ce:	4b11      	ldr	r3, [pc, #68]	; (8001714 <HAL_UART_MspInit+0x14c>)
 80016d0:	6b1b      	ldr	r3, [r3, #48]	; 0x30
 80016d2:	4a10      	ldr	r2, [pc, #64]	; (8001714 <HAL_UART_MspInit+0x14c>)
 80016d4:	f043 0301 	orr.w	r3, r3, #1
 80016d8:	6313      	str	r3, [r2, #48]	; 0x30
 80016da:	4b0e      	ldr	r3, [pc, #56]	; (8001714 <HAL_UART_MspInit+0x14c>)
 80016dc:	6b1b      	ldr	r3, [r3, #48]	; 0x30
 80016de:	f003 0301 	and.w	r3, r3, #1
 80016e2:	60fb      	str	r3, [r7, #12]
 80016e4:	68fb      	ldr	r3, [r7, #12]
    GPIO_InitStruct.Pin = USART_TX_Pin|USART_RX_Pin;
 80016e6:	230c      	movs	r3, #12
 80016e8:	61fb      	str	r3, [r7, #28]
    GPIO_InitStruct.Mode = GPIO_MODE_AF_PP;
 80016ea:	2302      	movs	r3, #2
 80016ec:	623b      	str	r3, [r7, #32]
    GPIO_InitStruct.Pull = GPIO_NOPULL;
 80016ee:	2300      	movs	r3, #0
 80016f0:	627b      	str	r3, [r7, #36]	; 0x24
    GPIO_InitStruct.Speed = GPIO_SPEED_FREQ_VERY_HIGH;
 80016f2:	2303      	movs	r3, #3
 80016f4:	62bb      	str	r3, [r7, #40]	; 0x28
    GPIO_InitStruct.Alternate = GPIO_AF7_USART2;
 80016f6:	2307      	movs	r3, #7
 80016f8:	62fb      	str	r3, [r7, #44]	; 0x2c
    HAL_GPIO_Init(GPIOA, &GPIO_InitStruct);
 80016fa:	f107 031c 	add.w	r3, r7, #28
 80016fe:	4619      	mov	r1, r3
 8001700:	4805      	ldr	r0, [pc, #20]	; (8001718 <HAL_UART_MspInit+0x150>)
 8001702:	f000 fe5f 	bl	80023c4 <HAL_GPIO_Init>
}
 8001706:	bf00      	nop
 8001708:	3730      	adds	r7, #48	; 0x30
 800170a:	46bd      	mov	sp, r7
 800170c:	bd80      	pop	{r7, pc}
 800170e:	bf00      	nop
 8001710:	40011000 	.word	0x40011000
 8001714:	40023800 	.word	0x40023800
 8001718:	40020000 	.word	0x40020000
 800171c:	20000284 	.word	0x20000284
 8001720:	40026440 	.word	0x40026440
 8001724:	40004400 	.word	0x40004400

08001728 <NMI_Handler>:
/******************************************************************************/
/**
  * @brief This function handles Non maskable interrupt.
  */
void NMI_Handler(void)
{
 8001728:	b480      	push	{r7}
 800172a:	af00      	add	r7, sp, #0
  /* USER CODE BEGIN NonMaskableInt_IRQn 0 */

  /* USER CODE END NonMaskableInt_IRQn 0 */
  /* USER CODE BEGIN NonMaskableInt_IRQn 1 */
  while (1)
 800172c:	e7fe      	b.n	800172c <NMI_Handler+0x4>

0800172e <HardFault_Handler>:

/**
  * @brief This function handles Hard fault interrupt.
  */
void HardFault_Handler(void)
{
 800172e:	b480      	push	{r7}
 8001730:	af00      	add	r7, sp, #0
  /* USER CODE BEGIN HardFault_IRQn 0 */

  /* USER CODE END HardFault_IRQn 0 */
  while (1)
 8001732:	e7fe      	b.n	8001732 <HardFault_Handler+0x4>

08001734 <MemManage_Handler>:

/**
  * @brief This function handles Memory management fault.
  */
void MemManage_Handler(void)
{
 8001734:	b480      	push	{r7}
 8001736:	af00      	add	r7, sp, #0
  /* USER CODE BEGIN MemoryManagement_IRQn 0 */

  /* USER CODE END MemoryManagement_IRQn 0 */
  while (1)
 8001738:	e7fe      	b.n	8001738 <MemManage_Handler+0x4>

0800173a <BusFault_Handler>:

/**
  * @brief This function handles Pre-fetch fault, memory access fault.
  */
void BusFault_Handler(void)
{
 800173a:	b480      	push	{r7}
 800173c:	af00      	add	r7, sp, #0
  /* USER CODE BEGIN BusFault_IRQn 0 */

  /* USER CODE END BusFault_IRQn 0 */
  while (1)
 800173e:	e7fe      	b.n	800173e <BusFault_Handler+0x4>

08001740 <UsageFault_Handler>:

/**
  * @brief This function handles Undefined instruction or illegal state.
  */
void UsageFault_Handler(void)
{
 8001740:	b480      	push	{r7}
 8001742:	af00      	add	r7, sp, #0
  /* USER CODE BEGIN UsageFault_IRQn 0 */

  /* USER CODE END UsageFault_IRQn 0 */
  while (1)
 8001744:	e7fe      	b.n	8001744 <UsageFault_Handler+0x4>

08001746 <SVC_Handler>:

/**
  * @brief This function handles System service call via SWI instruction.
  */
void SVC_Handler(void)
{
 8001746:	b480      	push	{r7}
 8001748:	af00      	add	r7, sp, #0

  /* USER CODE END SVCall_IRQn 0 */
  /* USER CODE BEGIN SVCall_IRQn 1 */

  /* USER CODE END SVCall_IRQn 1 */
}
 800174a:	bf00      	nop
 800174c:	46bd      	mov	sp, r7
 800174e:	f85d 7b04 	ldr.w	r7, [sp], #4
 8001752:	4770      	bx	lr

08001754 <DebugMon_Handler>:

/**
  * @brief This function handles Debug monitor.
  */
void DebugMon_Handler(void)
{
 8001754:	b480      	push	{r7}
 8001756:	af00      	add	r7, sp, #0

  /* USER CODE END DebugMonitor_IRQn 0 */
  /* USER CODE BEGIN DebugMonitor_IRQn 1 */

  /* USER CODE END DebugMonitor_IRQn 1 */
}
 8001758:	bf00      	nop
 800175a:	46bd      	mov	sp, r7
 800175c:	f85d 7b04 	ldr.w	r7, [sp], #4
 8001760:	4770      	bx	lr

08001762 <PendSV_Handler>:

/**
  * @brief This function handles Pendable request for system service.
  */
void PendSV_Handler(void)
{
 8001762:	b480      	push	{r7}
 8001764:	af00      	add	r7, sp, #0

  /* USER CODE END PendSV_IRQn 0 */
  /* USER CODE BEGIN PendSV_IRQn 1 */

  /* USER CODE END PendSV_IRQn 1 */
}
 8001766:	bf00      	nop
 8001768:	46bd      	mov	sp, r7
 800176a:	f85d 7b04 	ldr.w	r7, [sp], #4
 800176e:	4770      	bx	lr

08001770 <SysTick_Handler>:

/**
  * @brief This function handles System tick timer.
  */
void SysTick_Handler(void)
{
 8001770:	b580      	push	{r7, lr}
 8001772:	af00      	add	r7, sp, #0
  /* USER CODE BEGIN SysTick_IRQn 0 */

  /* USER CODE END SysTick_IRQn 0 */
  HAL_IncTick();
 8001774:	f000 f960 	bl	8001a38 <HAL_IncTick>
  /* USER CODE BEGIN SysTick_IRQn 1 */

  /* USER CODE END SysTick_IRQn 1 */
}
 8001778:	bf00      	nop
 800177a:	bd80      	pop	{r7, pc}

0800177c <DMA2_Stream2_IRQHandler>:

/**
  * @brief This function handles DMA2 stream2 global interrupt.
  */
void DMA2_Stream2_IRQHandler(void)
{
 800177c:	b580      	push	{r7, lr}
 800177e:	af00      	add	r7, sp, #0
  /* USER CODE BEGIN DMA2_Stream2_IRQn 0 */

  /* USER CODE END DMA2_Stream2_IRQn 0 */
  HAL_DMA_IRQHandler(&hdma_usart1_rx);
 8001780:	4802      	ldr	r0, [pc, #8]	; (800178c <DMA2_Stream2_IRQHandler+0x10>)
 8001782:	f000 fbb5 	bl	8001ef0 <HAL_DMA_IRQHandler>
  /* USER CODE BEGIN DMA2_Stream2_IRQn 1 */

  /* USER CODE END DMA2_Stream2_IRQn 1 */
}
 8001786:	bf00      	nop
 8001788:	bd80      	pop	{r7, pc}
 800178a:	bf00      	nop
 800178c:	20000284 	.word	0x20000284

08001790 <_getpid>:
void initialise_monitor_handles()
{
}

int _getpid(void)
{
 8001790:	b480      	push	{r7}
 8001792:	af00      	add	r7, sp, #0
  return 1;
 8001794:	2301      	movs	r3, #1
}
 8001796:	4618      	mov	r0, r3
 8001798:	46bd      	mov	sp, r7
 800179a:	f85d 7b04 	ldr.w	r7, [sp], #4
 800179e:	4770      	bx	lr

080017a0 <_kill>:

int _kill(int pid, int sig)
{
 80017a0:	b580      	push	{r7, lr}
 80017a2:	b082      	sub	sp, #8
 80017a4:	af00      	add	r7, sp, #0
 80017a6:	6078      	str	r0, [r7, #4]
 80017a8:	6039      	str	r1, [r7, #0]
  (void)pid;
  (void)sig;
  errno = EINVAL;
 80017aa:	f002 fbd5 	bl	8003f58 <__errno>
 80017ae:	4603      	mov	r3, r0
 80017b0:	2216      	movs	r2, #22
 80017b2:	601a      	str	r2, [r3, #0]
  return -1;
 80017b4:	f04f 33ff 	mov.w	r3, #4294967295
}
 80017b8:	4618      	mov	r0, r3
 80017ba:	3708      	adds	r7, #8
 80017bc:	46bd      	mov	sp, r7
 80017be:	bd80      	pop	{r7, pc}

080017c0 <_exit>:

void _exit (int status)
{
 80017c0:	b580      	push	{r7, lr}
 80017c2:	b082      	sub	sp, #8
 80017c4:	af00      	add	r7, sp, #0
 80017c6:	6078      	str	r0, [r7, #4]
  _kill(status, -1);
 80017c8:	f04f 31ff 	mov.w	r1, #4294967295
 80017cc:	6878      	ldr	r0, [r7, #4]
 80017ce:	f7ff ffe7 	bl	80017a0 <_kill>
  while (1) {}    /* Make sure we hang here */
 80017d2:	e7fe      	b.n	80017d2 <_exit+0x12>

080017d4 <_read>:
}

__attribute__((weak)) int _read(int file, char *ptr, int len)
{
 80017d4:	b580      	push	{r7, lr}
 80017d6:	b086      	sub	sp, #24
 80017d8:	af00      	add	r7, sp, #0
 80017da:	60f8      	str	r0, [r7, #12]
 80017dc:	60b9      	str	r1, [r7, #8]
 80017de:	607a      	str	r2, [r7, #4]
  (void)file;
  int DataIdx;

  for (DataIdx = 0; DataIdx < len; DataIdx++)
 80017e0:	2300      	movs	r3, #0
 80017e2:	617b      	str	r3, [r7, #20]
 80017e4:	e00a      	b.n	80017fc <_read+0x28>
  {
    *ptr++ = __io_getchar();
 80017e6:	f3af 8000 	nop.w
 80017ea:	4601      	mov	r1, r0
 80017ec:	68bb      	ldr	r3, [r7, #8]
 80017ee:	1c5a      	adds	r2, r3, #1
 80017f0:	60ba      	str	r2, [r7, #8]
 80017f2:	b2ca      	uxtb	r2, r1
 80017f4:	701a      	strb	r2, [r3, #0]
  for (DataIdx = 0; DataIdx < len; DataIdx++)
 80017f6:	697b      	ldr	r3, [r7, #20]
 80017f8:	3301      	adds	r3, #1
 80017fa:	617b      	str	r3, [r7, #20]
 80017fc:	697a      	ldr	r2, [r7, #20]
 80017fe:	687b      	ldr	r3, [r7, #4]
 8001800:	429a      	cmp	r2, r3
 8001802:	dbf0      	blt.n	80017e6 <_read+0x12>
  }

  return len;
 8001804:	687b      	ldr	r3, [r7, #4]
}
 8001806:	4618      	mov	r0, r3
 8001808:	3718      	adds	r7, #24
 800180a:	46bd      	mov	sp, r7
 800180c:	bd80      	pop	{r7, pc}

0800180e <_write>:

__attribute__((weak)) int _write(int file, char *ptr, int len)
{
 800180e:	b580      	push	{r7, lr}
 8001810:	b086      	sub	sp, #24
 8001812:	af00      	add	r7, sp, #0
 8001814:	60f8      	str	r0, [r7, #12]
 8001816:	60b9      	str	r1, [r7, #8]
 8001818:	607a      	str	r2, [r7, #4]
  (void)file;
  int DataIdx;

  for (DataIdx = 0; DataIdx < len; DataIdx++)
 800181a:	2300      	movs	r3, #0
 800181c:	617b      	str	r3, [r7, #20]
 800181e:	e009      	b.n	8001834 <_write+0x26>
  {
    __io_putchar(*ptr++);
 8001820:	68bb      	ldr	r3, [r7, #8]
 8001822:	1c5a      	adds	r2, r3, #1
 8001824:	60ba      	str	r2, [r7, #8]
 8001826:	781b      	ldrb	r3, [r3, #0]
 8001828:	4618      	mov	r0, r3
 800182a:	f7ff fd85 	bl	8001338 <__io_putchar>
  for (DataIdx = 0; DataIdx < len; DataIdx++)
 800182e:	697b      	ldr	r3, [r7, #20]
 8001830:	3301      	adds	r3, #1
 8001832:	617b      	str	r3, [r7, #20]
 8001834:	697a      	ldr	r2, [r7, #20]
 8001836:	687b      	ldr	r3, [r7, #4]
 8001838:	429a      	cmp	r2, r3
 800183a:	dbf1      	blt.n	8001820 <_write+0x12>
  }
  return len;
 800183c:	687b      	ldr	r3, [r7, #4]
}
 800183e:	4618      	mov	r0, r3
 8001840:	3718      	adds	r7, #24
 8001842:	46bd      	mov	sp, r7
 8001844:	bd80      	pop	{r7, pc}

08001846 <_close>:

int _close(int file)
{
 8001846:	b480      	push	{r7}
 8001848:	b083      	sub	sp, #12
 800184a:	af00      	add	r7, sp, #0
 800184c:	6078      	str	r0, [r7, #4]
  (void)file;
  return -1;
 800184e:	f04f 33ff 	mov.w	r3, #4294967295
}
 8001852:	4618      	mov	r0, r3
 8001854:	370c      	adds	r7, #12
 8001856:	46bd      	mov	sp, r7
 8001858:	f85d 7b04 	ldr.w	r7, [sp], #4
 800185c:	4770      	bx	lr

0800185e <_fstat>:


int _fstat(int file, struct stat *st)
{
 800185e:	b480      	push	{r7}
 8001860:	b083      	sub	sp, #12
 8001862:	af00      	add	r7, sp, #0
 8001864:	6078      	str	r0, [r7, #4]
 8001866:	6039      	str	r1, [r7, #0]
  (void)file;
  st->st_mode = S_IFCHR;
 8001868:	683b      	ldr	r3, [r7, #0]
 800186a:	f44f 5200 	mov.w	r2, #8192	; 0x2000
 800186e:	605a      	str	r2, [r3, #4]
  return 0;
 8001870:	2300      	movs	r3, #0
}
 8001872:	4618      	mov	r0, r3
 8001874:	370c      	adds	r7, #12
 8001876:	46bd      	mov	sp, r7
 8001878:	f85d 7b04 	ldr.w	r7, [sp], #4
 800187c:	4770      	bx	lr

0800187e <_isatty>:

int _isatty(int file)
{
 800187e:	b480      	push	{r7}
 8001880:	b083      	sub	sp, #12
 8001882:	af00      	add	r7, sp, #0
 8001884:	6078      	str	r0, [r7, #4]
  (void)file;
  return 1;
 8001886:	2301      	movs	r3, #1
}
 8001888:	4618      	mov	r0, r3
 800188a:	370c      	adds	r7, #12
 800188c:	46bd      	mov	sp, r7
 800188e:	f85d 7b04 	ldr.w	r7, [sp], #4
 8001892:	4770      	bx	lr

08001894 <_lseek>:

int _lseek(int file, int ptr, int dir)
{
 8001894:	b480      	push	{r7}
 8001896:	b085      	sub	sp, #20
 8001898:	af00      	add	r7, sp, #0
 800189a:	60f8      	str	r0, [r7, #12]
 800189c:	60b9      	str	r1, [r7, #8]
 800189e:	607a      	str	r2, [r7, #4]
  (void)file;
  (void)ptr;
  (void)dir;
  return 0;
 80018a0:	2300      	movs	r3, #0
}
 80018a2:	4618      	mov	r0, r3
 80018a4:	3714      	adds	r7, #20
 80018a6:	46bd      	mov	sp, r7
 80018a8:	f85d 7b04 	ldr.w	r7, [sp], #4
 80018ac:	4770      	bx	lr
	...

080018b0 <_sbrk>:
 *
 * @param incr Memory size
 * @return Pointer to allocated memory
 */
void *_sbrk(ptrdiff_t incr)
{
 80018b0:	b580      	push	{r7, lr}
 80018b2:	b086      	sub	sp, #24
 80018b4:	af00      	add	r7, sp, #0
 80018b6:	6078      	str	r0, [r7, #4]
  extern uint8_t _end; /* Symbol defined in the linker script */
  extern uint8_t _estack; /* Symbol defined in the linker script */
  extern uint32_t _Min_Stack_Size; /* Symbol defined in the linker script */
  const uint32_t stack_limit = (uint32_t)&_estack - (uint32_t)&_Min_Stack_Size;
 80018b8:	4a14      	ldr	r2, [pc, #80]	; (800190c <_sbrk+0x5c>)
 80018ba:	4b15      	ldr	r3, [pc, #84]	; (8001910 <_sbrk+0x60>)
 80018bc:	1ad3      	subs	r3, r2, r3
 80018be:	617b      	str	r3, [r7, #20]
  const uint8_t *max_heap = (uint8_t *)stack_limit;
 80018c0:	697b      	ldr	r3, [r7, #20]
 80018c2:	613b      	str	r3, [r7, #16]
  uint8_t *prev_heap_end;

  /* Initialize heap end at first call */
  if (NULL == __sbrk_heap_end)
 80018c4:	4b13      	ldr	r3, [pc, #76]	; (8001914 <_sbrk+0x64>)
 80018c6:	681b      	ldr	r3, [r3, #0]
 80018c8:	2b00      	cmp	r3, #0
 80018ca:	d102      	bne.n	80018d2 <_sbrk+0x22>
  {
    __sbrk_heap_end = &_end;
 80018cc:	4b11      	ldr	r3, [pc, #68]	; (8001914 <_sbrk+0x64>)
 80018ce:	4a12      	ldr	r2, [pc, #72]	; (8001918 <_sbrk+0x68>)
 80018d0:	601a      	str	r2, [r3, #0]
  }

  /* Protect heap from growing into the reserved MSP stack */
  if (__sbrk_heap_end + incr > max_heap)
 80018d2:	4b10      	ldr	r3, [pc, #64]	; (8001914 <_sbrk+0x64>)
 80018d4:	681a      	ldr	r2, [r3, #0]
 80018d6:	687b      	ldr	r3, [r7, #4]
 80018d8:	4413      	add	r3, r2
 80018da:	693a      	ldr	r2, [r7, #16]
 80018dc:	429a      	cmp	r2, r3
 80018de:	d207      	bcs.n	80018f0 <_sbrk+0x40>
  {
    errno = ENOMEM;
 80018e0:	f002 fb3a 	bl	8003f58 <__errno>
 80018e4:	4603      	mov	r3, r0
 80018e6:	220c      	movs	r2, #12
 80018e8:	601a      	str	r2, [r3, #0]
    return (void *)-1;
 80018ea:	f04f 33ff 	mov.w	r3, #4294967295
 80018ee:	e009      	b.n	8001904 <_sbrk+0x54>
  }

  prev_heap_end = __sbrk_heap_end;
 80018f0:	4b08      	ldr	r3, [pc, #32]	; (8001914 <_sbrk+0x64>)
 80018f2:	681b      	ldr	r3, [r3, #0]
 80018f4:	60fb      	str	r3, [r7, #12]
  __sbrk_heap_end += incr;
 80018f6:	4b07      	ldr	r3, [pc, #28]	; (8001914 <_sbrk+0x64>)
 80018f8:	681a      	ldr	r2, [r3, #0]
 80018fa:	687b      	ldr	r3, [r7, #4]
 80018fc:	4413      	add	r3, r2
 80018fe:	4a05      	ldr	r2, [pc, #20]	; (8001914 <_sbrk+0x64>)
 8001900:	6013      	str	r3, [r2, #0]

  return (void *)prev_heap_end;
 8001902:	68fb      	ldr	r3, [r7, #12]
}
 8001904:	4618      	mov	r0, r3
 8001906:	3718      	adds	r7, #24
 8001908:	46bd      	mov	sp, r7
 800190a:	bd80      	pop	{r7, pc}
 800190c:	20020000 	.word	0x20020000
 8001910:	00000400 	.word	0x00000400
 8001914:	2000094c 	.word	0x2000094c
 8001918:	20000968 	.word	0x20000968

0800191c <SystemInit>:
  *         configuration.
  * @param  None
  * @retval None
  */
void SystemInit(void)
{
 800191c:	b480      	push	{r7}
 800191e:	af00      	add	r7, sp, #0
  /* FPU settings ------------------------------------------------------------*/
  #if (__FPU_PRESENT == 1) && (__FPU_USED == 1)
    SCB->CPACR |= ((3UL << 10*2)|(3UL << 11*2));  /* set CP10 and CP11 Full Access */
 8001920:	4b06      	ldr	r3, [pc, #24]	; (800193c <SystemInit+0x20>)
 8001922:	f8d3 3088 	ldr.w	r3, [r3, #136]	; 0x88
 8001926:	4a05      	ldr	r2, [pc, #20]	; (800193c <SystemInit+0x20>)
 8001928:	f443 0370 	orr.w	r3, r3, #15728640	; 0xf00000
 800192c:	f8c2 3088 	str.w	r3, [r2, #136]	; 0x88

  /* Configure the Vector Table location -------------------------------------*/
#if defined(USER_VECT_TAB_ADDRESS)
  SCB->VTOR = VECT_TAB_BASE_ADDRESS | VECT_TAB_OFFSET; /* Vector Table Relocation in Internal SRAM */
#endif /* USER_VECT_TAB_ADDRESS */
}
 8001930:	bf00      	nop
 8001932:	46bd      	mov	sp, r7
 8001934:	f85d 7b04 	ldr.w	r7, [sp], #4
 8001938:	4770      	bx	lr
 800193a:	bf00      	nop
 800193c:	e000ed00 	.word	0xe000ed00

08001940 <Reset_Handler>:

    .section  .text.Reset_Handler
  .weak  Reset_Handler
  .type  Reset_Handler, %function
Reset_Handler:  
  ldr   sp, =_estack      /* set stack pointer */
 8001940:	f8df d034 	ldr.w	sp, [pc, #52]	; 8001978 <LoopFillZerobss+0x12>

/* Copy the data segment initializers from flash to SRAM */  
  ldr r0, =_sdata
 8001944:	480d      	ldr	r0, [pc, #52]	; (800197c <LoopFillZerobss+0x16>)
  ldr r1, =_edata
 8001946:	490e      	ldr	r1, [pc, #56]	; (8001980 <LoopFillZerobss+0x1a>)
  ldr r2, =_sidata
 8001948:	4a0e      	ldr	r2, [pc, #56]	; (8001984 <LoopFillZerobss+0x1e>)
  movs r3, #0
 800194a:	2300      	movs	r3, #0
  b LoopCopyDataInit
 800194c:	e002      	b.n	8001954 <LoopCopyDataInit>

0800194e <CopyDataInit>:

CopyDataInit:
  ldr r4, [r2, r3]
 800194e:	58d4      	ldr	r4, [r2, r3]
  str r4, [r0, r3]
 8001950:	50c4      	str	r4, [r0, r3]
  adds r3, r3, #4
 8001952:	3304      	adds	r3, #4

08001954 <LoopCopyDataInit>:

LoopCopyDataInit:
  adds r4, r0, r3
 8001954:	18c4      	adds	r4, r0, r3
  cmp r4, r1
 8001956:	428c      	cmp	r4, r1
  bcc CopyDataInit
 8001958:	d3f9      	bcc.n	800194e <CopyDataInit>
  
/* Zero fill the bss segment. */
  ldr r2, =_sbss
 800195a:	4a0b      	ldr	r2, [pc, #44]	; (8001988 <LoopFillZerobss+0x22>)
  ldr r4, =_ebss
 800195c:	4c0b      	ldr	r4, [pc, #44]	; (800198c <LoopFillZerobss+0x26>)
  movs r3, #0
 800195e:	2300      	movs	r3, #0
  b LoopFillZerobss
 8001960:	e001      	b.n	8001966 <LoopFillZerobss>

08001962 <FillZerobss>:

FillZerobss:
  str  r3, [r2]
 8001962:	6013      	str	r3, [r2, #0]
  adds r2, r2, #4
 8001964:	3204      	adds	r2, #4

08001966 <LoopFillZerobss>:

LoopFillZerobss:
  cmp r2, r4
 8001966:	42a2      	cmp	r2, r4
  bcc FillZerobss
 8001968:	d3fb      	bcc.n	8001962 <FillZerobss>

/* Call the clock system initialization function.*/
  bl  SystemInit   
 800196a:	f7ff ffd7 	bl	800191c <SystemInit>
/* Call static constructors */
    bl __libc_init_array
 800196e:	f002 faf9 	bl	8003f64 <__libc_init_array>
/* Call the application's entry point.*/
  bl  main
 8001972:	f7ff fb61 	bl	8001038 <main>
  bx  lr    
 8001976:	4770      	bx	lr
  ldr   sp, =_estack      /* set stack pointer */
 8001978:	20020000 	.word	0x20020000
  ldr r0, =_sdata
 800197c:	20000000 	.word	0x20000000
  ldr r1, =_edata
 8001980:	200001e0 	.word	0x200001e0
  ldr r2, =_sidata
 8001984:	080096b4 	.word	0x080096b4
  ldr r2, =_sbss
 8001988:	200001e0 	.word	0x200001e0
  ldr r4, =_ebss
 800198c:	20000964 	.word	0x20000964

08001990 <ADC_IRQHandler>:
 * @retval None       
*/
    .section  .text.Default_Handler,"ax",%progbits
Default_Handler:
Infinite_Loop:
  b  Infinite_Loop
 8001990:	e7fe      	b.n	8001990 <ADC_IRQHandler>
	...

08001994 <HAL_Init>:
  *         need to ensure that the SysTick time base is always set to 1 millisecond
  *         to have correct HAL operation.
  * @retval HAL status
  */
HAL_StatusTypeDef HAL_Init(void)
{
 8001994:	b580      	push	{r7, lr}
 8001996:	af00      	add	r7, sp, #0
  /* Configure Flash prefetch, Instruction cache, Data cache */ 
#if (INSTRUCTION_CACHE_ENABLE != 0U)
  __HAL_FLASH_INSTRUCTION_CACHE_ENABLE();
 8001998:	4b0e      	ldr	r3, [pc, #56]	; (80019d4 <HAL_Init+0x40>)
 800199a:	681b      	ldr	r3, [r3, #0]
 800199c:	4a0d      	ldr	r2, [pc, #52]	; (80019d4 <HAL_Init+0x40>)
 800199e:	f443 7300 	orr.w	r3, r3, #512	; 0x200
 80019a2:	6013      	str	r3, [r2, #0]
#endif /* INSTRUCTION_CACHE_ENABLE */

#if (DATA_CACHE_ENABLE != 0U)
  __HAL_FLASH_DATA_CACHE_ENABLE();
 80019a4:	4b0b      	ldr	r3, [pc, #44]	; (80019d4 <HAL_Init+0x40>)
 80019a6:	681b      	ldr	r3, [r3, #0]
 80019a8:	4a0a      	ldr	r2, [pc, #40]	; (80019d4 <HAL_Init+0x40>)
 80019aa:	f443 6380 	orr.w	r3, r3, #1024	; 0x400
 80019ae:	6013      	str	r3, [r2, #0]
#endif /* DATA_CACHE_ENABLE */

#if (PREFETCH_ENABLE != 0U)
  __HAL_FLASH_PREFETCH_BUFFER_ENABLE();
 80019b0:	4b08      	ldr	r3, [pc, #32]	; (80019d4 <HAL_Init+0x40>)
 80019b2:	681b      	ldr	r3, [r3, #0]
 80019b4:	4a07      	ldr	r2, [pc, #28]	; (80019d4 <HAL_Init+0x40>)
 80019b6:	f443 7380 	orr.w	r3, r3, #256	; 0x100
 80019ba:	6013      	str	r3, [r2, #0]
#endif /* PREFETCH_ENABLE */

  /* Set Interrupt Group Priority */
  HAL_NVIC_SetPriorityGrouping(NVIC_PRIORITYGROUP_4);
 80019bc:	2003      	movs	r0, #3
 80019be:	f000 f94f 	bl	8001c60 <HAL_NVIC_SetPriorityGrouping>

  /* Use systick as time base source and configure 1ms tick (default clock after Reset is HSI) */
  HAL_InitTick(TICK_INT_PRIORITY);
 80019c2:	2000      	movs	r0, #0
 80019c4:	f000 f808 	bl	80019d8 <HAL_InitTick>

  /* Init the low level hardware */
  HAL_MspInit();
 80019c8:	f7ff fdd6 	bl	8001578 <HAL_MspInit>

  /* Return function status */
  return HAL_OK;
 80019cc:	2300      	movs	r3, #0
}
 80019ce:	4618      	mov	r0, r3
 80019d0:	bd80      	pop	{r7, pc}
 80019d2:	bf00      	nop
 80019d4:	40023c00 	.word	0x40023c00

080019d8 <HAL_InitTick>:
  *       implementation  in user file.
  * @param TickPriority Tick interrupt priority.
  * @retval HAL status
  */
__weak HAL_StatusTypeDef HAL_InitTick(uint32_t TickPriority)
{
 80019d8:	b580      	push	{r7, lr}
 80019da:	b082      	sub	sp, #8
 80019dc:	af00      	add	r7, sp, #0
 80019de:	6078      	str	r0, [r7, #4]
  /* Configure the SysTick to have interrupt in 1ms time basis*/
  if (HAL_SYSTICK_Config(SystemCoreClock / (1000U / uwTickFreq)) > 0U)
 80019e0:	4b12      	ldr	r3, [pc, #72]	; (8001a2c <HAL_InitTick+0x54>)
 80019e2:	681a      	ldr	r2, [r3, #0]
 80019e4:	4b12      	ldr	r3, [pc, #72]	; (8001a30 <HAL_InitTick+0x58>)
 80019e6:	781b      	ldrb	r3, [r3, #0]
 80019e8:	4619      	mov	r1, r3
 80019ea:	f44f 737a 	mov.w	r3, #1000	; 0x3e8
 80019ee:	fbb3 f3f1 	udiv	r3, r3, r1
 80019f2:	fbb2 f3f3 	udiv	r3, r2, r3
 80019f6:	4618      	mov	r0, r3
 80019f8:	f000 f967 	bl	8001cca <HAL_SYSTICK_Config>
 80019fc:	4603      	mov	r3, r0
 80019fe:	2b00      	cmp	r3, #0
 8001a00:	d001      	beq.n	8001a06 <HAL_InitTick+0x2e>
  {
    return HAL_ERROR;
 8001a02:	2301      	movs	r3, #1
 8001a04:	e00e      	b.n	8001a24 <HAL_InitTick+0x4c>
  }

  /* Configure the SysTick IRQ priority */
  if (TickPriority < (1UL << __NVIC_PRIO_BITS))
 8001a06:	687b      	ldr	r3, [r7, #4]
 8001a08:	2b0f      	cmp	r3, #15
 8001a0a:	d80a      	bhi.n	8001a22 <HAL_InitTick+0x4a>
  {
    HAL_NVIC_SetPriority(SysTick_IRQn, TickPriority, 0U);
 8001a0c:	2200      	movs	r2, #0
 8001a0e:	6879      	ldr	r1, [r7, #4]
 8001a10:	f04f 30ff 	mov.w	r0, #4294967295
 8001a14:	f000 f92f 	bl	8001c76 <HAL_NVIC_SetPriority>
    uwTickPrio = TickPriority;
 8001a18:	4a06      	ldr	r2, [pc, #24]	; (8001a34 <HAL_InitTick+0x5c>)
 8001a1a:	687b      	ldr	r3, [r7, #4]
 8001a1c:	6013      	str	r3, [r2, #0]
  {
    return HAL_ERROR;
  }

  /* Return function status */
  return HAL_OK;
 8001a1e:	2300      	movs	r3, #0
 8001a20:	e000      	b.n	8001a24 <HAL_InitTick+0x4c>
    return HAL_ERROR;
 8001a22:	2301      	movs	r3, #1
}
 8001a24:	4618      	mov	r0, r3
 8001a26:	3708      	adds	r7, #8
 8001a28:	46bd      	mov	sp, r7
 8001a2a:	bd80      	pop	{r7, pc}
 8001a2c:	20000000 	.word	0x20000000
 8001a30:	20000008 	.word	0x20000008
 8001a34:	20000004 	.word	0x20000004

08001a38 <HAL_IncTick>:
 * @note This function is declared as __weak to be overwritten in case of other 
  *      implementations in user file.
  * @retval None
  */
__weak void HAL_IncTick(void)
{
 8001a38:	b480      	push	{r7}
 8001a3a:	af00      	add	r7, sp, #0
  uwTick += uwTickFreq;
 8001a3c:	4b06      	ldr	r3, [pc, #24]	; (8001a58 <HAL_IncTick+0x20>)
 8001a3e:	781b      	ldrb	r3, [r3, #0]
 8001a40:	461a      	mov	r2, r3
 8001a42:	4b06      	ldr	r3, [pc, #24]	; (8001a5c <HAL_IncTick+0x24>)
 8001a44:	681b      	ldr	r3, [r3, #0]
 8001a46:	4413      	add	r3, r2
 8001a48:	4a04      	ldr	r2, [pc, #16]	; (8001a5c <HAL_IncTick+0x24>)
 8001a4a:	6013      	str	r3, [r2, #0]
}
 8001a4c:	bf00      	nop
 8001a4e:	46bd      	mov	sp, r7
 8001a50:	f85d 7b04 	ldr.w	r7, [sp], #4
 8001a54:	4770      	bx	lr
 8001a56:	bf00      	nop
 8001a58:	20000008 	.word	0x20000008
 8001a5c:	20000950 	.word	0x20000950

08001a60 <HAL_GetTick>:
  * @note This function is declared as __weak to be overwritten in case of other 
  *       implementations in user file.
  * @retval tick value
  */
__weak uint32_t HAL_GetTick(void)
{
 8001a60:	b480      	push	{r7}
 8001a62:	af00      	add	r7, sp, #0
  return uwTick;
 8001a64:	4b03      	ldr	r3, [pc, #12]	; (8001a74 <HAL_GetTick+0x14>)
 8001a66:	681b      	ldr	r3, [r3, #0]
}
 8001a68:	4618      	mov	r0, r3
 8001a6a:	46bd      	mov	sp, r7
 8001a6c:	f85d 7b04 	ldr.w	r7, [sp], #4
 8001a70:	4770      	bx	lr
 8001a72:	bf00      	nop
 8001a74:	20000950 	.word	0x20000950

08001a78 <HAL_Delay>:
  *       implementations in user file.
  * @param Delay specifies the delay time length, in milliseconds.
  * @retval None
  */
__weak void HAL_Delay(uint32_t Delay)
{
 8001a78:	b580      	push	{r7, lr}
 8001a7a:	b084      	sub	sp, #16
 8001a7c:	af00      	add	r7, sp, #0
 8001a7e:	6078      	str	r0, [r7, #4]
  uint32_t tickstart = HAL_GetTick();
 8001a80:	f7ff ffee 	bl	8001a60 <HAL_GetTick>
 8001a84:	60b8      	str	r0, [r7, #8]
  uint32_t wait = Delay;
 8001a86:	687b      	ldr	r3, [r7, #4]
 8001a88:	60fb      	str	r3, [r7, #12]

  /* Add a freq to guarantee minimum wait */
  if (wait < HAL_MAX_DELAY)
 8001a8a:	68fb      	ldr	r3, [r7, #12]
 8001a8c:	f1b3 3fff 	cmp.w	r3, #4294967295
 8001a90:	d005      	beq.n	8001a9e <HAL_Delay+0x26>
  {
    wait += (uint32_t)(uwTickFreq);
 8001a92:	4b0a      	ldr	r3, [pc, #40]	; (8001abc <HAL_Delay+0x44>)
 8001a94:	781b      	ldrb	r3, [r3, #0]
 8001a96:	461a      	mov	r2, r3
 8001a98:	68fb      	ldr	r3, [r7, #12]
 8001a9a:	4413      	add	r3, r2
 8001a9c:	60fb      	str	r3, [r7, #12]
  }

  while((HAL_GetTick() - tickstart) < wait)
 8001a9e:	bf00      	nop
 8001aa0:	f7ff ffde 	bl	8001a60 <HAL_GetTick>
 8001aa4:	4602      	mov	r2, r0
 8001aa6:	68bb      	ldr	r3, [r7, #8]
 8001aa8:	1ad3      	subs	r3, r2, r3
 8001aaa:	68fa      	ldr	r2, [r7, #12]
 8001aac:	429a      	cmp	r2, r3
 8001aae:	d8f7      	bhi.n	8001aa0 <HAL_Delay+0x28>
  {
  }
}
 8001ab0:	bf00      	nop
 8001ab2:	bf00      	nop
 8001ab4:	3710      	adds	r7, #16
 8001ab6:	46bd      	mov	sp, r7
 8001ab8:	bd80      	pop	{r7, pc}
 8001aba:	bf00      	nop
 8001abc:	20000008 	.word	0x20000008

08001ac0 <__NVIC_SetPriorityGrouping>:
           In case of a conflict between priority grouping and available
           priority bits (__NVIC_PRIO_BITS), the smallest possible priority group is set.
  \param [in]      PriorityGroup  Priority grouping field.
 */
__STATIC_INLINE void __NVIC_SetPriorityGrouping(uint32_t PriorityGroup)
{
 8001ac0:	b480      	push	{r7}
 8001ac2:	b085      	sub	sp, #20
 8001ac4:	af00      	add	r7, sp, #0
 8001ac6:	6078      	str	r0, [r7, #4]
  uint32_t reg_value;
  uint32_t PriorityGroupTmp = (PriorityGroup & (uint32_t)0x07UL);             /* only values 0..7 are used          */
 8001ac8:	687b      	ldr	r3, [r7, #4]
 8001aca:	f003 0307 	and.w	r3, r3, #7
 8001ace:	60fb      	str	r3, [r7, #12]

  reg_value  =  SCB->AIRCR;                                                   /* read old register configuration    */
 8001ad0:	4b0c      	ldr	r3, [pc, #48]	; (8001b04 <__NVIC_SetPriorityGrouping+0x44>)
 8001ad2:	68db      	ldr	r3, [r3, #12]
 8001ad4:	60bb      	str	r3, [r7, #8]
  reg_value &= ~((uint32_t)(SCB_AIRCR_VECTKEY_Msk | SCB_AIRCR_PRIGROUP_Msk)); /* clear bits to change               */
 8001ad6:	68ba      	ldr	r2, [r7, #8]
 8001ad8:	f64f 03ff 	movw	r3, #63743	; 0xf8ff
 8001adc:	4013      	ands	r3, r2
 8001ade:	60bb      	str	r3, [r7, #8]
  reg_value  =  (reg_value                                   |
                ((uint32_t)0x5FAUL << SCB_AIRCR_VECTKEY_Pos) |
                (PriorityGroupTmp << SCB_AIRCR_PRIGROUP_Pos)  );              /* Insert write key and priority group */
 8001ae0:	68fb      	ldr	r3, [r7, #12]
 8001ae2:	021a      	lsls	r2, r3, #8
                ((uint32_t)0x5FAUL << SCB_AIRCR_VECTKEY_Pos) |
 8001ae4:	68bb      	ldr	r3, [r7, #8]
 8001ae6:	4313      	orrs	r3, r2
  reg_value  =  (reg_value                                   |
 8001ae8:	f043 63bf 	orr.w	r3, r3, #100139008	; 0x5f80000
 8001aec:	f443 3300 	orr.w	r3, r3, #131072	; 0x20000
 8001af0:	60bb      	str	r3, [r7, #8]
  SCB->AIRCR =  reg_value;
 8001af2:	4a04      	ldr	r2, [pc, #16]	; (8001b04 <__NVIC_SetPriorityGrouping+0x44>)
 8001af4:	68bb      	ldr	r3, [r7, #8]
 8001af6:	60d3      	str	r3, [r2, #12]
}
 8001af8:	bf00      	nop
 8001afa:	3714      	adds	r7, #20
 8001afc:	46bd      	mov	sp, r7
 8001afe:	f85d 7b04 	ldr.w	r7, [sp], #4
 8001b02:	4770      	bx	lr
 8001b04:	e000ed00 	.word	0xe000ed00

08001b08 <__NVIC_GetPriorityGrouping>:
  \brief   Get Priority Grouping
  \details Reads the priority grouping field from the NVIC Interrupt Controller.
  \return                Priority grouping field (SCB->AIRCR [10:8] PRIGROUP field).
 */
__STATIC_INLINE uint32_t __NVIC_GetPriorityGrouping(void)
{
 8001b08:	b480      	push	{r7}
 8001b0a:	af00      	add	r7, sp, #0
  return ((uint32_t)((SCB->AIRCR & SCB_AIRCR_PRIGROUP_Msk) >> SCB_AIRCR_PRIGROUP_Pos));
 8001b0c:	4b04      	ldr	r3, [pc, #16]	; (8001b20 <__NVIC_GetPriorityGrouping+0x18>)
 8001b0e:	68db      	ldr	r3, [r3, #12]
 8001b10:	0a1b      	lsrs	r3, r3, #8
 8001b12:	f003 0307 	and.w	r3, r3, #7
}
 8001b16:	4618      	mov	r0, r3
 8001b18:	46bd      	mov	sp, r7
 8001b1a:	f85d 7b04 	ldr.w	r7, [sp], #4
 8001b1e:	4770      	bx	lr
 8001b20:	e000ed00 	.word	0xe000ed00

08001b24 <__NVIC_EnableIRQ>:
  \details Enables a device specific interrupt in the NVIC interrupt controller.
  \param [in]      IRQn  Device specific interrupt number.
  \note    IRQn must not be negative.
 */
__STATIC_INLINE void __NVIC_EnableIRQ(IRQn_Type IRQn)
{
 8001b24:	b480      	push	{r7}
 8001b26:	b083      	sub	sp, #12
 8001b28:	af00      	add	r7, sp, #0
 8001b2a:	4603      	mov	r3, r0
 8001b2c:	71fb      	strb	r3, [r7, #7]
  if ((int32_t)(IRQn) >= 0)
 8001b2e:	f997 3007 	ldrsb.w	r3, [r7, #7]
 8001b32:	2b00      	cmp	r3, #0
 8001b34:	db0b      	blt.n	8001b4e <__NVIC_EnableIRQ+0x2a>
  {
    NVIC->ISER[(((uint32_t)IRQn) >> 5UL)] = (uint32_t)(1UL << (((uint32_t)IRQn) & 0x1FUL));
 8001b36:	79fb      	ldrb	r3, [r7, #7]
 8001b38:	f003 021f 	and.w	r2, r3, #31
 8001b3c:	4907      	ldr	r1, [pc, #28]	; (8001b5c <__NVIC_EnableIRQ+0x38>)
 8001b3e:	f997 3007 	ldrsb.w	r3, [r7, #7]
 8001b42:	095b      	lsrs	r3, r3, #5
 8001b44:	2001      	movs	r0, #1
 8001b46:	fa00 f202 	lsl.w	r2, r0, r2
 8001b4a:	f841 2023 	str.w	r2, [r1, r3, lsl #2]
  }
}
 8001b4e:	bf00      	nop
 8001b50:	370c      	adds	r7, #12
 8001b52:	46bd      	mov	sp, r7
 8001b54:	f85d 7b04 	ldr.w	r7, [sp], #4
 8001b58:	4770      	bx	lr
 8001b5a:	bf00      	nop
 8001b5c:	e000e100 	.word	0xe000e100

08001b60 <__NVIC_SetPriority>:
  \param [in]      IRQn  Interrupt number.
  \param [in]  priority  Priority to set.
  \note    The priority cannot be set for every processor exception.
 */
__STATIC_INLINE void __NVIC_SetPriority(IRQn_Type IRQn, uint32_t priority)
{
 8001b60:	b480      	push	{r7}
 8001b62:	b083      	sub	sp, #12
 8001b64:	af00      	add	r7, sp, #0
 8001b66:	4603      	mov	r3, r0
 8001b68:	6039      	str	r1, [r7, #0]
 8001b6a:	71fb      	strb	r3, [r7, #7]
  if ((int32_t)(IRQn) >= 0)
 8001b6c:	f997 3007 	ldrsb.w	r3, [r7, #7]
 8001b70:	2b00      	cmp	r3, #0
 8001b72:	db0a      	blt.n	8001b8a <__NVIC_SetPriority+0x2a>
  {
    NVIC->IP[((uint32_t)IRQn)]               = (uint8_t)((priority << (8U - __NVIC_PRIO_BITS)) & (uint32_t)0xFFUL);
 8001b74:	683b      	ldr	r3, [r7, #0]
 8001b76:	b2da      	uxtb	r2, r3
 8001b78:	490c      	ldr	r1, [pc, #48]	; (8001bac <__NVIC_SetPriority+0x4c>)
 8001b7a:	f997 3007 	ldrsb.w	r3, [r7, #7]
 8001b7e:	0112      	lsls	r2, r2, #4
 8001b80:	b2d2      	uxtb	r2, r2
 8001b82:	440b      	add	r3, r1
 8001b84:	f883 2300 	strb.w	r2, [r3, #768]	; 0x300
  }
  else
  {
    SCB->SHP[(((uint32_t)IRQn) & 0xFUL)-4UL] = (uint8_t)((priority << (8U - __NVIC_PRIO_BITS)) & (uint32_t)0xFFUL);
  }
}
 8001b88:	e00a      	b.n	8001ba0 <__NVIC_SetPriority+0x40>
    SCB->SHP[(((uint32_t)IRQn) & 0xFUL)-4UL] = (uint8_t)((priority << (8U - __NVIC_PRIO_BITS)) & (uint32_t)0xFFUL);
 8001b8a:	683b      	ldr	r3, [r7, #0]
 8001b8c:	b2da      	uxtb	r2, r3
 8001b8e:	4908      	ldr	r1, [pc, #32]	; (8001bb0 <__NVIC_SetPriority+0x50>)
 8001b90:	79fb      	ldrb	r3, [r7, #7]
 8001b92:	f003 030f 	and.w	r3, r3, #15
 8001b96:	3b04      	subs	r3, #4
 8001b98:	0112      	lsls	r2, r2, #4
 8001b9a:	b2d2      	uxtb	r2, r2
 8001b9c:	440b      	add	r3, r1
 8001b9e:	761a      	strb	r2, [r3, #24]
}
 8001ba0:	bf00      	nop
 8001ba2:	370c      	adds	r7, #12
 8001ba4:	46bd      	mov	sp, r7
 8001ba6:	f85d 7b04 	ldr.w	r7, [sp], #4
 8001baa:	4770      	bx	lr
 8001bac:	e000e100 	.word	0xe000e100
 8001bb0:	e000ed00 	.word	0xe000ed00

08001bb4 <NVIC_EncodePriority>:
  \param [in]   PreemptPriority  Preemptive priority value (starting from 0).
  \param [in]       SubPriority  Subpriority value (starting from 0).
  \return                        Encoded priority. Value can be used in the function \ref NVIC_SetPriority().
 */
__STATIC_INLINE uint32_t NVIC_EncodePriority (uint32_t PriorityGroup, uint32_t PreemptPriority, uint32_t SubPriority)
{
 8001bb4:	b480      	push	{r7}
 8001bb6:	b089      	sub	sp, #36	; 0x24
 8001bb8:	af00      	add	r7, sp, #0
 8001bba:	60f8      	str	r0, [r7, #12]
 8001bbc:	60b9      	str	r1, [r7, #8]
 8001bbe:	607a      	str	r2, [r7, #4]
  uint32_t PriorityGroupTmp = (PriorityGroup & (uint32_t)0x07UL);   /* only values 0..7 are used          */
 8001bc0:	68fb      	ldr	r3, [r7, #12]
 8001bc2:	f003 0307 	and.w	r3, r3, #7
 8001bc6:	61fb      	str	r3, [r7, #28]
  uint32_t PreemptPriorityBits;
  uint32_t SubPriorityBits;

  PreemptPriorityBits = ((7UL - PriorityGroupTmp) > (uint32_t)(__NVIC_PRIO_BITS)) ? (uint32_t)(__NVIC_PRIO_BITS) : (uint32_t)(7UL - PriorityGroupTmp);
 8001bc8:	69fb      	ldr	r3, [r7, #28]
 8001bca:	f1c3 0307 	rsb	r3, r3, #7
 8001bce:	2b04      	cmp	r3, #4
 8001bd0:	bf28      	it	cs
 8001bd2:	2304      	movcs	r3, #4
 8001bd4:	61bb      	str	r3, [r7, #24]
  SubPriorityBits     = ((PriorityGroupTmp + (uint32_t)(__NVIC_PRIO_BITS)) < (uint32_t)7UL) ? (uint32_t)0UL : (uint32_t)((PriorityGroupTmp - 7UL) + (uint32_t)(__NVIC_PRIO_BITS));
 8001bd6:	69fb      	ldr	r3, [r7, #28]
 8001bd8:	3304      	adds	r3, #4
 8001bda:	2b06      	cmp	r3, #6
 8001bdc:	d902      	bls.n	8001be4 <NVIC_EncodePriority+0x30>
 8001bde:	69fb      	ldr	r3, [r7, #28]
 8001be0:	3b03      	subs	r3, #3
 8001be2:	e000      	b.n	8001be6 <NVIC_EncodePriority+0x32>
 8001be4:	2300      	movs	r3, #0
 8001be6:	617b      	str	r3, [r7, #20]

  return (
           ((PreemptPriority & (uint32_t)((1UL << (PreemptPriorityBits)) - 1UL)) << SubPriorityBits) |
 8001be8:	f04f 32ff 	mov.w	r2, #4294967295
 8001bec:	69bb      	ldr	r3, [r7, #24]
 8001bee:	fa02 f303 	lsl.w	r3, r2, r3
 8001bf2:	43da      	mvns	r2, r3
 8001bf4:	68bb      	ldr	r3, [r7, #8]
 8001bf6:	401a      	ands	r2, r3
 8001bf8:	697b      	ldr	r3, [r7, #20]
 8001bfa:	409a      	lsls	r2, r3
           ((SubPriority     & (uint32_t)((1UL << (SubPriorityBits    )) - 1UL)))
 8001bfc:	f04f 31ff 	mov.w	r1, #4294967295
 8001c00:	697b      	ldr	r3, [r7, #20]
 8001c02:	fa01 f303 	lsl.w	r3, r1, r3
 8001c06:	43d9      	mvns	r1, r3
 8001c08:	687b      	ldr	r3, [r7, #4]
 8001c0a:	400b      	ands	r3, r1
           ((PreemptPriority & (uint32_t)((1UL << (PreemptPriorityBits)) - 1UL)) << SubPriorityBits) |
 8001c0c:	4313      	orrs	r3, r2
         );
}
 8001c0e:	4618      	mov	r0, r3
 8001c10:	3724      	adds	r7, #36	; 0x24
 8001c12:	46bd      	mov	sp, r7
 8001c14:	f85d 7b04 	ldr.w	r7, [sp], #4
 8001c18:	4770      	bx	lr
	...

08001c1c <SysTick_Config>:
  \note    When the variable <b>__Vendor_SysTickConfig</b> is set to 1, then the
           function <b>SysTick_Config</b> is not included. In this case, the file <b><i>device</i>.h</b>
           must contain a vendor-specific implementation of this function.
 */
__STATIC_INLINE uint32_t SysTick_Config(uint32_t ticks)
{
 8001c1c:	b580      	push	{r7, lr}
 8001c1e:	b082      	sub	sp, #8
 8001c20:	af00      	add	r7, sp, #0
 8001c22:	6078      	str	r0, [r7, #4]
  if ((ticks - 1UL) > SysTick_LOAD_RELOAD_Msk)
 8001c24:	687b      	ldr	r3, [r7, #4]
 8001c26:	3b01      	subs	r3, #1
 8001c28:	f1b3 7f80 	cmp.w	r3, #16777216	; 0x1000000
 8001c2c:	d301      	bcc.n	8001c32 <SysTick_Config+0x16>
  {
    return (1UL);                                                   /* Reload value impossible */
 8001c2e:	2301      	movs	r3, #1
 8001c30:	e00f      	b.n	8001c52 <SysTick_Config+0x36>
  }

  SysTick->LOAD  = (uint32_t)(ticks - 1UL);                         /* set reload register */
 8001c32:	4a0a      	ldr	r2, [pc, #40]	; (8001c5c <SysTick_Config+0x40>)
 8001c34:	687b      	ldr	r3, [r7, #4]
 8001c36:	3b01      	subs	r3, #1
 8001c38:	6053      	str	r3, [r2, #4]
  NVIC_SetPriority (SysTick_IRQn, (1UL << __NVIC_PRIO_BITS) - 1UL); /* set Priority for Systick Interrupt */
 8001c3a:	210f      	movs	r1, #15
 8001c3c:	f04f 30ff 	mov.w	r0, #4294967295
 8001c40:	f7ff ff8e 	bl	8001b60 <__NVIC_SetPriority>
  SysTick->VAL   = 0UL;                                             /* Load the SysTick Counter Value */
 8001c44:	4b05      	ldr	r3, [pc, #20]	; (8001c5c <SysTick_Config+0x40>)
 8001c46:	2200      	movs	r2, #0
 8001c48:	609a      	str	r2, [r3, #8]
  SysTick->CTRL  = SysTick_CTRL_CLKSOURCE_Msk |
 8001c4a:	4b04      	ldr	r3, [pc, #16]	; (8001c5c <SysTick_Config+0x40>)
 8001c4c:	2207      	movs	r2, #7
 8001c4e:	601a      	str	r2, [r3, #0]
                   SysTick_CTRL_TICKINT_Msk   |
                   SysTick_CTRL_ENABLE_Msk;                         /* Enable SysTick IRQ and SysTick Timer */
  return (0UL);                                                     /* Function successful */
 8001c50:	2300      	movs	r3, #0
}
 8001c52:	4618      	mov	r0, r3
 8001c54:	3708      	adds	r7, #8
 8001c56:	46bd      	mov	sp, r7
 8001c58:	bd80      	pop	{r7, pc}
 8001c5a:	bf00      	nop
 8001c5c:	e000e010 	.word	0xe000e010

08001c60 <HAL_NVIC_SetPriorityGrouping>:
  * @note   When the NVIC_PriorityGroup_0 is selected, IRQ preemption is no more possible. 
  *         The pending IRQ priority will be managed only by the subpriority. 
  * @retval None
  */
void HAL_NVIC_SetPriorityGrouping(uint32_t PriorityGroup)
{
 8001c60:	b580      	push	{r7, lr}
 8001c62:	b082      	sub	sp, #8
 8001c64:	af00      	add	r7, sp, #0
 8001c66:	6078      	str	r0, [r7, #4]
  /* Check the parameters */
  assert_param(IS_NVIC_PRIORITY_GROUP(PriorityGroup));
  
  /* Set the PRIGROUP[10:8] bits according to the PriorityGroup parameter value */
  NVIC_SetPriorityGrouping(PriorityGroup);
 8001c68:	6878      	ldr	r0, [r7, #4]
 8001c6a:	f7ff ff29 	bl	8001ac0 <__NVIC_SetPriorityGrouping>
}
 8001c6e:	bf00      	nop
 8001c70:	3708      	adds	r7, #8
 8001c72:	46bd      	mov	sp, r7
 8001c74:	bd80      	pop	{r7, pc}

08001c76 <HAL_NVIC_SetPriority>:
  *         This parameter can be a value between 0 and 15
  *         A lower priority value indicates a higher priority.          
  * @retval None
  */
void HAL_NVIC_SetPriority(IRQn_Type IRQn, uint32_t PreemptPriority, uint32_t SubPriority)
{ 
 8001c76:	b580      	push	{r7, lr}
 8001c78:	b086      	sub	sp, #24
 8001c7a:	af00      	add	r7, sp, #0
 8001c7c:	4603      	mov	r3, r0
 8001c7e:	60b9      	str	r1, [r7, #8]
 8001c80:	607a      	str	r2, [r7, #4]
 8001c82:	73fb      	strb	r3, [r7, #15]
  uint32_t prioritygroup = 0x00U;
 8001c84:	2300      	movs	r3, #0
 8001c86:	617b      	str	r3, [r7, #20]
  
  /* Check the parameters */
  assert_param(IS_NVIC_SUB_PRIORITY(SubPriority));
  assert_param(IS_NVIC_PREEMPTION_PRIORITY(PreemptPriority));
  
  prioritygroup = NVIC_GetPriorityGrouping();
 8001c88:	f7ff ff3e 	bl	8001b08 <__NVIC_GetPriorityGrouping>
 8001c8c:	6178      	str	r0, [r7, #20]
  
  NVIC_SetPriority(IRQn, NVIC_EncodePriority(prioritygroup, PreemptPriority, SubPriority));
 8001c8e:	687a      	ldr	r2, [r7, #4]
 8001c90:	68b9      	ldr	r1, [r7, #8]
 8001c92:	6978      	ldr	r0, [r7, #20]
 8001c94:	f7ff ff8e 	bl	8001bb4 <NVIC_EncodePriority>
 8001c98:	4602      	mov	r2, r0
 8001c9a:	f997 300f 	ldrsb.w	r3, [r7, #15]
 8001c9e:	4611      	mov	r1, r2
 8001ca0:	4618      	mov	r0, r3
 8001ca2:	f7ff ff5d 	bl	8001b60 <__NVIC_SetPriority>
}
 8001ca6:	bf00      	nop
 8001ca8:	3718      	adds	r7, #24
 8001caa:	46bd      	mov	sp, r7
 8001cac:	bd80      	pop	{r7, pc}

08001cae <HAL_NVIC_EnableIRQ>:
  *         This parameter can be an enumerator of IRQn_Type enumeration
  *         (For the complete STM32 Devices IRQ Channels list, please refer to the appropriate CMSIS device file (stm32f4xxxx.h))
  * @retval None
  */
void HAL_NVIC_EnableIRQ(IRQn_Type IRQn)
{
 8001cae:	b580      	push	{r7, lr}
 8001cb0:	b082      	sub	sp, #8
 8001cb2:	af00      	add	r7, sp, #0
 8001cb4:	4603      	mov	r3, r0
 8001cb6:	71fb      	strb	r3, [r7, #7]
  /* Check the parameters */
  assert_param(IS_NVIC_DEVICE_IRQ(IRQn));
  
  /* Enable interrupt */
  NVIC_EnableIRQ(IRQn);
 8001cb8:	f997 3007 	ldrsb.w	r3, [r7, #7]
 8001cbc:	4618      	mov	r0, r3
 8001cbe:	f7ff ff31 	bl	8001b24 <__NVIC_EnableIRQ>
}
 8001cc2:	bf00      	nop
 8001cc4:	3708      	adds	r7, #8
 8001cc6:	46bd      	mov	sp, r7
 8001cc8:	bd80      	pop	{r7, pc}

08001cca <HAL_SYSTICK_Config>:
  * @param  TicksNumb Specifies the ticks Number of ticks between two interrupts.
  * @retval status:  - 0  Function succeeded.
  *                  - 1  Function failed.
  */
uint32_t HAL_SYSTICK_Config(uint32_t TicksNumb)
{
 8001cca:	b580      	push	{r7, lr}
 8001ccc:	b082      	sub	sp, #8
 8001cce:	af00      	add	r7, sp, #0
 8001cd0:	6078      	str	r0, [r7, #4]
   return SysTick_Config(TicksNumb);
 8001cd2:	6878      	ldr	r0, [r7, #4]
 8001cd4:	f7ff ffa2 	bl	8001c1c <SysTick_Config>
 8001cd8:	4603      	mov	r3, r0
}
 8001cda:	4618      	mov	r0, r3
 8001cdc:	3708      	adds	r7, #8
 8001cde:	46bd      	mov	sp, r7
 8001ce0:	bd80      	pop	{r7, pc}
	...

08001ce4 <HAL_DMA_Init>:
  * @param  hdma Pointer to a DMA_HandleTypeDef structure that contains
  *               the configuration information for the specified DMA Stream.  
  * @retval HAL status
  */
HAL_StatusTypeDef HAL_DMA_Init(DMA_HandleTypeDef *hdma)
{
 8001ce4:	b580      	push	{r7, lr}
 8001ce6:	b086      	sub	sp, #24
 8001ce8:	af00      	add	r7, sp, #0
 8001cea:	6078      	str	r0, [r7, #4]
  uint32_t tmp = 0U;
 8001cec:	2300      	movs	r3, #0
 8001cee:	617b      	str	r3, [r7, #20]
  uint32_t tickstart = HAL_GetTick();
 8001cf0:	f7ff feb6 	bl	8001a60 <HAL_GetTick>
 8001cf4:	6138      	str	r0, [r7, #16]
  DMA_Base_Registers *regs;

  /* Check the DMA peripheral state */
  if(hdma == NULL)
 8001cf6:	687b      	ldr	r3, [r7, #4]
 8001cf8:	2b00      	cmp	r3, #0
 8001cfa:	d101      	bne.n	8001d00 <HAL_DMA_Init+0x1c>
  {
    return HAL_ERROR;
 8001cfc:	2301      	movs	r3, #1
 8001cfe:	e099      	b.n	8001e34 <HAL_DMA_Init+0x150>
    assert_param(IS_DMA_MEMORY_BURST(hdma->Init.MemBurst));
    assert_param(IS_DMA_PERIPHERAL_BURST(hdma->Init.PeriphBurst));
  }

  /* Change DMA peripheral state */
  hdma->State = HAL_DMA_STATE_BUSY;
 8001d00:	687b      	ldr	r3, [r7, #4]
 8001d02:	2202      	movs	r2, #2
 8001d04:	f883 2035 	strb.w	r2, [r3, #53]	; 0x35

  /* Allocate lock resource */
  __HAL_UNLOCK(hdma);
 8001d08:	687b      	ldr	r3, [r7, #4]
 8001d0a:	2200      	movs	r2, #0
 8001d0c:	f883 2034 	strb.w	r2, [r3, #52]	; 0x34
  
  /* Disable the peripheral */
  __HAL_DMA_DISABLE(hdma);
 8001d10:	687b      	ldr	r3, [r7, #4]
 8001d12:	681b      	ldr	r3, [r3, #0]
 8001d14:	681a      	ldr	r2, [r3, #0]
 8001d16:	687b      	ldr	r3, [r7, #4]
 8001d18:	681b      	ldr	r3, [r3, #0]
 8001d1a:	f022 0201 	bic.w	r2, r2, #1
 8001d1e:	601a      	str	r2, [r3, #0]
  
  /* Check if the DMA Stream is effectively disabled */
  while((hdma->Instance->CR & DMA_SxCR_EN) != RESET)
 8001d20:	e00f      	b.n	8001d42 <HAL_DMA_Init+0x5e>
  {
    /* Check for the Timeout */
    if((HAL_GetTick() - tickstart ) > HAL_TIMEOUT_DMA_ABORT)
 8001d22:	f7ff fe9d 	bl	8001a60 <HAL_GetTick>
 8001d26:	4602      	mov	r2, r0
 8001d28:	693b      	ldr	r3, [r7, #16]
 8001d2a:	1ad3      	subs	r3, r2, r3
 8001d2c:	2b05      	cmp	r3, #5
 8001d2e:	d908      	bls.n	8001d42 <HAL_DMA_Init+0x5e>
    {
      /* Update error code */
      hdma->ErrorCode = HAL_DMA_ERROR_TIMEOUT;
 8001d30:	687b      	ldr	r3, [r7, #4]
 8001d32:	2220      	movs	r2, #32
 8001d34:	655a      	str	r2, [r3, #84]	; 0x54
      
      /* Change the DMA state */
      hdma->State = HAL_DMA_STATE_TIMEOUT;
 8001d36:	687b      	ldr	r3, [r7, #4]
 8001d38:	2203      	movs	r2, #3
 8001d3a:	f883 2035 	strb.w	r2, [r3, #53]	; 0x35
      
      return HAL_TIMEOUT;
 8001d3e:	2303      	movs	r3, #3
 8001d40:	e078      	b.n	8001e34 <HAL_DMA_Init+0x150>
  while((hdma->Instance->CR & DMA_SxCR_EN) != RESET)
 8001d42:	687b      	ldr	r3, [r7, #4]
 8001d44:	681b      	ldr	r3, [r3, #0]
 8001d46:	681b      	ldr	r3, [r3, #0]
 8001d48:	f003 0301 	and.w	r3, r3, #1
 8001d4c:	2b00      	cmp	r3, #0
 8001d4e:	d1e8      	bne.n	8001d22 <HAL_DMA_Init+0x3e>
    }
  }
  
  /* Get the CR register value */
  tmp = hdma->Instance->CR;
 8001d50:	687b      	ldr	r3, [r7, #4]
 8001d52:	681b      	ldr	r3, [r3, #0]
 8001d54:	681b      	ldr	r3, [r3, #0]
 8001d56:	617b      	str	r3, [r7, #20]

  /* Clear CHSEL, MBURST, PBURST, PL, MSIZE, PSIZE, MINC, PINC, CIRC, DIR, CT and DBM bits */
  tmp &= ((uint32_t)~(DMA_SxCR_CHSEL | DMA_SxCR_MBURST | DMA_SxCR_PBURST | \
 8001d58:	697a      	ldr	r2, [r7, #20]
 8001d5a:	4b38      	ldr	r3, [pc, #224]	; (8001e3c <HAL_DMA_Init+0x158>)
 8001d5c:	4013      	ands	r3, r2
 8001d5e:	617b      	str	r3, [r7, #20]
                      DMA_SxCR_PL    | DMA_SxCR_MSIZE  | DMA_SxCR_PSIZE  | \
                      DMA_SxCR_MINC  | DMA_SxCR_PINC   | DMA_SxCR_CIRC   | \
                      DMA_SxCR_DIR   | DMA_SxCR_CT     | DMA_SxCR_DBM));

  /* Prepare the DMA Stream configuration */
  tmp |=  hdma->Init.Channel             | hdma->Init.Direction        |
 8001d60:	687b      	ldr	r3, [r7, #4]
 8001d62:	685a      	ldr	r2, [r3, #4]
 8001d64:	687b      	ldr	r3, [r7, #4]
 8001d66:	689b      	ldr	r3, [r3, #8]
 8001d68:	431a      	orrs	r2, r3
          hdma->Init.PeriphInc           | hdma->Init.MemInc           |
 8001d6a:	687b      	ldr	r3, [r7, #4]
 8001d6c:	68db      	ldr	r3, [r3, #12]
  tmp |=  hdma->Init.Channel             | hdma->Init.Direction        |
 8001d6e:	431a      	orrs	r2, r3
          hdma->Init.PeriphInc           | hdma->Init.MemInc           |
 8001d70:	687b      	ldr	r3, [r7, #4]
 8001d72:	691b      	ldr	r3, [r3, #16]
 8001d74:	431a      	orrs	r2, r3
          hdma->Init.PeriphDataAlignment | hdma->Init.MemDataAlignment |
 8001d76:	687b      	ldr	r3, [r7, #4]
 8001d78:	695b      	ldr	r3, [r3, #20]
          hdma->Init.PeriphInc           | hdma->Init.MemInc           |
 8001d7a:	431a      	orrs	r2, r3
          hdma->Init.PeriphDataAlignment | hdma->Init.MemDataAlignment |
 8001d7c:	687b      	ldr	r3, [r7, #4]
 8001d7e:	699b      	ldr	r3, [r3, #24]
 8001d80:	431a      	orrs	r2, r3
          hdma->Init.Mode                | hdma->Init.Priority;
 8001d82:	687b      	ldr	r3, [r7, #4]
 8001d84:	69db      	ldr	r3, [r3, #28]
          hdma->Init.PeriphDataAlignment | hdma->Init.MemDataAlignment |
 8001d86:	431a      	orrs	r2, r3
          hdma->Init.Mode                | hdma->Init.Priority;
 8001d88:	687b      	ldr	r3, [r7, #4]
 8001d8a:	6a1b      	ldr	r3, [r3, #32]
 8001d8c:	4313      	orrs	r3, r2
  tmp |=  hdma->Init.Channel             | hdma->Init.Direction        |
 8001d8e:	697a      	ldr	r2, [r7, #20]
 8001d90:	4313      	orrs	r3, r2
 8001d92:	617b      	str	r3, [r7, #20]

  /* the Memory burst and peripheral burst are not used when the FIFO is disabled */
  if(hdma->Init.FIFOMode == DMA_FIFOMODE_ENABLE)
 8001d94:	687b      	ldr	r3, [r7, #4]
 8001d96:	6a5b      	ldr	r3, [r3, #36]	; 0x24
 8001d98:	2b04      	cmp	r3, #4
 8001d9a:	d107      	bne.n	8001dac <HAL_DMA_Init+0xc8>
  {
    /* Get memory burst and peripheral burst */
    tmp |=  hdma->Init.MemBurst | hdma->Init.PeriphBurst;
 8001d9c:	687b      	ldr	r3, [r7, #4]
 8001d9e:	6ada      	ldr	r2, [r3, #44]	; 0x2c
 8001da0:	687b      	ldr	r3, [r7, #4]
 8001da2:	6b1b      	ldr	r3, [r3, #48]	; 0x30
 8001da4:	4313      	orrs	r3, r2
 8001da6:	697a      	ldr	r2, [r7, #20]
 8001da8:	4313      	orrs	r3, r2
 8001daa:	617b      	str	r3, [r7, #20]
  }
  
  /* Write to DMA Stream CR register */
  hdma->Instance->CR = tmp;  
 8001dac:	687b      	ldr	r3, [r7, #4]
 8001dae:	681b      	ldr	r3, [r3, #0]
 8001db0:	697a      	ldr	r2, [r7, #20]
 8001db2:	601a      	str	r2, [r3, #0]

  /* Get the FCR register value */
  tmp = hdma->Instance->FCR;
 8001db4:	687b      	ldr	r3, [r7, #4]
 8001db6:	681b      	ldr	r3, [r3, #0]
 8001db8:	695b      	ldr	r3, [r3, #20]
 8001dba:	617b      	str	r3, [r7, #20]

  /* Clear Direct mode and FIFO threshold bits */
  tmp &= (uint32_t)~(DMA_SxFCR_DMDIS | DMA_SxFCR_FTH);
 8001dbc:	697b      	ldr	r3, [r7, #20]
 8001dbe:	f023 0307 	bic.w	r3, r3, #7
 8001dc2:	617b      	str	r3, [r7, #20]

  /* Prepare the DMA Stream FIFO configuration */
  tmp |= hdma->Init.FIFOMode;
 8001dc4:	687b      	ldr	r3, [r7, #4]
 8001dc6:	6a5b      	ldr	r3, [r3, #36]	; 0x24
 8001dc8:	697a      	ldr	r2, [r7, #20]
 8001dca:	4313      	orrs	r3, r2
 8001dcc:	617b      	str	r3, [r7, #20]

  /* The FIFO threshold is not used when the FIFO mode is disabled */
  if(hdma->Init.FIFOMode == DMA_FIFOMODE_ENABLE)
 8001dce:	687b      	ldr	r3, [r7, #4]
 8001dd0:	6a5b      	ldr	r3, [r3, #36]	; 0x24
 8001dd2:	2b04      	cmp	r3, #4
 8001dd4:	d117      	bne.n	8001e06 <HAL_DMA_Init+0x122>
  {
    /* Get the FIFO threshold */
    tmp |= hdma->Init.FIFOThreshold;
 8001dd6:	687b      	ldr	r3, [r7, #4]
 8001dd8:	6a9b      	ldr	r3, [r3, #40]	; 0x28
 8001dda:	697a      	ldr	r2, [r7, #20]
 8001ddc:	4313      	orrs	r3, r2
 8001dde:	617b      	str	r3, [r7, #20]
    
    /* Check compatibility between FIFO threshold level and size of the memory burst */
    /* for INCR4, INCR8, INCR16 bursts */
    if (hdma->Init.MemBurst != DMA_MBURST_SINGLE)
 8001de0:	687b      	ldr	r3, [r7, #4]
 8001de2:	6adb      	ldr	r3, [r3, #44]	; 0x2c
 8001de4:	2b00      	cmp	r3, #0
 8001de6:	d00e      	beq.n	8001e06 <HAL_DMA_Init+0x122>
    {
      if (DMA_CheckFifoParam(hdma) != HAL_OK)
 8001de8:	6878      	ldr	r0, [r7, #4]
 8001dea:	f000 fa6f 	bl	80022cc <DMA_CheckFifoParam>
 8001dee:	4603      	mov	r3, r0
 8001df0:	2b00      	cmp	r3, #0
 8001df2:	d008      	beq.n	8001e06 <HAL_DMA_Init+0x122>
      {
        /* Update error code */
        hdma->ErrorCode = HAL_DMA_ERROR_PARAM;
 8001df4:	687b      	ldr	r3, [r7, #4]
 8001df6:	2240      	movs	r2, #64	; 0x40
 8001df8:	655a      	str	r2, [r3, #84]	; 0x54
        
        /* Change the DMA state */
        hdma->State = HAL_DMA_STATE_READY;
 8001dfa:	687b      	ldr	r3, [r7, #4]
 8001dfc:	2201      	movs	r2, #1
 8001dfe:	f883 2035 	strb.w	r2, [r3, #53]	; 0x35
        
        return HAL_ERROR; 
 8001e02:	2301      	movs	r3, #1
 8001e04:	e016      	b.n	8001e34 <HAL_DMA_Init+0x150>
      }
    }
  }
  
  /* Write to DMA Stream FCR */
  hdma->Instance->FCR = tmp;
 8001e06:	687b      	ldr	r3, [r7, #4]
 8001e08:	681b      	ldr	r3, [r3, #0]
 8001e0a:	697a      	ldr	r2, [r7, #20]
 8001e0c:	615a      	str	r2, [r3, #20]

  /* Initialize StreamBaseAddress and StreamIndex parameters to be used to calculate
     DMA steam Base Address needed by HAL_DMA_IRQHandler() and HAL_DMA_PollForTransfer() */
  regs = (DMA_Base_Registers *)DMA_CalcBaseAndBitshift(hdma);
 8001e0e:	6878      	ldr	r0, [r7, #4]
 8001e10:	f000 fa26 	bl	8002260 <DMA_CalcBaseAndBitshift>
 8001e14:	4603      	mov	r3, r0
 8001e16:	60fb      	str	r3, [r7, #12]
  
  /* Clear all interrupt flags */
  regs->IFCR = 0x3FU << hdma->StreamIndex;
 8001e18:	687b      	ldr	r3, [r7, #4]
 8001e1a:	6ddb      	ldr	r3, [r3, #92]	; 0x5c
 8001e1c:	223f      	movs	r2, #63	; 0x3f
 8001e1e:	409a      	lsls	r2, r3
 8001e20:	68fb      	ldr	r3, [r7, #12]
 8001e22:	609a      	str	r2, [r3, #8]

  /* Initialize the error code */
  hdma->ErrorCode = HAL_DMA_ERROR_NONE;
 8001e24:	687b      	ldr	r3, [r7, #4]
 8001e26:	2200      	movs	r2, #0
 8001e28:	655a      	str	r2, [r3, #84]	; 0x54
                                                                                     
  /* Initialize the DMA state */
  hdma->State = HAL_DMA_STATE_READY;
 8001e2a:	687b      	ldr	r3, [r7, #4]
 8001e2c:	2201      	movs	r2, #1
 8001e2e:	f883 2035 	strb.w	r2, [r3, #53]	; 0x35

  return HAL_OK;
 8001e32:	2300      	movs	r3, #0
}
 8001e34:	4618      	mov	r0, r3
 8001e36:	3718      	adds	r7, #24
 8001e38:	46bd      	mov	sp, r7
 8001e3a:	bd80      	pop	{r7, pc}
 8001e3c:	f010803f 	.word	0xf010803f

08001e40 <HAL_DMA_Start_IT>:
  * @param  DstAddress The destination memory Buffer address
  * @param  DataLength The length of data to be transferred from source to destination
  * @retval HAL status
  */
HAL_StatusTypeDef HAL_DMA_Start_IT(DMA_HandleTypeDef *hdma, uint32_t SrcAddress, uint32_t DstAddress, uint32_t DataLength)
{
 8001e40:	b580      	push	{r7, lr}
 8001e42:	b086      	sub	sp, #24
 8001e44:	af00      	add	r7, sp, #0
 8001e46:	60f8      	str	r0, [r7, #12]
 8001e48:	60b9      	str	r1, [r7, #8]
 8001e4a:	607a      	str	r2, [r7, #4]
 8001e4c:	603b      	str	r3, [r7, #0]
  HAL_StatusTypeDef status = HAL_OK;
 8001e4e:	2300      	movs	r3, #0
 8001e50:	75fb      	strb	r3, [r7, #23]

  /* calculate DMA base and stream number */
  DMA_Base_Registers *regs = (DMA_Base_Registers *)hdma->StreamBaseAddress;
 8001e52:	68fb      	ldr	r3, [r7, #12]
 8001e54:	6d9b      	ldr	r3, [r3, #88]	; 0x58
 8001e56:	613b      	str	r3, [r7, #16]
  
  /* Check the parameters */
  assert_param(IS_DMA_BUFFER_SIZE(DataLength));
 
  /* Process locked */
  __HAL_LOCK(hdma);
 8001e58:	68fb      	ldr	r3, [r7, #12]
 8001e5a:	f893 3034 	ldrb.w	r3, [r3, #52]	; 0x34
 8001e5e:	2b01      	cmp	r3, #1
 8001e60:	d101      	bne.n	8001e66 <HAL_DMA_Start_IT+0x26>
 8001e62:	2302      	movs	r3, #2
 8001e64:	e040      	b.n	8001ee8 <HAL_DMA_Start_IT+0xa8>
 8001e66:	68fb      	ldr	r3, [r7, #12]
 8001e68:	2201      	movs	r2, #1
 8001e6a:	f883 2034 	strb.w	r2, [r3, #52]	; 0x34
  
  if(HAL_DMA_STATE_READY == hdma->State)
 8001e6e:	68fb      	ldr	r3, [r7, #12]
 8001e70:	f893 3035 	ldrb.w	r3, [r3, #53]	; 0x35
 8001e74:	b2db      	uxtb	r3, r3
 8001e76:	2b01      	cmp	r3, #1
 8001e78:	d12f      	bne.n	8001eda <HAL_DMA_Start_IT+0x9a>
  {
    /* Change DMA peripheral state */
    hdma->State = HAL_DMA_STATE_BUSY;
 8001e7a:	68fb      	ldr	r3, [r7, #12]
 8001e7c:	2202      	movs	r2, #2
 8001e7e:	f883 2035 	strb.w	r2, [r3, #53]	; 0x35
    
    /* Initialize the error code */
    hdma->ErrorCode = HAL_DMA_ERROR_NONE;
 8001e82:	68fb      	ldr	r3, [r7, #12]
 8001e84:	2200      	movs	r2, #0
 8001e86:	655a      	str	r2, [r3, #84]	; 0x54
    
    /* Configure the source, destination address and the data length */
    DMA_SetConfig(hdma, SrcAddress, DstAddress, DataLength);
 8001e88:	683b      	ldr	r3, [r7, #0]
 8001e8a:	687a      	ldr	r2, [r7, #4]
 8001e8c:	68b9      	ldr	r1, [r7, #8]
 8001e8e:	68f8      	ldr	r0, [r7, #12]
 8001e90:	f000 f9b8 	bl	8002204 <DMA_SetConfig>
    
    /* Clear all interrupt flags at correct offset within the register */
    regs->IFCR = 0x3FU << hdma->StreamIndex;
 8001e94:	68fb      	ldr	r3, [r7, #12]
 8001e96:	6ddb      	ldr	r3, [r3, #92]	; 0x5c
 8001e98:	223f      	movs	r2, #63	; 0x3f
 8001e9a:	409a      	lsls	r2, r3
 8001e9c:	693b      	ldr	r3, [r7, #16]
 8001e9e:	609a      	str	r2, [r3, #8]
    
    /* Enable Common interrupts*/
    hdma->Instance->CR  |= DMA_IT_TC | DMA_IT_TE | DMA_IT_DME;
 8001ea0:	68fb      	ldr	r3, [r7, #12]
 8001ea2:	681b      	ldr	r3, [r3, #0]
 8001ea4:	681a      	ldr	r2, [r3, #0]
 8001ea6:	68fb      	ldr	r3, [r7, #12]
 8001ea8:	681b      	ldr	r3, [r3, #0]
 8001eaa:	f042 0216 	orr.w	r2, r2, #22
 8001eae:	601a      	str	r2, [r3, #0]
    
    if(hdma->XferHalfCpltCallback != NULL)
 8001eb0:	68fb      	ldr	r3, [r7, #12]
 8001eb2:	6c1b      	ldr	r3, [r3, #64]	; 0x40
 8001eb4:	2b00      	cmp	r3, #0
 8001eb6:	d007      	beq.n	8001ec8 <HAL_DMA_Start_IT+0x88>
    {
      hdma->Instance->CR  |= DMA_IT_HT;
 8001eb8:	68fb      	ldr	r3, [r7, #12]
 8001eba:	681b      	ldr	r3, [r3, #0]
 8001ebc:	681a      	ldr	r2, [r3, #0]
 8001ebe:	68fb      	ldr	r3, [r7, #12]
 8001ec0:	681b      	ldr	r3, [r3, #0]
 8001ec2:	f042 0208 	orr.w	r2, r2, #8
 8001ec6:	601a      	str	r2, [r3, #0]
    }
    
    /* Enable the Peripheral */
    __HAL_DMA_ENABLE(hdma);
 8001ec8:	68fb      	ldr	r3, [r7, #12]
 8001eca:	681b      	ldr	r3, [r3, #0]
 8001ecc:	681a      	ldr	r2, [r3, #0]
 8001ece:	68fb      	ldr	r3, [r7, #12]
 8001ed0:	681b      	ldr	r3, [r3, #0]
 8001ed2:	f042 0201 	orr.w	r2, r2, #1
 8001ed6:	601a      	str	r2, [r3, #0]
 8001ed8:	e005      	b.n	8001ee6 <HAL_DMA_Start_IT+0xa6>
  }
  else
  {
    /* Process unlocked */
    __HAL_UNLOCK(hdma);	  
 8001eda:	68fb      	ldr	r3, [r7, #12]
 8001edc:	2200      	movs	r2, #0
 8001ede:	f883 2034 	strb.w	r2, [r3, #52]	; 0x34
    
    /* Return error status */
    status = HAL_BUSY;
 8001ee2:	2302      	movs	r3, #2
 8001ee4:	75fb      	strb	r3, [r7, #23]
  }
  
  return status;
 8001ee6:	7dfb      	ldrb	r3, [r7, #23]
}
 8001ee8:	4618      	mov	r0, r3
 8001eea:	3718      	adds	r7, #24
 8001eec:	46bd      	mov	sp, r7
 8001eee:	bd80      	pop	{r7, pc}

08001ef0 <HAL_DMA_IRQHandler>:
  * @param  hdma pointer to a DMA_HandleTypeDef structure that contains
  *               the configuration information for the specified DMA Stream.  
  * @retval None
  */
void HAL_DMA_IRQHandler(DMA_HandleTypeDef *hdma)
{
 8001ef0:	b580      	push	{r7, lr}
 8001ef2:	b086      	sub	sp, #24
 8001ef4:	af00      	add	r7, sp, #0
 8001ef6:	6078      	str	r0, [r7, #4]
  uint32_t tmpisr;
  __IO uint32_t count = 0U;
 8001ef8:	2300      	movs	r3, #0
 8001efa:	60bb      	str	r3, [r7, #8]
  uint32_t timeout = SystemCoreClock / 9600U;
 8001efc:	4b8e      	ldr	r3, [pc, #568]	; (8002138 <HAL_DMA_IRQHandler+0x248>)
 8001efe:	681b      	ldr	r3, [r3, #0]
 8001f00:	4a8e      	ldr	r2, [pc, #568]	; (800213c <HAL_DMA_IRQHandler+0x24c>)
 8001f02:	fba2 2303 	umull	r2, r3, r2, r3
 8001f06:	0a9b      	lsrs	r3, r3, #10
 8001f08:	617b      	str	r3, [r7, #20]

  /* calculate DMA base and stream number */
  DMA_Base_Registers *regs = (DMA_Base_Registers *)hdma->StreamBaseAddress;
 8001f0a:	687b      	ldr	r3, [r7, #4]
 8001f0c:	6d9b      	ldr	r3, [r3, #88]	; 0x58
 8001f0e:	613b      	str	r3, [r7, #16]

  tmpisr = regs->ISR;
 8001f10:	693b      	ldr	r3, [r7, #16]
 8001f12:	681b      	ldr	r3, [r3, #0]
 8001f14:	60fb      	str	r3, [r7, #12]

  /* Transfer Error Interrupt management ***************************************/
  if ((tmpisr & (DMA_FLAG_TEIF0_4 << hdma->StreamIndex)) != RESET)
 8001f16:	687b      	ldr	r3, [r7, #4]
 8001f18:	6ddb      	ldr	r3, [r3, #92]	; 0x5c
 8001f1a:	2208      	movs	r2, #8
 8001f1c:	409a      	lsls	r2, r3
 8001f1e:	68fb      	ldr	r3, [r7, #12]
 8001f20:	4013      	ands	r3, r2
 8001f22:	2b00      	cmp	r3, #0
 8001f24:	d01a      	beq.n	8001f5c <HAL_DMA_IRQHandler+0x6c>
  {
    if(__HAL_DMA_GET_IT_SOURCE(hdma, DMA_IT_TE) != RESET)
 8001f26:	687b      	ldr	r3, [r7, #4]
 8001f28:	681b      	ldr	r3, [r3, #0]
 8001f2a:	681b      	ldr	r3, [r3, #0]
 8001f2c:	f003 0304 	and.w	r3, r3, #4
 8001f30:	2b00      	cmp	r3, #0
 8001f32:	d013      	beq.n	8001f5c <HAL_DMA_IRQHandler+0x6c>
    {
      /* Disable the transfer error interrupt */
      hdma->Instance->CR  &= ~(DMA_IT_TE);
 8001f34:	687b      	ldr	r3, [r7, #4]
 8001f36:	681b      	ldr	r3, [r3, #0]
 8001f38:	681a      	ldr	r2, [r3, #0]
 8001f3a:	687b      	ldr	r3, [r7, #4]
 8001f3c:	681b      	ldr	r3, [r3, #0]
 8001f3e:	f022 0204 	bic.w	r2, r2, #4
 8001f42:	601a      	str	r2, [r3, #0]
      
      /* Clear the transfer error flag */
      regs->IFCR = DMA_FLAG_TEIF0_4 << hdma->StreamIndex;
 8001f44:	687b      	ldr	r3, [r7, #4]
 8001f46:	6ddb      	ldr	r3, [r3, #92]	; 0x5c
 8001f48:	2208      	movs	r2, #8
 8001f4a:	409a      	lsls	r2, r3
 8001f4c:	693b      	ldr	r3, [r7, #16]
 8001f4e:	609a      	str	r2, [r3, #8]
      
      /* Update error code */
      hdma->ErrorCode |= HAL_DMA_ERROR_TE;
 8001f50:	687b      	ldr	r3, [r7, #4]
 8001f52:	6d5b      	ldr	r3, [r3, #84]	; 0x54
 8001f54:	f043 0201 	orr.w	r2, r3, #1
 8001f58:	687b      	ldr	r3, [r7, #4]
 8001f5a:	655a      	str	r2, [r3, #84]	; 0x54
    }
  }
  /* FIFO Error Interrupt management ******************************************/
  if ((tmpisr & (DMA_FLAG_FEIF0_4 << hdma->StreamIndex)) != RESET)
 8001f5c:	687b      	ldr	r3, [r7, #4]
 8001f5e:	6ddb      	ldr	r3, [r3, #92]	; 0x5c
 8001f60:	2201      	movs	r2, #1
 8001f62:	409a      	lsls	r2, r3
 8001f64:	68fb      	ldr	r3, [r7, #12]
 8001f66:	4013      	ands	r3, r2
 8001f68:	2b00      	cmp	r3, #0
 8001f6a:	d012      	beq.n	8001f92 <HAL_DMA_IRQHandler+0xa2>
  {
    if(__HAL_DMA_GET_IT_SOURCE(hdma, DMA_IT_FE) != RESET)
 8001f6c:	687b      	ldr	r3, [r7, #4]
 8001f6e:	681b      	ldr	r3, [r3, #0]
 8001f70:	695b      	ldr	r3, [r3, #20]
 8001f72:	f003 0380 	and.w	r3, r3, #128	; 0x80
 8001f76:	2b00      	cmp	r3, #0
 8001f78:	d00b      	beq.n	8001f92 <HAL_DMA_IRQHandler+0xa2>
    {
      /* Clear the FIFO error flag */
      regs->IFCR = DMA_FLAG_FEIF0_4 << hdma->StreamIndex;
 8001f7a:	687b      	ldr	r3, [r7, #4]
 8001f7c:	6ddb      	ldr	r3, [r3, #92]	; 0x5c
 8001f7e:	2201      	movs	r2, #1
 8001f80:	409a      	lsls	r2, r3
 8001f82:	693b      	ldr	r3, [r7, #16]
 8001f84:	609a      	str	r2, [r3, #8]

      /* Update error code */
      hdma->ErrorCode |= HAL_DMA_ERROR_FE;
 8001f86:	687b      	ldr	r3, [r7, #4]
 8001f88:	6d5b      	ldr	r3, [r3, #84]	; 0x54
 8001f8a:	f043 0202 	orr.w	r2, r3, #2
 8001f8e:	687b      	ldr	r3, [r7, #4]
 8001f90:	655a      	str	r2, [r3, #84]	; 0x54
    }
  }
  /* Direct Mode Error Interrupt management ***********************************/
  if ((tmpisr & (DMA_FLAG_DMEIF0_4 << hdma->StreamIndex)) != RESET)
 8001f92:	687b      	ldr	r3, [r7, #4]
 8001f94:	6ddb      	ldr	r3, [r3, #92]	; 0x5c
 8001f96:	2204      	movs	r2, #4
 8001f98:	409a      	lsls	r2, r3
 8001f9a:	68fb      	ldr	r3, [r7, #12]
 8001f9c:	4013      	ands	r3, r2
 8001f9e:	2b00      	cmp	r3, #0
 8001fa0:	d012      	beq.n	8001fc8 <HAL_DMA_IRQHandler+0xd8>
  {
    if(__HAL_DMA_GET_IT_SOURCE(hdma, DMA_IT_DME) != RESET)
 8001fa2:	687b      	ldr	r3, [r7, #4]
 8001fa4:	681b      	ldr	r3, [r3, #0]
 8001fa6:	681b      	ldr	r3, [r3, #0]
 8001fa8:	f003 0302 	and.w	r3, r3, #2
 8001fac:	2b00      	cmp	r3, #0
 8001fae:	d00b      	beq.n	8001fc8 <HAL_DMA_IRQHandler+0xd8>
    {
      /* Clear the direct mode error flag */
      regs->IFCR = DMA_FLAG_DMEIF0_4 << hdma->StreamIndex;
 8001fb0:	687b      	ldr	r3, [r7, #4]
 8001fb2:	6ddb      	ldr	r3, [r3, #92]	; 0x5c
 8001fb4:	2204      	movs	r2, #4
 8001fb6:	409a      	lsls	r2, r3
 8001fb8:	693b      	ldr	r3, [r7, #16]
 8001fba:	609a      	str	r2, [r3, #8]

      /* Update error code */
      hdma->ErrorCode |= HAL_DMA_ERROR_DME;
 8001fbc:	687b      	ldr	r3, [r7, #4]
 8001fbe:	6d5b      	ldr	r3, [r3, #84]	; 0x54
 8001fc0:	f043 0204 	orr.w	r2, r3, #4
 8001fc4:	687b      	ldr	r3, [r7, #4]
 8001fc6:	655a      	str	r2, [r3, #84]	; 0x54
    }
  }
  /* Half Transfer Complete Interrupt management ******************************/
  if ((tmpisr & (DMA_FLAG_HTIF0_4 << hdma->StreamIndex)) != RESET)
 8001fc8:	687b      	ldr	r3, [r7, #4]
 8001fca:	6ddb      	ldr	r3, [r3, #92]	; 0x5c
 8001fcc:	2210      	movs	r2, #16
 8001fce:	409a      	lsls	r2, r3
 8001fd0:	68fb      	ldr	r3, [r7, #12]
 8001fd2:	4013      	ands	r3, r2
 8001fd4:	2b00      	cmp	r3, #0
 8001fd6:	d043      	beq.n	8002060 <HAL_DMA_IRQHandler+0x170>
  {
    if(__HAL_DMA_GET_IT_SOURCE(hdma, DMA_IT_HT) != RESET)
 8001fd8:	687b      	ldr	r3, [r7, #4]
 8001fda:	681b      	ldr	r3, [r3, #0]
 8001fdc:	681b      	ldr	r3, [r3, #0]
 8001fde:	f003 0308 	and.w	r3, r3, #8
 8001fe2:	2b00      	cmp	r3, #0
 8001fe4:	d03c      	beq.n	8002060 <HAL_DMA_IRQHandler+0x170>
    {
      /* Clear the half transfer complete flag */
      regs->IFCR = DMA_FLAG_HTIF0_4 << hdma->StreamIndex;
 8001fe6:	687b      	ldr	r3, [r7, #4]
 8001fe8:	6ddb      	ldr	r3, [r3, #92]	; 0x5c
 8001fea:	2210      	movs	r2, #16
 8001fec:	409a      	lsls	r2, r3
 8001fee:	693b      	ldr	r3, [r7, #16]
 8001ff0:	609a      	str	r2, [r3, #8]
      
      /* Multi_Buffering mode enabled */
      if(((hdma->Instance->CR) & (uint32_t)(DMA_SxCR_DBM)) != RESET)
 8001ff2:	687b      	ldr	r3, [r7, #4]
 8001ff4:	681b      	ldr	r3, [r3, #0]
 8001ff6:	681b      	ldr	r3, [r3, #0]
 8001ff8:	f403 2380 	and.w	r3, r3, #262144	; 0x40000
 8001ffc:	2b00      	cmp	r3, #0
 8001ffe:	d018      	beq.n	8002032 <HAL_DMA_IRQHandler+0x142>
      {
        /* Current memory buffer used is Memory 0 */
        if((hdma->Instance->CR & DMA_SxCR_CT) == RESET)
 8002000:	687b      	ldr	r3, [r7, #4]
 8002002:	681b      	ldr	r3, [r3, #0]
 8002004:	681b      	ldr	r3, [r3, #0]
 8002006:	f403 2300 	and.w	r3, r3, #524288	; 0x80000
 800200a:	2b00      	cmp	r3, #0
 800200c:	d108      	bne.n	8002020 <HAL_DMA_IRQHandler+0x130>
        {
          if(hdma->XferHalfCpltCallback != NULL)
 800200e:	687b      	ldr	r3, [r7, #4]
 8002010:	6c1b      	ldr	r3, [r3, #64]	; 0x40
 8002012:	2b00      	cmp	r3, #0
 8002014:	d024      	beq.n	8002060 <HAL_DMA_IRQHandler+0x170>
          {
            /* Half transfer callback */
            hdma->XferHalfCpltCallback(hdma);
 8002016:	687b      	ldr	r3, [r7, #4]
 8002018:	6c1b      	ldr	r3, [r3, #64]	; 0x40
 800201a:	6878      	ldr	r0, [r7, #4]
 800201c:	4798      	blx	r3
 800201e:	e01f      	b.n	8002060 <HAL_DMA_IRQHandler+0x170>
          }
        }
        /* Current memory buffer used is Memory 1 */
        else
        {
          if(hdma->XferM1HalfCpltCallback != NULL)
 8002020:	687b      	ldr	r3, [r7, #4]
 8002022:	6c9b      	ldr	r3, [r3, #72]	; 0x48
 8002024:	2b00      	cmp	r3, #0
 8002026:	d01b      	beq.n	8002060 <HAL_DMA_IRQHandler+0x170>
          {
            /* Half transfer callback */
            hdma->XferM1HalfCpltCallback(hdma);
 8002028:	687b      	ldr	r3, [r7, #4]
 800202a:	6c9b      	ldr	r3, [r3, #72]	; 0x48
 800202c:	6878      	ldr	r0, [r7, #4]
 800202e:	4798      	blx	r3
 8002030:	e016      	b.n	8002060 <HAL_DMA_IRQHandler+0x170>
        }
      }
      else
      {
        /* Disable the half transfer interrupt if the DMA mode is not CIRCULAR */
        if((hdma->Instance->CR & DMA_SxCR_CIRC) == RESET)
 8002032:	687b      	ldr	r3, [r7, #4]
 8002034:	681b      	ldr	r3, [r3, #0]
 8002036:	681b      	ldr	r3, [r3, #0]
 8002038:	f403 7380 	and.w	r3, r3, #256	; 0x100
 800203c:	2b00      	cmp	r3, #0
 800203e:	d107      	bne.n	8002050 <HAL_DMA_IRQHandler+0x160>
        {
          /* Disable the half transfer interrupt */
          hdma->Instance->CR  &= ~(DMA_IT_HT);
 8002040:	687b      	ldr	r3, [r7, #4]
 8002042:	681b      	ldr	r3, [r3, #0]
 8002044:	681a      	ldr	r2, [r3, #0]
 8002046:	687b      	ldr	r3, [r7, #4]
 8002048:	681b      	ldr	r3, [r3, #0]
 800204a:	f022 0208 	bic.w	r2, r2, #8
 800204e:	601a      	str	r2, [r3, #0]
        }
        
        if(hdma->XferHalfCpltCallback != NULL)
 8002050:	687b      	ldr	r3, [r7, #4]
 8002052:	6c1b      	ldr	r3, [r3, #64]	; 0x40
 8002054:	2b00      	cmp	r3, #0
 8002056:	d003      	beq.n	8002060 <HAL_DMA_IRQHandler+0x170>
        {
          /* Half transfer callback */
          hdma->XferHalfCpltCallback(hdma);
 8002058:	687b      	ldr	r3, [r7, #4]
 800205a:	6c1b      	ldr	r3, [r3, #64]	; 0x40
 800205c:	6878      	ldr	r0, [r7, #4]
 800205e:	4798      	blx	r3
        }
      }
    }
  }
  /* Transfer Complete Interrupt management ***********************************/
  if ((tmpisr & (DMA_FLAG_TCIF0_4 << hdma->StreamIndex)) != RESET)
 8002060:	687b      	ldr	r3, [r7, #4]
 8002062:	6ddb      	ldr	r3, [r3, #92]	; 0x5c
 8002064:	2220      	movs	r2, #32
 8002066:	409a      	lsls	r2, r3
 8002068:	68fb      	ldr	r3, [r7, #12]
 800206a:	4013      	ands	r3, r2
 800206c:	2b00      	cmp	r3, #0
 800206e:	f000 808f 	beq.w	8002190 <HAL_DMA_IRQHandler+0x2a0>
  {
    if(__HAL_DMA_GET_IT_SOURCE(hdma, DMA_IT_TC) != RESET)
 8002072:	687b      	ldr	r3, [r7, #4]
 8002074:	681b      	ldr	r3, [r3, #0]
 8002076:	681b      	ldr	r3, [r3, #0]
 8002078:	f003 0310 	and.w	r3, r3, #16
 800207c:	2b00      	cmp	r3, #0
 800207e:	f000 8087 	beq.w	8002190 <HAL_DMA_IRQHandler+0x2a0>
    {
      /* Clear the transfer complete flag */
      regs->IFCR = DMA_FLAG_TCIF0_4 << hdma->StreamIndex;
 8002082:	687b      	ldr	r3, [r7, #4]
 8002084:	6ddb      	ldr	r3, [r3, #92]	; 0x5c
 8002086:	2220      	movs	r2, #32
 8002088:	409a      	lsls	r2, r3
 800208a:	693b      	ldr	r3, [r7, #16]
 800208c:	609a      	str	r2, [r3, #8]
      
      if(HAL_DMA_STATE_ABORT == hdma->State)
 800208e:	687b      	ldr	r3, [r7, #4]
 8002090:	f893 3035 	ldrb.w	r3, [r3, #53]	; 0x35
 8002094:	b2db      	uxtb	r3, r3
 8002096:	2b05      	cmp	r3, #5
 8002098:	d136      	bne.n	8002108 <HAL_DMA_IRQHandler+0x218>
      {
        /* Disable all the transfer interrupts */
        hdma->Instance->CR  &= ~(DMA_IT_TC | DMA_IT_TE | DMA_IT_DME);
 800209a:	687b      	ldr	r3, [r7, #4]
 800209c:	681b      	ldr	r3, [r3, #0]
 800209e:	681a      	ldr	r2, [r3, #0]
 80020a0:	687b      	ldr	r3, [r7, #4]
 80020a2:	681b      	ldr	r3, [r3, #0]
 80020a4:	f022 0216 	bic.w	r2, r2, #22
 80020a8:	601a      	str	r2, [r3, #0]
        hdma->Instance->FCR &= ~(DMA_IT_FE);
 80020aa:	687b      	ldr	r3, [r7, #4]
 80020ac:	681b      	ldr	r3, [r3, #0]
 80020ae:	695a      	ldr	r2, [r3, #20]
 80020b0:	687b      	ldr	r3, [r7, #4]
 80020b2:	681b      	ldr	r3, [r3, #0]
 80020b4:	f022 0280 	bic.w	r2, r2, #128	; 0x80
 80020b8:	615a      	str	r2, [r3, #20]
        
        if((hdma->XferHalfCpltCallback != NULL) || (hdma->XferM1HalfCpltCallback != NULL))
 80020ba:	687b      	ldr	r3, [r7, #4]
 80020bc:	6c1b      	ldr	r3, [r3, #64]	; 0x40
 80020be:	2b00      	cmp	r3, #0
 80020c0:	d103      	bne.n	80020ca <HAL_DMA_IRQHandler+0x1da>
 80020c2:	687b      	ldr	r3, [r7, #4]
 80020c4:	6c9b      	ldr	r3, [r3, #72]	; 0x48
 80020c6:	2b00      	cmp	r3, #0
 80020c8:	d007      	beq.n	80020da <HAL_DMA_IRQHandler+0x1ea>
        {
          hdma->Instance->CR  &= ~(DMA_IT_HT);
 80020ca:	687b      	ldr	r3, [r7, #4]
 80020cc:	681b      	ldr	r3, [r3, #0]
 80020ce:	681a      	ldr	r2, [r3, #0]
 80020d0:	687b      	ldr	r3, [r7, #4]
 80020d2:	681b      	ldr	r3, [r3, #0]
 80020d4:	f022 0208 	bic.w	r2, r2, #8
 80020d8:	601a      	str	r2, [r3, #0]
        }

        /* Clear all interrupt flags at correct offset within the register */
        regs->IFCR = 0x3FU << hdma->StreamIndex;
 80020da:	687b      	ldr	r3, [r7, #4]
 80020dc:	6ddb      	ldr	r3, [r3, #92]	; 0x5c
 80020de:	223f      	movs	r2, #63	; 0x3f
 80020e0:	409a      	lsls	r2, r3
 80020e2:	693b      	ldr	r3, [r7, #16]
 80020e4:	609a      	str	r2, [r3, #8]

        /* Change the DMA state */
        hdma->State = HAL_DMA_STATE_READY;
 80020e6:	687b      	ldr	r3, [r7, #4]
 80020e8:	2201      	movs	r2, #1
 80020ea:	f883 2035 	strb.w	r2, [r3, #53]	; 0x35

        /* Process Unlocked */
        __HAL_UNLOCK(hdma);
 80020ee:	687b      	ldr	r3, [r7, #4]
 80020f0:	2200      	movs	r2, #0
 80020f2:	f883 2034 	strb.w	r2, [r3, #52]	; 0x34

        if(hdma->XferAbortCallback != NULL)
 80020f6:	687b      	ldr	r3, [r7, #4]
 80020f8:	6d1b      	ldr	r3, [r3, #80]	; 0x50
 80020fa:	2b00      	cmp	r3, #0
 80020fc:	d07e      	beq.n	80021fc <HAL_DMA_IRQHandler+0x30c>
        {
          hdma->XferAbortCallback(hdma);
 80020fe:	687b      	ldr	r3, [r7, #4]
 8002100:	6d1b      	ldr	r3, [r3, #80]	; 0x50
 8002102:	6878      	ldr	r0, [r7, #4]
 8002104:	4798      	blx	r3
        }
        return;
 8002106:	e079      	b.n	80021fc <HAL_DMA_IRQHandler+0x30c>
      }

      if(((hdma->Instance->CR) & (uint32_t)(DMA_SxCR_DBM)) != RESET)
 8002108:	687b      	ldr	r3, [r7, #4]
 800210a:	681b      	ldr	r3, [r3, #0]
 800210c:	681b      	ldr	r3, [r3, #0]
 800210e:	f403 2380 	and.w	r3, r3, #262144	; 0x40000
 8002112:	2b00      	cmp	r3, #0
 8002114:	d01d      	beq.n	8002152 <HAL_DMA_IRQHandler+0x262>
      {
        /* Current memory buffer used is Memory 0 */
        if((hdma->Instance->CR & DMA_SxCR_CT) == RESET)
 8002116:	687b      	ldr	r3, [r7, #4]
 8002118:	681b      	ldr	r3, [r3, #0]
 800211a:	681b      	ldr	r3, [r3, #0]
 800211c:	f403 2300 	and.w	r3, r3, #524288	; 0x80000
 8002120:	2b00      	cmp	r3, #0
 8002122:	d10d      	bne.n	8002140 <HAL_DMA_IRQHandler+0x250>
        {
          if(hdma->XferM1CpltCallback != NULL)
 8002124:	687b      	ldr	r3, [r7, #4]
 8002126:	6c5b      	ldr	r3, [r3, #68]	; 0x44
 8002128:	2b00      	cmp	r3, #0
 800212a:	d031      	beq.n	8002190 <HAL_DMA_IRQHandler+0x2a0>
          {
            /* Transfer complete Callback for memory1 */
            hdma->XferM1CpltCallback(hdma);
 800212c:	687b      	ldr	r3, [r7, #4]
 800212e:	6c5b      	ldr	r3, [r3, #68]	; 0x44
 8002130:	6878      	ldr	r0, [r7, #4]
 8002132:	4798      	blx	r3
 8002134:	e02c      	b.n	8002190 <HAL_DMA_IRQHandler+0x2a0>
 8002136:	bf00      	nop
 8002138:	20000000 	.word	0x20000000
 800213c:	1b4e81b5 	.word	0x1b4e81b5
          }
        }
        /* Current memory buffer used is Memory 1 */
        else
        {
          if(hdma->XferCpltCallback != NULL)
 8002140:	687b      	ldr	r3, [r7, #4]
 8002142:	6bdb      	ldr	r3, [r3, #60]	; 0x3c
 8002144:	2b00      	cmp	r3, #0
 8002146:	d023      	beq.n	8002190 <HAL_DMA_IRQHandler+0x2a0>
          {
            /* Transfer complete Callback for memory0 */
            hdma->XferCpltCallback(hdma);
 8002148:	687b      	ldr	r3, [r7, #4]
 800214a:	6bdb      	ldr	r3, [r3, #60]	; 0x3c
 800214c:	6878      	ldr	r0, [r7, #4]
 800214e:	4798      	blx	r3
 8002150:	e01e      	b.n	8002190 <HAL_DMA_IRQHandler+0x2a0>
        }
      }
      /* Disable the transfer complete interrupt if the DMA mode is not CIRCULAR */
      else
      {
        if((hdma->Instance->CR & DMA_SxCR_CIRC) == RESET)
 8002152:	687b      	ldr	r3, [r7, #4]
 8002154:	681b      	ldr	r3, [r3, #0]
 8002156:	681b      	ldr	r3, [r3, #0]
 8002158:	f403 7380 	and.w	r3, r3, #256	; 0x100
 800215c:	2b00      	cmp	r3, #0
 800215e:	d10f      	bne.n	8002180 <HAL_DMA_IRQHandler+0x290>
        {
          /* Disable the transfer complete interrupt */
          hdma->Instance->CR  &= ~(DMA_IT_TC);
 8002160:	687b      	ldr	r3, [r7, #4]
 8002162:	681b      	ldr	r3, [r3, #0]
 8002164:	681a      	ldr	r2, [r3, #0]
 8002166:	687b      	ldr	r3, [r7, #4]
 8002168:	681b      	ldr	r3, [r3, #0]
 800216a:	f022 0210 	bic.w	r2, r2, #16
 800216e:	601a      	str	r2, [r3, #0]

          /* Change the DMA state */
          hdma->State = HAL_DMA_STATE_READY;
 8002170:	687b      	ldr	r3, [r7, #4]
 8002172:	2201      	movs	r2, #1
 8002174:	f883 2035 	strb.w	r2, [r3, #53]	; 0x35

          /* Process Unlocked */
          __HAL_UNLOCK(hdma);
 8002178:	687b      	ldr	r3, [r7, #4]
 800217a:	2200      	movs	r2, #0
 800217c:	f883 2034 	strb.w	r2, [r3, #52]	; 0x34
        }

        if(hdma->XferCpltCallback != NULL)
 8002180:	687b      	ldr	r3, [r7, #4]
 8002182:	6bdb      	ldr	r3, [r3, #60]	; 0x3c
 8002184:	2b00      	cmp	r3, #0
 8002186:	d003      	beq.n	8002190 <HAL_DMA_IRQHandler+0x2a0>
        {
          /* Transfer complete callback */
          hdma->XferCpltCallback(hdma);
 8002188:	687b      	ldr	r3, [r7, #4]
 800218a:	6bdb      	ldr	r3, [r3, #60]	; 0x3c
 800218c:	6878      	ldr	r0, [r7, #4]
 800218e:	4798      	blx	r3
      }
    }
  }
  
  /* manage error case */
  if(hdma->ErrorCode != HAL_DMA_ERROR_NONE)
 8002190:	687b      	ldr	r3, [r7, #4]
 8002192:	6d5b      	ldr	r3, [r3, #84]	; 0x54
 8002194:	2b00      	cmp	r3, #0
 8002196:	d032      	beq.n	80021fe <HAL_DMA_IRQHandler+0x30e>
  {
    if((hdma->ErrorCode & HAL_DMA_ERROR_TE) != RESET)
 8002198:	687b      	ldr	r3, [r7, #4]
 800219a:	6d5b      	ldr	r3, [r3, #84]	; 0x54
 800219c:	f003 0301 	and.w	r3, r3, #1
 80021a0:	2b00      	cmp	r3, #0
 80021a2:	d022      	beq.n	80021ea <HAL_DMA_IRQHandler+0x2fa>
    {
      hdma->State = HAL_DMA_STATE_ABORT;
 80021a4:	687b      	ldr	r3, [r7, #4]
 80021a6:	2205      	movs	r2, #5
 80021a8:	f883 2035 	strb.w	r2, [r3, #53]	; 0x35

      /* Disable the stream */
      __HAL_DMA_DISABLE(hdma);
 80021ac:	687b      	ldr	r3, [r7, #4]
 80021ae:	681b      	ldr	r3, [r3, #0]
 80021b0:	681a      	ldr	r2, [r3, #0]
 80021b2:	687b      	ldr	r3, [r7, #4]
 80021b4:	681b      	ldr	r3, [r3, #0]
 80021b6:	f022 0201 	bic.w	r2, r2, #1
 80021ba:	601a      	str	r2, [r3, #0]

      do
      {
        if (++count > timeout)
 80021bc:	68bb      	ldr	r3, [r7, #8]
 80021be:	3301      	adds	r3, #1
 80021c0:	60bb      	str	r3, [r7, #8]
 80021c2:	697a      	ldr	r2, [r7, #20]
 80021c4:	429a      	cmp	r2, r3
 80021c6:	d307      	bcc.n	80021d8 <HAL_DMA_IRQHandler+0x2e8>
        {
          break;
        }
      }
      while((hdma->Instance->CR & DMA_SxCR_EN) != RESET);
 80021c8:	687b      	ldr	r3, [r7, #4]
 80021ca:	681b      	ldr	r3, [r3, #0]
 80021cc:	681b      	ldr	r3, [r3, #0]
 80021ce:	f003 0301 	and.w	r3, r3, #1
 80021d2:	2b00      	cmp	r3, #0
 80021d4:	d1f2      	bne.n	80021bc <HAL_DMA_IRQHandler+0x2cc>
 80021d6:	e000      	b.n	80021da <HAL_DMA_IRQHandler+0x2ea>
          break;
 80021d8:	bf00      	nop

      /* Change the DMA state */
      hdma->State = HAL_DMA_STATE_READY;
 80021da:	687b      	ldr	r3, [r7, #4]
 80021dc:	2201      	movs	r2, #1
 80021de:	f883 2035 	strb.w	r2, [r3, #53]	; 0x35

      /* Process Unlocked */
      __HAL_UNLOCK(hdma);
 80021e2:	687b      	ldr	r3, [r7, #4]
 80021e4:	2200      	movs	r2, #0
 80021e6:	f883 2034 	strb.w	r2, [r3, #52]	; 0x34
    }

    if(hdma->XferErrorCallback != NULL)
 80021ea:	687b      	ldr	r3, [r7, #4]
 80021ec:	6cdb      	ldr	r3, [r3, #76]	; 0x4c
 80021ee:	2b00      	cmp	r3, #0
 80021f0:	d005      	beq.n	80021fe <HAL_DMA_IRQHandler+0x30e>
    {
      /* Transfer error callback */
      hdma->XferErrorCallback(hdma);
 80021f2:	687b      	ldr	r3, [r7, #4]
 80021f4:	6cdb      	ldr	r3, [r3, #76]	; 0x4c
 80021f6:	6878      	ldr	r0, [r7, #4]
 80021f8:	4798      	blx	r3
 80021fa:	e000      	b.n	80021fe <HAL_DMA_IRQHandler+0x30e>
        return;
 80021fc:	bf00      	nop
    }
  }
}
 80021fe:	3718      	adds	r7, #24
 8002200:	46bd      	mov	sp, r7
 8002202:	bd80      	pop	{r7, pc}

08002204 <DMA_SetConfig>:
  * @param  DstAddress The destination memory Buffer address
  * @param  DataLength The length of data to be transferred from source to destination
  * @retval HAL status
  */
static void DMA_SetConfig(DMA_HandleTypeDef *hdma, uint32_t SrcAddress, uint32_t DstAddress, uint32_t DataLength)
{
 8002204:	b480      	push	{r7}
 8002206:	b085      	sub	sp, #20
 8002208:	af00      	add	r7, sp, #0
 800220a:	60f8      	str	r0, [r7, #12]
 800220c:	60b9      	str	r1, [r7, #8]
 800220e:	607a      	str	r2, [r7, #4]
 8002210:	603b      	str	r3, [r7, #0]
  /* Clear DBM bit */
  hdma->Instance->CR &= (uint32_t)(~DMA_SxCR_DBM);
 8002212:	68fb      	ldr	r3, [r7, #12]
 8002214:	681b      	ldr	r3, [r3, #0]
 8002216:	681a      	ldr	r2, [r3, #0]
 8002218:	68fb      	ldr	r3, [r7, #12]
 800221a:	681b      	ldr	r3, [r3, #0]
 800221c:	f422 2280 	bic.w	r2, r2, #262144	; 0x40000
 8002220:	601a      	str	r2, [r3, #0]

  /* Configure DMA Stream data length */
  hdma->Instance->NDTR = DataLength;
 8002222:	68fb      	ldr	r3, [r7, #12]
 8002224:	681b      	ldr	r3, [r3, #0]
 8002226:	683a      	ldr	r2, [r7, #0]
 8002228:	605a      	str	r2, [r3, #4]

  /* Memory to Peripheral */
  if((hdma->Init.Direction) == DMA_MEMORY_TO_PERIPH)
 800222a:	68fb      	ldr	r3, [r7, #12]
 800222c:	689b      	ldr	r3, [r3, #8]
 800222e:	2b40      	cmp	r3, #64	; 0x40
 8002230:	d108      	bne.n	8002244 <DMA_SetConfig+0x40>
  {
    /* Configure DMA Stream destination address */
    hdma->Instance->PAR = DstAddress;
 8002232:	68fb      	ldr	r3, [r7, #12]
 8002234:	681b      	ldr	r3, [r3, #0]
 8002236:	687a      	ldr	r2, [r7, #4]
 8002238:	609a      	str	r2, [r3, #8]

    /* Configure DMA Stream source address */
    hdma->Instance->M0AR = SrcAddress;
 800223a:	68fb      	ldr	r3, [r7, #12]
 800223c:	681b      	ldr	r3, [r3, #0]
 800223e:	68ba      	ldr	r2, [r7, #8]
 8002240:	60da      	str	r2, [r3, #12]
    hdma->Instance->PAR = SrcAddress;

    /* Configure DMA Stream destination address */
    hdma->Instance->M0AR = DstAddress;
  }
}
 8002242:	e007      	b.n	8002254 <DMA_SetConfig+0x50>
    hdma->Instance->PAR = SrcAddress;
 8002244:	68fb      	ldr	r3, [r7, #12]
 8002246:	681b      	ldr	r3, [r3, #0]
 8002248:	68ba      	ldr	r2, [r7, #8]
 800224a:	609a      	str	r2, [r3, #8]
    hdma->Instance->M0AR = DstAddress;
 800224c:	68fb      	ldr	r3, [r7, #12]
 800224e:	681b      	ldr	r3, [r3, #0]
 8002250:	687a      	ldr	r2, [r7, #4]
 8002252:	60da      	str	r2, [r3, #12]
}
 8002254:	bf00      	nop
 8002256:	3714      	adds	r7, #20
 8002258:	46bd      	mov	sp, r7
 800225a:	f85d 7b04 	ldr.w	r7, [sp], #4
 800225e:	4770      	bx	lr

08002260 <DMA_CalcBaseAndBitshift>:
  * @param  hdma       pointer to a DMA_HandleTypeDef structure that contains
  *                     the configuration information for the specified DMA Stream. 
  * @retval Stream base address
  */
static uint32_t DMA_CalcBaseAndBitshift(DMA_HandleTypeDef *hdma)
{
 8002260:	b480      	push	{r7}
 8002262:	b085      	sub	sp, #20
 8002264:	af00      	add	r7, sp, #0
 8002266:	6078      	str	r0, [r7, #4]
  uint32_t stream_number = (((uint32_t)hdma->Instance & 0xFFU) - 16U) / 24U;
 8002268:	687b      	ldr	r3, [r7, #4]
 800226a:	681b      	ldr	r3, [r3, #0]
 800226c:	b2db      	uxtb	r3, r3
 800226e:	3b10      	subs	r3, #16
 8002270:	4a14      	ldr	r2, [pc, #80]	; (80022c4 <DMA_CalcBaseAndBitshift+0x64>)
 8002272:	fba2 2303 	umull	r2, r3, r2, r3
 8002276:	091b      	lsrs	r3, r3, #4
 8002278:	60fb      	str	r3, [r7, #12]
  
  /* lookup table for necessary bitshift of flags within status registers */
  static const uint8_t flagBitshiftOffset[8U] = {0U, 6U, 16U, 22U, 0U, 6U, 16U, 22U};
  hdma->StreamIndex = flagBitshiftOffset[stream_number];
 800227a:	4a13      	ldr	r2, [pc, #76]	; (80022c8 <DMA_CalcBaseAndBitshift+0x68>)
 800227c:	68fb      	ldr	r3, [r7, #12]
 800227e:	4413      	add	r3, r2
 8002280:	781b      	ldrb	r3, [r3, #0]
 8002282:	461a      	mov	r2, r3
 8002284:	687b      	ldr	r3, [r7, #4]
 8002286:	65da      	str	r2, [r3, #92]	; 0x5c
  
  if (stream_number > 3U)
 8002288:	68fb      	ldr	r3, [r7, #12]
 800228a:	2b03      	cmp	r3, #3
 800228c:	d909      	bls.n	80022a2 <DMA_CalcBaseAndBitshift+0x42>
  {
    /* return pointer to HISR and HIFCR */
    hdma->StreamBaseAddress = (((uint32_t)hdma->Instance & (uint32_t)(~0x3FFU)) + 4U);
 800228e:	687b      	ldr	r3, [r7, #4]
 8002290:	681b      	ldr	r3, [r3, #0]
 8002292:	f423 737f 	bic.w	r3, r3, #1020	; 0x3fc
 8002296:	f023 0303 	bic.w	r3, r3, #3
 800229a:	1d1a      	adds	r2, r3, #4
 800229c:	687b      	ldr	r3, [r7, #4]
 800229e:	659a      	str	r2, [r3, #88]	; 0x58
 80022a0:	e007      	b.n	80022b2 <DMA_CalcBaseAndBitshift+0x52>
  }
  else
  {
    /* return pointer to LISR and LIFCR */
    hdma->StreamBaseAddress = ((uint32_t)hdma->Instance & (uint32_t)(~0x3FFU));
 80022a2:	687b      	ldr	r3, [r7, #4]
 80022a4:	681b      	ldr	r3, [r3, #0]
 80022a6:	f423 737f 	bic.w	r3, r3, #1020	; 0x3fc
 80022aa:	f023 0303 	bic.w	r3, r3, #3
 80022ae:	687a      	ldr	r2, [r7, #4]
 80022b0:	6593      	str	r3, [r2, #88]	; 0x58
  }
  
  return hdma->StreamBaseAddress;
 80022b2:	687b      	ldr	r3, [r7, #4]
 80022b4:	6d9b      	ldr	r3, [r3, #88]	; 0x58
}
 80022b6:	4618      	mov	r0, r3
 80022b8:	3714      	adds	r7, #20
 80022ba:	46bd      	mov	sp, r7
 80022bc:	f85d 7b04 	ldr.w	r7, [sp], #4
 80022c0:	4770      	bx	lr
 80022c2:	bf00      	nop
 80022c4:	aaaaaaab 	.word	0xaaaaaaab
 80022c8:	080091e0 	.word	0x080091e0

080022cc <DMA_CheckFifoParam>:
  * @param  hdma       pointer to a DMA_HandleTypeDef structure that contains
  *                     the configuration information for the specified DMA Stream. 
  * @retval HAL status
  */
static HAL_StatusTypeDef DMA_CheckFifoParam(DMA_HandleTypeDef *hdma)
{
 80022cc:	b480      	push	{r7}
 80022ce:	b085      	sub	sp, #20
 80022d0:	af00      	add	r7, sp, #0
 80022d2:	6078      	str	r0, [r7, #4]
  HAL_StatusTypeDef status = HAL_OK;
 80022d4:	2300      	movs	r3, #0
 80022d6:	73fb      	strb	r3, [r7, #15]
  uint32_t tmp = hdma->Init.FIFOThreshold;
 80022d8:	687b      	ldr	r3, [r7, #4]
 80022da:	6a9b      	ldr	r3, [r3, #40]	; 0x28
 80022dc:	60bb      	str	r3, [r7, #8]
  
  /* Memory Data size equal to Byte */
  if(hdma->Init.MemDataAlignment == DMA_MDATAALIGN_BYTE)
 80022de:	687b      	ldr	r3, [r7, #4]
 80022e0:	699b      	ldr	r3, [r3, #24]
 80022e2:	2b00      	cmp	r3, #0
 80022e4:	d11f      	bne.n	8002326 <DMA_CheckFifoParam+0x5a>
  {
    switch (tmp)
 80022e6:	68bb      	ldr	r3, [r7, #8]
 80022e8:	2b03      	cmp	r3, #3
 80022ea:	d856      	bhi.n	800239a <DMA_CheckFifoParam+0xce>
 80022ec:	a201      	add	r2, pc, #4	; (adr r2, 80022f4 <DMA_CheckFifoParam+0x28>)
 80022ee:	f852 f023 	ldr.w	pc, [r2, r3, lsl #2]
 80022f2:	bf00      	nop
 80022f4:	08002305 	.word	0x08002305
 80022f8:	08002317 	.word	0x08002317
 80022fc:	08002305 	.word	0x08002305
 8002300:	0800239b 	.word	0x0800239b
    {
    case DMA_FIFO_THRESHOLD_1QUARTERFULL:
    case DMA_FIFO_THRESHOLD_3QUARTERSFULL:
      if ((hdma->Init.MemBurst & DMA_SxCR_MBURST_1) == DMA_SxCR_MBURST_1)
 8002304:	687b      	ldr	r3, [r7, #4]
 8002306:	6adb      	ldr	r3, [r3, #44]	; 0x2c
 8002308:	f003 7380 	and.w	r3, r3, #16777216	; 0x1000000
 800230c:	2b00      	cmp	r3, #0
 800230e:	d046      	beq.n	800239e <DMA_CheckFifoParam+0xd2>
      {
        status = HAL_ERROR;
 8002310:	2301      	movs	r3, #1
 8002312:	73fb      	strb	r3, [r7, #15]
      }
      break;
 8002314:	e043      	b.n	800239e <DMA_CheckFifoParam+0xd2>
    case DMA_FIFO_THRESHOLD_HALFFULL:
      if (hdma->Init.MemBurst == DMA_MBURST_INC16)
 8002316:	687b      	ldr	r3, [r7, #4]
 8002318:	6adb      	ldr	r3, [r3, #44]	; 0x2c
 800231a:	f1b3 7fc0 	cmp.w	r3, #25165824	; 0x1800000
 800231e:	d140      	bne.n	80023a2 <DMA_CheckFifoParam+0xd6>
      {
        status = HAL_ERROR;
 8002320:	2301      	movs	r3, #1
 8002322:	73fb      	strb	r3, [r7, #15]
      }
      break;
 8002324:	e03d      	b.n	80023a2 <DMA_CheckFifoParam+0xd6>
      break;
    }
  }
  
  /* Memory Data size equal to Half-Word */
  else if (hdma->Init.MemDataAlignment == DMA_MDATAALIGN_HALFWORD)
 8002326:	687b      	ldr	r3, [r7, #4]
 8002328:	699b      	ldr	r3, [r3, #24]
 800232a:	f5b3 5f00 	cmp.w	r3, #8192	; 0x2000
 800232e:	d121      	bne.n	8002374 <DMA_CheckFifoParam+0xa8>
  {
    switch (tmp)
 8002330:	68bb      	ldr	r3, [r7, #8]
 8002332:	2b03      	cmp	r3, #3
 8002334:	d837      	bhi.n	80023a6 <DMA_CheckFifoParam+0xda>
 8002336:	a201      	add	r2, pc, #4	; (adr r2, 800233c <DMA_CheckFifoParam+0x70>)
 8002338:	f852 f023 	ldr.w	pc, [r2, r3, lsl #2]
 800233c:	0800234d 	.word	0x0800234d
 8002340:	08002353 	.word	0x08002353
 8002344:	0800234d 	.word	0x0800234d
 8002348:	08002365 	.word	0x08002365
    {
    case DMA_FIFO_THRESHOLD_1QUARTERFULL:
    case DMA_FIFO_THRESHOLD_3QUARTERSFULL:
      status = HAL_ERROR;
 800234c:	2301      	movs	r3, #1
 800234e:	73fb      	strb	r3, [r7, #15]
      break;
 8002350:	e030      	b.n	80023b4 <DMA_CheckFifoParam+0xe8>
    case DMA_FIFO_THRESHOLD_HALFFULL:
      if ((hdma->Init.MemBurst & DMA_SxCR_MBURST_1) == DMA_SxCR_MBURST_1)
 8002352:	687b      	ldr	r3, [r7, #4]
 8002354:	6adb      	ldr	r3, [r3, #44]	; 0x2c
 8002356:	f003 7380 	and.w	r3, r3, #16777216	; 0x1000000
 800235a:	2b00      	cmp	r3, #0
 800235c:	d025      	beq.n	80023aa <DMA_CheckFifoParam+0xde>
      {
        status = HAL_ERROR;
 800235e:	2301      	movs	r3, #1
 8002360:	73fb      	strb	r3, [r7, #15]
      }
      break;
 8002362:	e022      	b.n	80023aa <DMA_CheckFifoParam+0xde>
    case DMA_FIFO_THRESHOLD_FULL:
      if (hdma->Init.MemBurst == DMA_MBURST_INC16)
 8002364:	687b      	ldr	r3, [r7, #4]
 8002366:	6adb      	ldr	r3, [r3, #44]	; 0x2c
 8002368:	f1b3 7fc0 	cmp.w	r3, #25165824	; 0x1800000
 800236c:	d11f      	bne.n	80023ae <DMA_CheckFifoParam+0xe2>
      {
        status = HAL_ERROR;
 800236e:	2301      	movs	r3, #1
 8002370:	73fb      	strb	r3, [r7, #15]
      }
      break;   
 8002372:	e01c      	b.n	80023ae <DMA_CheckFifoParam+0xe2>
  }
  
  /* Memory Data size equal to Word */
  else
  {
    switch (tmp)
 8002374:	68bb      	ldr	r3, [r7, #8]
 8002376:	2b02      	cmp	r3, #2
 8002378:	d903      	bls.n	8002382 <DMA_CheckFifoParam+0xb6>
 800237a:	68bb      	ldr	r3, [r7, #8]
 800237c:	2b03      	cmp	r3, #3
 800237e:	d003      	beq.n	8002388 <DMA_CheckFifoParam+0xbc>
      {
        status = HAL_ERROR;
      }
      break;
    default:
      break;
 8002380:	e018      	b.n	80023b4 <DMA_CheckFifoParam+0xe8>
      status = HAL_ERROR;
 8002382:	2301      	movs	r3, #1
 8002384:	73fb      	strb	r3, [r7, #15]
      break;
 8002386:	e015      	b.n	80023b4 <DMA_CheckFifoParam+0xe8>
      if ((hdma->Init.MemBurst & DMA_SxCR_MBURST_1) == DMA_SxCR_MBURST_1)
 8002388:	687b      	ldr	r3, [r7, #4]
 800238a:	6adb      	ldr	r3, [r3, #44]	; 0x2c
 800238c:	f003 7380 	and.w	r3, r3, #16777216	; 0x1000000
 8002390:	2b00      	cmp	r3, #0
 8002392:	d00e      	beq.n	80023b2 <DMA_CheckFifoParam+0xe6>
        status = HAL_ERROR;
 8002394:	2301      	movs	r3, #1
 8002396:	73fb      	strb	r3, [r7, #15]
      break;
 8002398:	e00b      	b.n	80023b2 <DMA_CheckFifoParam+0xe6>
      break;
 800239a:	bf00      	nop
 800239c:	e00a      	b.n	80023b4 <DMA_CheckFifoParam+0xe8>
      break;
 800239e:	bf00      	nop
 80023a0:	e008      	b.n	80023b4 <DMA_CheckFifoParam+0xe8>
      break;
 80023a2:	bf00      	nop
 80023a4:	e006      	b.n	80023b4 <DMA_CheckFifoParam+0xe8>
      break;
 80023a6:	bf00      	nop
 80023a8:	e004      	b.n	80023b4 <DMA_CheckFifoParam+0xe8>
      break;
 80023aa:	bf00      	nop
 80023ac:	e002      	b.n	80023b4 <DMA_CheckFifoParam+0xe8>
      break;   
 80023ae:	bf00      	nop
 80023b0:	e000      	b.n	80023b4 <DMA_CheckFifoParam+0xe8>
      break;
 80023b2:	bf00      	nop
    }
  } 
  
  return status; 
 80023b4:	7bfb      	ldrb	r3, [r7, #15]
}
 80023b6:	4618      	mov	r0, r3
 80023b8:	3714      	adds	r7, #20
 80023ba:	46bd      	mov	sp, r7
 80023bc:	f85d 7b04 	ldr.w	r7, [sp], #4
 80023c0:	4770      	bx	lr
 80023c2:	bf00      	nop

080023c4 <HAL_GPIO_Init>:
  * @param  GPIO_Init pointer to a GPIO_InitTypeDef structure that contains
  *         the configuration information for the specified GPIO peripheral.
  * @retval None
  */
void HAL_GPIO_Init(GPIO_TypeDef  *GPIOx, GPIO_InitTypeDef *GPIO_Init)
{
 80023c4:	b480      	push	{r7}
 80023c6:	b089      	sub	sp, #36	; 0x24
 80023c8:	af00      	add	r7, sp, #0
 80023ca:	6078      	str	r0, [r7, #4]
 80023cc:	6039      	str	r1, [r7, #0]
  uint32_t position;
  uint32_t ioposition = 0x00U;
 80023ce:	2300      	movs	r3, #0
 80023d0:	617b      	str	r3, [r7, #20]
  uint32_t iocurrent = 0x00U;
 80023d2:	2300      	movs	r3, #0
 80023d4:	613b      	str	r3, [r7, #16]
  uint32_t temp = 0x00U;
 80023d6:	2300      	movs	r3, #0
 80023d8:	61bb      	str	r3, [r7, #24]
  assert_param(IS_GPIO_ALL_INSTANCE(GPIOx));
  assert_param(IS_GPIO_PIN(GPIO_Init->Pin));
  assert_param(IS_GPIO_MODE(GPIO_Init->Mode));

  /* Configure the port pins */
  for(position = 0U; position < GPIO_NUMBER; position++)
 80023da:	2300      	movs	r3, #0
 80023dc:	61fb      	str	r3, [r7, #28]
 80023de:	e165      	b.n	80026ac <HAL_GPIO_Init+0x2e8>
  {
    /* Get the IO position */
    ioposition = 0x01U << position;
 80023e0:	2201      	movs	r2, #1
 80023e2:	69fb      	ldr	r3, [r7, #28]
 80023e4:	fa02 f303 	lsl.w	r3, r2, r3
 80023e8:	617b      	str	r3, [r7, #20]
    /* Get the current IO position */
    iocurrent = (uint32_t)(GPIO_Init->Pin) & ioposition;
 80023ea:	683b      	ldr	r3, [r7, #0]
 80023ec:	681b      	ldr	r3, [r3, #0]
 80023ee:	697a      	ldr	r2, [r7, #20]
 80023f0:	4013      	ands	r3, r2
 80023f2:	613b      	str	r3, [r7, #16]

    if(iocurrent == ioposition)
 80023f4:	693a      	ldr	r2, [r7, #16]
 80023f6:	697b      	ldr	r3, [r7, #20]
 80023f8:	429a      	cmp	r2, r3
 80023fa:	f040 8154 	bne.w	80026a6 <HAL_GPIO_Init+0x2e2>
    {
      /*--------------------- GPIO Mode Configuration ------------------------*/
      /* In case of Output or Alternate function mode selection */
      if(((GPIO_Init->Mode & GPIO_MODE) == MODE_OUTPUT) || \
 80023fe:	683b      	ldr	r3, [r7, #0]
 8002400:	685b      	ldr	r3, [r3, #4]
 8002402:	f003 0303 	and.w	r3, r3, #3
 8002406:	2b01      	cmp	r3, #1
 8002408:	d005      	beq.n	8002416 <HAL_GPIO_Init+0x52>
          (GPIO_Init->Mode & GPIO_MODE) == MODE_AF)
 800240a:	683b      	ldr	r3, [r7, #0]
 800240c:	685b      	ldr	r3, [r3, #4]
 800240e:	f003 0303 	and.w	r3, r3, #3
      if(((GPIO_Init->Mode & GPIO_MODE) == MODE_OUTPUT) || \
 8002412:	2b02      	cmp	r3, #2
 8002414:	d130      	bne.n	8002478 <HAL_GPIO_Init+0xb4>
      {
        /* Check the Speed parameter */
        assert_param(IS_GPIO_SPEED(GPIO_Init->Speed));
        /* Configure the IO Speed */
        temp = GPIOx->OSPEEDR; 
 8002416:	687b      	ldr	r3, [r7, #4]
 8002418:	689b      	ldr	r3, [r3, #8]
 800241a:	61bb      	str	r3, [r7, #24]
        temp &= ~(GPIO_OSPEEDER_OSPEEDR0 << (position * 2U));
 800241c:	69fb      	ldr	r3, [r7, #28]
 800241e:	005b      	lsls	r3, r3, #1
 8002420:	2203      	movs	r2, #3
 8002422:	fa02 f303 	lsl.w	r3, r2, r3
 8002426:	43db      	mvns	r3, r3
 8002428:	69ba      	ldr	r2, [r7, #24]
 800242a:	4013      	ands	r3, r2
 800242c:	61bb      	str	r3, [r7, #24]
        temp |= (GPIO_Init->Speed << (position * 2U));
 800242e:	683b      	ldr	r3, [r7, #0]
 8002430:	68da      	ldr	r2, [r3, #12]
 8002432:	69fb      	ldr	r3, [r7, #28]
 8002434:	005b      	lsls	r3, r3, #1
 8002436:	fa02 f303 	lsl.w	r3, r2, r3
 800243a:	69ba      	ldr	r2, [r7, #24]
 800243c:	4313      	orrs	r3, r2
 800243e:	61bb      	str	r3, [r7, #24]
        GPIOx->OSPEEDR = temp;
 8002440:	687b      	ldr	r3, [r7, #4]
 8002442:	69ba      	ldr	r2, [r7, #24]
 8002444:	609a      	str	r2, [r3, #8]

        /* Configure the IO Output Type */
        temp = GPIOx->OTYPER;
 8002446:	687b      	ldr	r3, [r7, #4]
 8002448:	685b      	ldr	r3, [r3, #4]
 800244a:	61bb      	str	r3, [r7, #24]
        temp &= ~(GPIO_OTYPER_OT_0 << position) ;
 800244c:	2201      	movs	r2, #1
 800244e:	69fb      	ldr	r3, [r7, #28]
 8002450:	fa02 f303 	lsl.w	r3, r2, r3
 8002454:	43db      	mvns	r3, r3
 8002456:	69ba      	ldr	r2, [r7, #24]
 8002458:	4013      	ands	r3, r2
 800245a:	61bb      	str	r3, [r7, #24]
        temp |= (((GPIO_Init->Mode & OUTPUT_TYPE) >> OUTPUT_TYPE_Pos) << position);
 800245c:	683b      	ldr	r3, [r7, #0]
 800245e:	685b      	ldr	r3, [r3, #4]
 8002460:	091b      	lsrs	r3, r3, #4
 8002462:	f003 0201 	and.w	r2, r3, #1
 8002466:	69fb      	ldr	r3, [r7, #28]
 8002468:	fa02 f303 	lsl.w	r3, r2, r3
 800246c:	69ba      	ldr	r2, [r7, #24]
 800246e:	4313      	orrs	r3, r2
 8002470:	61bb      	str	r3, [r7, #24]
        GPIOx->OTYPER = temp;
 8002472:	687b      	ldr	r3, [r7, #4]
 8002474:	69ba      	ldr	r2, [r7, #24]
 8002476:	605a      	str	r2, [r3, #4]
       }

      if((GPIO_Init->Mode & GPIO_MODE) != MODE_ANALOG)
 8002478:	683b      	ldr	r3, [r7, #0]
 800247a:	685b      	ldr	r3, [r3, #4]
 800247c:	f003 0303 	and.w	r3, r3, #3
 8002480:	2b03      	cmp	r3, #3
 8002482:	d017      	beq.n	80024b4 <HAL_GPIO_Init+0xf0>
      {
        /* Check the parameters */
        assert_param(IS_GPIO_PULL(GPIO_Init->Pull));
        
        /* Activate the Pull-up or Pull down resistor for the current IO */
        temp = GPIOx->PUPDR;
 8002484:	687b      	ldr	r3, [r7, #4]
 8002486:	68db      	ldr	r3, [r3, #12]
 8002488:	61bb      	str	r3, [r7, #24]
        temp &= ~(GPIO_PUPDR_PUPDR0 << (position * 2U));
 800248a:	69fb      	ldr	r3, [r7, #28]
 800248c:	005b      	lsls	r3, r3, #1
 800248e:	2203      	movs	r2, #3
 8002490:	fa02 f303 	lsl.w	r3, r2, r3
 8002494:	43db      	mvns	r3, r3
 8002496:	69ba      	ldr	r2, [r7, #24]
 8002498:	4013      	ands	r3, r2
 800249a:	61bb      	str	r3, [r7, #24]
        temp |= ((GPIO_Init->Pull) << (position * 2U));
 800249c:	683b      	ldr	r3, [r7, #0]
 800249e:	689a      	ldr	r2, [r3, #8]
 80024a0:	69fb      	ldr	r3, [r7, #28]
 80024a2:	005b      	lsls	r3, r3, #1
 80024a4:	fa02 f303 	lsl.w	r3, r2, r3
 80024a8:	69ba      	ldr	r2, [r7, #24]
 80024aa:	4313      	orrs	r3, r2
 80024ac:	61bb      	str	r3, [r7, #24]
        GPIOx->PUPDR = temp;
 80024ae:	687b      	ldr	r3, [r7, #4]
 80024b0:	69ba      	ldr	r2, [r7, #24]
 80024b2:	60da      	str	r2, [r3, #12]
      }

      /* In case of Alternate function mode selection */
      if((GPIO_Init->Mode & GPIO_MODE) == MODE_AF)
 80024b4:	683b      	ldr	r3, [r7, #0]
 80024b6:	685b      	ldr	r3, [r3, #4]
 80024b8:	f003 0303 	and.w	r3, r3, #3
 80024bc:	2b02      	cmp	r3, #2
 80024be:	d123      	bne.n	8002508 <HAL_GPIO_Init+0x144>
      {
        /* Check the Alternate function parameter */
        assert_param(IS_GPIO_AF(GPIO_Init->Alternate));
        /* Configure Alternate function mapped with the current IO */
        temp = GPIOx->AFR[position >> 3U];
 80024c0:	69fb      	ldr	r3, [r7, #28]
 80024c2:	08da      	lsrs	r2, r3, #3
 80024c4:	687b      	ldr	r3, [r7, #4]
 80024c6:	3208      	adds	r2, #8
 80024c8:	f853 3022 	ldr.w	r3, [r3, r2, lsl #2]
 80024cc:	61bb      	str	r3, [r7, #24]
        temp &= ~(0xFU << ((uint32_t)(position & 0x07U) * 4U)) ;
 80024ce:	69fb      	ldr	r3, [r7, #28]
 80024d0:	f003 0307 	and.w	r3, r3, #7
 80024d4:	009b      	lsls	r3, r3, #2
 80024d6:	220f      	movs	r2, #15
 80024d8:	fa02 f303 	lsl.w	r3, r2, r3
 80024dc:	43db      	mvns	r3, r3
 80024de:	69ba      	ldr	r2, [r7, #24]
 80024e0:	4013      	ands	r3, r2
 80024e2:	61bb      	str	r3, [r7, #24]
        temp |= ((uint32_t)(GPIO_Init->Alternate) << (((uint32_t)position & 0x07U) * 4U));
 80024e4:	683b      	ldr	r3, [r7, #0]
 80024e6:	691a      	ldr	r2, [r3, #16]
 80024e8:	69fb      	ldr	r3, [r7, #28]
 80024ea:	f003 0307 	and.w	r3, r3, #7
 80024ee:	009b      	lsls	r3, r3, #2
 80024f0:	fa02 f303 	lsl.w	r3, r2, r3
 80024f4:	69ba      	ldr	r2, [r7, #24]
 80024f6:	4313      	orrs	r3, r2
 80024f8:	61bb      	str	r3, [r7, #24]
        GPIOx->AFR[position >> 3U] = temp;
 80024fa:	69fb      	ldr	r3, [r7, #28]
 80024fc:	08da      	lsrs	r2, r3, #3
 80024fe:	687b      	ldr	r3, [r7, #4]
 8002500:	3208      	adds	r2, #8
 8002502:	69b9      	ldr	r1, [r7, #24]
 8002504:	f843 1022 	str.w	r1, [r3, r2, lsl #2]
      }

      /* Configure IO Direction mode (Input, Output, Alternate or Analog) */
      temp = GPIOx->MODER;
 8002508:	687b      	ldr	r3, [r7, #4]
 800250a:	681b      	ldr	r3, [r3, #0]
 800250c:	61bb      	str	r3, [r7, #24]
      temp &= ~(GPIO_MODER_MODER0 << (position * 2U));
 800250e:	69fb      	ldr	r3, [r7, #28]
 8002510:	005b      	lsls	r3, r3, #1
 8002512:	2203      	movs	r2, #3
 8002514:	fa02 f303 	lsl.w	r3, r2, r3
 8002518:	43db      	mvns	r3, r3
 800251a:	69ba      	ldr	r2, [r7, #24]
 800251c:	4013      	ands	r3, r2
 800251e:	61bb      	str	r3, [r7, #24]
      temp |= ((GPIO_Init->Mode & GPIO_MODE) << (position * 2U));
 8002520:	683b      	ldr	r3, [r7, #0]
 8002522:	685b      	ldr	r3, [r3, #4]
 8002524:	f003 0203 	and.w	r2, r3, #3
 8002528:	69fb      	ldr	r3, [r7, #28]
 800252a:	005b      	lsls	r3, r3, #1
 800252c:	fa02 f303 	lsl.w	r3, r2, r3
 8002530:	69ba      	ldr	r2, [r7, #24]
 8002532:	4313      	orrs	r3, r2
 8002534:	61bb      	str	r3, [r7, #24]
      GPIOx->MODER = temp;
 8002536:	687b      	ldr	r3, [r7, #4]
 8002538:	69ba      	ldr	r2, [r7, #24]
 800253a:	601a      	str	r2, [r3, #0]

      /*--------------------- EXTI Mode Configuration ------------------------*/
      /* Configure the External Interrupt or event for the current IO */
      if((GPIO_Init->Mode & EXTI_MODE) != 0x00U)
 800253c:	683b      	ldr	r3, [r7, #0]
 800253e:	685b      	ldr	r3, [r3, #4]
 8002540:	f403 3340 	and.w	r3, r3, #196608	; 0x30000
 8002544:	2b00      	cmp	r3, #0
 8002546:	f000 80ae 	beq.w	80026a6 <HAL_GPIO_Init+0x2e2>
      {
        /* Enable SYSCFG Clock */
        __HAL_RCC_SYSCFG_CLK_ENABLE();
 800254a:	2300      	movs	r3, #0
 800254c:	60fb      	str	r3, [r7, #12]
 800254e:	4b5d      	ldr	r3, [pc, #372]	; (80026c4 <HAL_GPIO_Init+0x300>)
 8002550:	6c5b      	ldr	r3, [r3, #68]	; 0x44
 8002552:	4a5c      	ldr	r2, [pc, #368]	; (80026c4 <HAL_GPIO_Init+0x300>)
 8002554:	f443 4380 	orr.w	r3, r3, #16384	; 0x4000
 8002558:	6453      	str	r3, [r2, #68]	; 0x44
 800255a:	4b5a      	ldr	r3, [pc, #360]	; (80026c4 <HAL_GPIO_Init+0x300>)
 800255c:	6c5b      	ldr	r3, [r3, #68]	; 0x44
 800255e:	f403 4380 	and.w	r3, r3, #16384	; 0x4000
 8002562:	60fb      	str	r3, [r7, #12]
 8002564:	68fb      	ldr	r3, [r7, #12]

        temp = SYSCFG->EXTICR[position >> 2U];
 8002566:	4a58      	ldr	r2, [pc, #352]	; (80026c8 <HAL_GPIO_Init+0x304>)
 8002568:	69fb      	ldr	r3, [r7, #28]
 800256a:	089b      	lsrs	r3, r3, #2
 800256c:	3302      	adds	r3, #2
 800256e:	f852 3023 	ldr.w	r3, [r2, r3, lsl #2]
 8002572:	61bb      	str	r3, [r7, #24]
        temp &= ~(0x0FU << (4U * (position & 0x03U)));
 8002574:	69fb      	ldr	r3, [r7, #28]
 8002576:	f003 0303 	and.w	r3, r3, #3
 800257a:	009b      	lsls	r3, r3, #2
 800257c:	220f      	movs	r2, #15
 800257e:	fa02 f303 	lsl.w	r3, r2, r3
 8002582:	43db      	mvns	r3, r3
 8002584:	69ba      	ldr	r2, [r7, #24]
 8002586:	4013      	ands	r3, r2
 8002588:	61bb      	str	r3, [r7, #24]
        temp |= ((uint32_t)(GPIO_GET_INDEX(GPIOx)) << (4U * (position & 0x03U)));
 800258a:	687b      	ldr	r3, [r7, #4]
 800258c:	4a4f      	ldr	r2, [pc, #316]	; (80026cc <HAL_GPIO_Init+0x308>)
 800258e:	4293      	cmp	r3, r2
 8002590:	d025      	beq.n	80025de <HAL_GPIO_Init+0x21a>
 8002592:	687b      	ldr	r3, [r7, #4]
 8002594:	4a4e      	ldr	r2, [pc, #312]	; (80026d0 <HAL_GPIO_Init+0x30c>)
 8002596:	4293      	cmp	r3, r2
 8002598:	d01f      	beq.n	80025da <HAL_GPIO_Init+0x216>
 800259a:	687b      	ldr	r3, [r7, #4]
 800259c:	4a4d      	ldr	r2, [pc, #308]	; (80026d4 <HAL_GPIO_Init+0x310>)
 800259e:	4293      	cmp	r3, r2
 80025a0:	d019      	beq.n	80025d6 <HAL_GPIO_Init+0x212>
 80025a2:	687b      	ldr	r3, [r7, #4]
 80025a4:	4a4c      	ldr	r2, [pc, #304]	; (80026d8 <HAL_GPIO_Init+0x314>)
 80025a6:	4293      	cmp	r3, r2
 80025a8:	d013      	beq.n	80025d2 <HAL_GPIO_Init+0x20e>
 80025aa:	687b      	ldr	r3, [r7, #4]
 80025ac:	4a4b      	ldr	r2, [pc, #300]	; (80026dc <HAL_GPIO_Init+0x318>)
 80025ae:	4293      	cmp	r3, r2
 80025b0:	d00d      	beq.n	80025ce <HAL_GPIO_Init+0x20a>
 80025b2:	687b      	ldr	r3, [r7, #4]
 80025b4:	4a4a      	ldr	r2, [pc, #296]	; (80026e0 <HAL_GPIO_Init+0x31c>)
 80025b6:	4293      	cmp	r3, r2
 80025b8:	d007      	beq.n	80025ca <HAL_GPIO_Init+0x206>
 80025ba:	687b      	ldr	r3, [r7, #4]
 80025bc:	4a49      	ldr	r2, [pc, #292]	; (80026e4 <HAL_GPIO_Init+0x320>)
 80025be:	4293      	cmp	r3, r2
 80025c0:	d101      	bne.n	80025c6 <HAL_GPIO_Init+0x202>
 80025c2:	2306      	movs	r3, #6
 80025c4:	e00c      	b.n	80025e0 <HAL_GPIO_Init+0x21c>
 80025c6:	2307      	movs	r3, #7
 80025c8:	e00a      	b.n	80025e0 <HAL_GPIO_Init+0x21c>
 80025ca:	2305      	movs	r3, #5
 80025cc:	e008      	b.n	80025e0 <HAL_GPIO_Init+0x21c>
 80025ce:	2304      	movs	r3, #4
 80025d0:	e006      	b.n	80025e0 <HAL_GPIO_Init+0x21c>
 80025d2:	2303      	movs	r3, #3
 80025d4:	e004      	b.n	80025e0 <HAL_GPIO_Init+0x21c>
 80025d6:	2302      	movs	r3, #2
 80025d8:	e002      	b.n	80025e0 <HAL_GPIO_Init+0x21c>
 80025da:	2301      	movs	r3, #1
 80025dc:	e000      	b.n	80025e0 <HAL_GPIO_Init+0x21c>
 80025de:	2300      	movs	r3, #0
 80025e0:	69fa      	ldr	r2, [r7, #28]
 80025e2:	f002 0203 	and.w	r2, r2, #3
 80025e6:	0092      	lsls	r2, r2, #2
 80025e8:	4093      	lsls	r3, r2
 80025ea:	69ba      	ldr	r2, [r7, #24]
 80025ec:	4313      	orrs	r3, r2
 80025ee:	61bb      	str	r3, [r7, #24]
        SYSCFG->EXTICR[position >> 2U] = temp;
 80025f0:	4935      	ldr	r1, [pc, #212]	; (80026c8 <HAL_GPIO_Init+0x304>)
 80025f2:	69fb      	ldr	r3, [r7, #28]
 80025f4:	089b      	lsrs	r3, r3, #2
 80025f6:	3302      	adds	r3, #2
 80025f8:	69ba      	ldr	r2, [r7, #24]
 80025fa:	f841 2023 	str.w	r2, [r1, r3, lsl #2]

        /* Clear Rising Falling edge configuration */
        temp = EXTI->RTSR;
 80025fe:	4b3a      	ldr	r3, [pc, #232]	; (80026e8 <HAL_GPIO_Init+0x324>)
 8002600:	689b      	ldr	r3, [r3, #8]
 8002602:	61bb      	str	r3, [r7, #24]
        temp &= ~((uint32_t)iocurrent);
 8002604:	693b      	ldr	r3, [r7, #16]
 8002606:	43db      	mvns	r3, r3
 8002608:	69ba      	ldr	r2, [r7, #24]
 800260a:	4013      	ands	r3, r2
 800260c:	61bb      	str	r3, [r7, #24]
        if((GPIO_Init->Mode & TRIGGER_RISING) != 0x00U)
 800260e:	683b      	ldr	r3, [r7, #0]
 8002610:	685b      	ldr	r3, [r3, #4]
 8002612:	f403 1380 	and.w	r3, r3, #1048576	; 0x100000
 8002616:	2b00      	cmp	r3, #0
 8002618:	d003      	beq.n	8002622 <HAL_GPIO_Init+0x25e>
        {
          temp |= iocurrent;
 800261a:	69ba      	ldr	r2, [r7, #24]
 800261c:	693b      	ldr	r3, [r7, #16]
 800261e:	4313      	orrs	r3, r2
 8002620:	61bb      	str	r3, [r7, #24]
        }
        EXTI->RTSR = temp;
 8002622:	4a31      	ldr	r2, [pc, #196]	; (80026e8 <HAL_GPIO_Init+0x324>)
 8002624:	69bb      	ldr	r3, [r7, #24]
 8002626:	6093      	str	r3, [r2, #8]

        temp = EXTI->FTSR;
 8002628:	4b2f      	ldr	r3, [pc, #188]	; (80026e8 <HAL_GPIO_Init+0x324>)
 800262a:	68db      	ldr	r3, [r3, #12]
 800262c:	61bb      	str	r3, [r7, #24]
        temp &= ~((uint32_t)iocurrent);
 800262e:	693b      	ldr	r3, [r7, #16]
 8002630:	43db      	mvns	r3, r3
 8002632:	69ba      	ldr	r2, [r7, #24]
 8002634:	4013      	ands	r3, r2
 8002636:	61bb      	str	r3, [r7, #24]
        if((GPIO_Init->Mode & TRIGGER_FALLING) != 0x00U)
 8002638:	683b      	ldr	r3, [r7, #0]
 800263a:	685b      	ldr	r3, [r3, #4]
 800263c:	f403 1300 	and.w	r3, r3, #2097152	; 0x200000
 8002640:	2b00      	cmp	r3, #0
 8002642:	d003      	beq.n	800264c <HAL_GPIO_Init+0x288>
        {
          temp |= iocurrent;
 8002644:	69ba      	ldr	r2, [r7, #24]
 8002646:	693b      	ldr	r3, [r7, #16]
 8002648:	4313      	orrs	r3, r2
 800264a:	61bb      	str	r3, [r7, #24]
        }
        EXTI->FTSR = temp;
 800264c:	4a26      	ldr	r2, [pc, #152]	; (80026e8 <HAL_GPIO_Init+0x324>)
 800264e:	69bb      	ldr	r3, [r7, #24]
 8002650:	60d3      	str	r3, [r2, #12]

        temp = EXTI->EMR;
 8002652:	4b25      	ldr	r3, [pc, #148]	; (80026e8 <HAL_GPIO_Init+0x324>)
 8002654:	685b      	ldr	r3, [r3, #4]
 8002656:	61bb      	str	r3, [r7, #24]
        temp &= ~((uint32_t)iocurrent);
 8002658:	693b      	ldr	r3, [r7, #16]
 800265a:	43db      	mvns	r3, r3
 800265c:	69ba      	ldr	r2, [r7, #24]
 800265e:	4013      	ands	r3, r2
 8002660:	61bb      	str	r3, [r7, #24]
        if((GPIO_Init->Mode & EXTI_EVT) != 0x00U)
 8002662:	683b      	ldr	r3, [r7, #0]
 8002664:	685b      	ldr	r3, [r3, #4]
 8002666:	f403 3300 	and.w	r3, r3, #131072	; 0x20000
 800266a:	2b00      	cmp	r3, #0
 800266c:	d003      	beq.n	8002676 <HAL_GPIO_Init+0x2b2>
        {
          temp |= iocurrent;
 800266e:	69ba      	ldr	r2, [r7, #24]
 8002670:	693b      	ldr	r3, [r7, #16]
 8002672:	4313      	orrs	r3, r2
 8002674:	61bb      	str	r3, [r7, #24]
        }
        EXTI->EMR = temp;
 8002676:	4a1c      	ldr	r2, [pc, #112]	; (80026e8 <HAL_GPIO_Init+0x324>)
 8002678:	69bb      	ldr	r3, [r7, #24]
 800267a:	6053      	str	r3, [r2, #4]

        /* Clear EXTI line configuration */
        temp = EXTI->IMR;
 800267c:	4b1a      	ldr	r3, [pc, #104]	; (80026e8 <HAL_GPIO_Init+0x324>)
 800267e:	681b      	ldr	r3, [r3, #0]
 8002680:	61bb      	str	r3, [r7, #24]
        temp &= ~((uint32_t)iocurrent);
 8002682:	693b      	ldr	r3, [r7, #16]
 8002684:	43db      	mvns	r3, r3
 8002686:	69ba      	ldr	r2, [r7, #24]
 8002688:	4013      	ands	r3, r2
 800268a:	61bb      	str	r3, [r7, #24]
        if((GPIO_Init->Mode & EXTI_IT) != 0x00U)
 800268c:	683b      	ldr	r3, [r7, #0]
 800268e:	685b      	ldr	r3, [r3, #4]
 8002690:	f403 3380 	and.w	r3, r3, #65536	; 0x10000
 8002694:	2b00      	cmp	r3, #0
 8002696:	d003      	beq.n	80026a0 <HAL_GPIO_Init+0x2dc>
        {
          temp |= iocurrent;
 8002698:	69ba      	ldr	r2, [r7, #24]
 800269a:	693b      	ldr	r3, [r7, #16]
 800269c:	4313      	orrs	r3, r2
 800269e:	61bb      	str	r3, [r7, #24]
        }
        EXTI->IMR = temp;
 80026a0:	4a11      	ldr	r2, [pc, #68]	; (80026e8 <HAL_GPIO_Init+0x324>)
 80026a2:	69bb      	ldr	r3, [r7, #24]
 80026a4:	6013      	str	r3, [r2, #0]
  for(position = 0U; position < GPIO_NUMBER; position++)
 80026a6:	69fb      	ldr	r3, [r7, #28]
 80026a8:	3301      	adds	r3, #1
 80026aa:	61fb      	str	r3, [r7, #28]
 80026ac:	69fb      	ldr	r3, [r7, #28]
 80026ae:	2b0f      	cmp	r3, #15
 80026b0:	f67f ae96 	bls.w	80023e0 <HAL_GPIO_Init+0x1c>
      }
    }
  }
}
 80026b4:	bf00      	nop
 80026b6:	bf00      	nop
 80026b8:	3724      	adds	r7, #36	; 0x24
 80026ba:	46bd      	mov	sp, r7
 80026bc:	f85d 7b04 	ldr.w	r7, [sp], #4
 80026c0:	4770      	bx	lr
 80026c2:	bf00      	nop
 80026c4:	40023800 	.word	0x40023800
 80026c8:	40013800 	.word	0x40013800
 80026cc:	40020000 	.word	0x40020000
 80026d0:	40020400 	.word	0x40020400
 80026d4:	40020800 	.word	0x40020800
 80026d8:	40020c00 	.word	0x40020c00
 80026dc:	40021000 	.word	0x40021000
 80026e0:	40021400 	.word	0x40021400
 80026e4:	40021800 	.word	0x40021800
 80026e8:	40013c00 	.word	0x40013c00

080026ec <HAL_GPIO_WritePin>:
  *            @arg GPIO_PIN_RESET: to clear the port pin
  *            @arg GPIO_PIN_SET: to set the port pin
  * @retval None
  */
void HAL_GPIO_WritePin(GPIO_TypeDef* GPIOx, uint16_t GPIO_Pin, GPIO_PinState PinState)
{
 80026ec:	b480      	push	{r7}
 80026ee:	b083      	sub	sp, #12
 80026f0:	af00      	add	r7, sp, #0
 80026f2:	6078      	str	r0, [r7, #4]
 80026f4:	460b      	mov	r3, r1
 80026f6:	807b      	strh	r3, [r7, #2]
 80026f8:	4613      	mov	r3, r2
 80026fa:	707b      	strb	r3, [r7, #1]
  /* Check the parameters */
  assert_param(IS_GPIO_PIN(GPIO_Pin));
  assert_param(IS_GPIO_PIN_ACTION(PinState));

  if(PinState != GPIO_PIN_RESET)
 80026fc:	787b      	ldrb	r3, [r7, #1]
 80026fe:	2b00      	cmp	r3, #0
 8002700:	d003      	beq.n	800270a <HAL_GPIO_WritePin+0x1e>
  {
    GPIOx->BSRR = GPIO_Pin;
 8002702:	887a      	ldrh	r2, [r7, #2]
 8002704:	687b      	ldr	r3, [r7, #4]
 8002706:	619a      	str	r2, [r3, #24]
  }
  else
  {
    GPIOx->BSRR = (uint32_t)GPIO_Pin << 16U;
  }
}
 8002708:	e003      	b.n	8002712 <HAL_GPIO_WritePin+0x26>
    GPIOx->BSRR = (uint32_t)GPIO_Pin << 16U;
 800270a:	887b      	ldrh	r3, [r7, #2]
 800270c:	041a      	lsls	r2, r3, #16
 800270e:	687b      	ldr	r3, [r7, #4]
 8002710:	619a      	str	r2, [r3, #24]
}
 8002712:	bf00      	nop
 8002714:	370c      	adds	r7, #12
 8002716:	46bd      	mov	sp, r7
 8002718:	f85d 7b04 	ldr.w	r7, [sp], #4
 800271c:	4770      	bx	lr
	...

08002720 <HAL_RCC_ClockConfig>:
  *         HPRE[3:0] bits to ensure that HCLK not exceed the maximum allowed frequency
  *         (for more details refer to section above "Initialization/de-initialization functions")
  * @retval None
  */
HAL_StatusTypeDef HAL_RCC_ClockConfig(RCC_ClkInitTypeDef  *RCC_ClkInitStruct, uint32_t FLatency)
{
 8002720:	b580      	push	{r7, lr}
 8002722:	b084      	sub	sp, #16
 8002724:	af00      	add	r7, sp, #0
 8002726:	6078      	str	r0, [r7, #4]
 8002728:	6039      	str	r1, [r7, #0]
  uint32_t tickstart;

  /* Check Null pointer */
  if(RCC_ClkInitStruct == NULL)
 800272a:	687b      	ldr	r3, [r7, #4]
 800272c:	2b00      	cmp	r3, #0
 800272e:	d101      	bne.n	8002734 <HAL_RCC_ClockConfig+0x14>
  {
    return HAL_ERROR;
 8002730:	2301      	movs	r3, #1
 8002732:	e0cc      	b.n	80028ce <HAL_RCC_ClockConfig+0x1ae>
  /* To correctly read data from FLASH memory, the number of wait states (LATENCY)
    must be correctly programmed according to the frequency of the CPU clock
    (HCLK) and the supply voltage of the device. */

  /* Increasing the number of wait states because of higher CPU frequency */
  if(FLatency > __HAL_FLASH_GET_LATENCY())
 8002734:	4b68      	ldr	r3, [pc, #416]	; (80028d8 <HAL_RCC_ClockConfig+0x1b8>)
 8002736:	681b      	ldr	r3, [r3, #0]
 8002738:	f003 030f 	and.w	r3, r3, #15
 800273c:	683a      	ldr	r2, [r7, #0]
 800273e:	429a      	cmp	r2, r3
 8002740:	d90c      	bls.n	800275c <HAL_RCC_ClockConfig+0x3c>
  {
    /* Program the new number of wait states to the LATENCY bits in the FLASH_ACR register */
    __HAL_FLASH_SET_LATENCY(FLatency);
 8002742:	4b65      	ldr	r3, [pc, #404]	; (80028d8 <HAL_RCC_ClockConfig+0x1b8>)
 8002744:	683a      	ldr	r2, [r7, #0]
 8002746:	b2d2      	uxtb	r2, r2
 8002748:	701a      	strb	r2, [r3, #0]

    /* Check that the new number of wait states is taken into account to access the Flash
    memory by reading the FLASH_ACR register */
    if(__HAL_FLASH_GET_LATENCY() != FLatency)
 800274a:	4b63      	ldr	r3, [pc, #396]	; (80028d8 <HAL_RCC_ClockConfig+0x1b8>)
 800274c:	681b      	ldr	r3, [r3, #0]
 800274e:	f003 030f 	and.w	r3, r3, #15
 8002752:	683a      	ldr	r2, [r7, #0]
 8002754:	429a      	cmp	r2, r3
 8002756:	d001      	beq.n	800275c <HAL_RCC_ClockConfig+0x3c>
    {
      return HAL_ERROR;
 8002758:	2301      	movs	r3, #1
 800275a:	e0b8      	b.n	80028ce <HAL_RCC_ClockConfig+0x1ae>
    }
  }

  /*-------------------------- HCLK Configuration --------------------------*/
  if(((RCC_ClkInitStruct->ClockType) & RCC_CLOCKTYPE_HCLK) == RCC_CLOCKTYPE_HCLK)
 800275c:	687b      	ldr	r3, [r7, #4]
 800275e:	681b      	ldr	r3, [r3, #0]
 8002760:	f003 0302 	and.w	r3, r3, #2
 8002764:	2b00      	cmp	r3, #0
 8002766:	d020      	beq.n	80027aa <HAL_RCC_ClockConfig+0x8a>
  {
    /* Set the highest APBx dividers in order to ensure that we do not go through
       a non-spec phase whatever we decrease or increase HCLK. */
    if(((RCC_ClkInitStruct->ClockType) & RCC_CLOCKTYPE_PCLK1) == RCC_CLOCKTYPE_PCLK1)
 8002768:	687b      	ldr	r3, [r7, #4]
 800276a:	681b      	ldr	r3, [r3, #0]
 800276c:	f003 0304 	and.w	r3, r3, #4
 8002770:	2b00      	cmp	r3, #0
 8002772:	d005      	beq.n	8002780 <HAL_RCC_ClockConfig+0x60>
    {
      MODIFY_REG(RCC->CFGR, RCC_CFGR_PPRE1, RCC_HCLK_DIV16);
 8002774:	4b59      	ldr	r3, [pc, #356]	; (80028dc <HAL_RCC_ClockConfig+0x1bc>)
 8002776:	689b      	ldr	r3, [r3, #8]
 8002778:	4a58      	ldr	r2, [pc, #352]	; (80028dc <HAL_RCC_ClockConfig+0x1bc>)
 800277a:	f443 53e0 	orr.w	r3, r3, #7168	; 0x1c00
 800277e:	6093      	str	r3, [r2, #8]
    }

    if(((RCC_ClkInitStruct->ClockType) & RCC_CLOCKTYPE_PCLK2) == RCC_CLOCKTYPE_PCLK2)
 8002780:	687b      	ldr	r3, [r7, #4]
 8002782:	681b      	ldr	r3, [r3, #0]
 8002784:	f003 0308 	and.w	r3, r3, #8
 8002788:	2b00      	cmp	r3, #0
 800278a:	d005      	beq.n	8002798 <HAL_RCC_ClockConfig+0x78>
    {
      MODIFY_REG(RCC->CFGR, RCC_CFGR_PPRE2, (RCC_HCLK_DIV16 << 3));
 800278c:	4b53      	ldr	r3, [pc, #332]	; (80028dc <HAL_RCC_ClockConfig+0x1bc>)
 800278e:	689b      	ldr	r3, [r3, #8]
 8002790:	4a52      	ldr	r2, [pc, #328]	; (80028dc <HAL_RCC_ClockConfig+0x1bc>)
 8002792:	f443 4360 	orr.w	r3, r3, #57344	; 0xe000
 8002796:	6093      	str	r3, [r2, #8]
    }

    assert_param(IS_RCC_HCLK(RCC_ClkInitStruct->AHBCLKDivider));
    MODIFY_REG(RCC->CFGR, RCC_CFGR_HPRE, RCC_ClkInitStruct->AHBCLKDivider);
 8002798:	4b50      	ldr	r3, [pc, #320]	; (80028dc <HAL_RCC_ClockConfig+0x1bc>)
 800279a:	689b      	ldr	r3, [r3, #8]
 800279c:	f023 02f0 	bic.w	r2, r3, #240	; 0xf0
 80027a0:	687b      	ldr	r3, [r7, #4]
 80027a2:	689b      	ldr	r3, [r3, #8]
 80027a4:	494d      	ldr	r1, [pc, #308]	; (80028dc <HAL_RCC_ClockConfig+0x1bc>)
 80027a6:	4313      	orrs	r3, r2
 80027a8:	608b      	str	r3, [r1, #8]
  }

  /*------------------------- SYSCLK Configuration ---------------------------*/
  if(((RCC_ClkInitStruct->ClockType) & RCC_CLOCKTYPE_SYSCLK) == RCC_CLOCKTYPE_SYSCLK)
 80027aa:	687b      	ldr	r3, [r7, #4]
 80027ac:	681b      	ldr	r3, [r3, #0]
 80027ae:	f003 0301 	and.w	r3, r3, #1
 80027b2:	2b00      	cmp	r3, #0
 80027b4:	d044      	beq.n	8002840 <HAL_RCC_ClockConfig+0x120>
  {
    assert_param(IS_RCC_SYSCLKSOURCE(RCC_ClkInitStruct->SYSCLKSource));

    /* HSE is selected as System Clock Source */
    if(RCC_ClkInitStruct->SYSCLKSource == RCC_SYSCLKSOURCE_HSE)
 80027b6:	687b      	ldr	r3, [r7, #4]
 80027b8:	685b      	ldr	r3, [r3, #4]
 80027ba:	2b01      	cmp	r3, #1
 80027bc:	d107      	bne.n	80027ce <HAL_RCC_ClockConfig+0xae>
    {
      /* Check the HSE ready flag */
      if(__HAL_RCC_GET_FLAG(RCC_FLAG_HSERDY) == RESET)
 80027be:	4b47      	ldr	r3, [pc, #284]	; (80028dc <HAL_RCC_ClockConfig+0x1bc>)
 80027c0:	681b      	ldr	r3, [r3, #0]
 80027c2:	f403 3300 	and.w	r3, r3, #131072	; 0x20000
 80027c6:	2b00      	cmp	r3, #0
 80027c8:	d119      	bne.n	80027fe <HAL_RCC_ClockConfig+0xde>
      {
        return HAL_ERROR;
 80027ca:	2301      	movs	r3, #1
 80027cc:	e07f      	b.n	80028ce <HAL_RCC_ClockConfig+0x1ae>
      }
    }
    /* PLL is selected as System Clock Source */
    else if((RCC_ClkInitStruct->SYSCLKSource == RCC_SYSCLKSOURCE_PLLCLK)   ||
 80027ce:	687b      	ldr	r3, [r7, #4]
 80027d0:	685b      	ldr	r3, [r3, #4]
 80027d2:	2b02      	cmp	r3, #2
 80027d4:	d003      	beq.n	80027de <HAL_RCC_ClockConfig+0xbe>
            (RCC_ClkInitStruct->SYSCLKSource == RCC_SYSCLKSOURCE_PLLRCLK))
 80027d6:	687b      	ldr	r3, [r7, #4]
 80027d8:	685b      	ldr	r3, [r3, #4]
    else if((RCC_ClkInitStruct->SYSCLKSource == RCC_SYSCLKSOURCE_PLLCLK)   ||
 80027da:	2b03      	cmp	r3, #3
 80027dc:	d107      	bne.n	80027ee <HAL_RCC_ClockConfig+0xce>
    {
      /* Check the PLL ready flag */
      if(__HAL_RCC_GET_FLAG(RCC_FLAG_PLLRDY) == RESET)
 80027de:	4b3f      	ldr	r3, [pc, #252]	; (80028dc <HAL_RCC_ClockConfig+0x1bc>)
 80027e0:	681b      	ldr	r3, [r3, #0]
 80027e2:	f003 7300 	and.w	r3, r3, #33554432	; 0x2000000
 80027e6:	2b00      	cmp	r3, #0
 80027e8:	d109      	bne.n	80027fe <HAL_RCC_ClockConfig+0xde>
      {
        return HAL_ERROR;
 80027ea:	2301      	movs	r3, #1
 80027ec:	e06f      	b.n	80028ce <HAL_RCC_ClockConfig+0x1ae>
    }
    /* HSI is selected as System Clock Source */
    else
    {
      /* Check the HSI ready flag */
      if(__HAL_RCC_GET_FLAG(RCC_FLAG_HSIRDY) == RESET)
 80027ee:	4b3b      	ldr	r3, [pc, #236]	; (80028dc <HAL_RCC_ClockConfig+0x1bc>)
 80027f0:	681b      	ldr	r3, [r3, #0]
 80027f2:	f003 0302 	and.w	r3, r3, #2
 80027f6:	2b00      	cmp	r3, #0
 80027f8:	d101      	bne.n	80027fe <HAL_RCC_ClockConfig+0xde>
      {
        return HAL_ERROR;
 80027fa:	2301      	movs	r3, #1
 80027fc:	e067      	b.n	80028ce <HAL_RCC_ClockConfig+0x1ae>
      }
    }

    __HAL_RCC_SYSCLK_CONFIG(RCC_ClkInitStruct->SYSCLKSource);
 80027fe:	4b37      	ldr	r3, [pc, #220]	; (80028dc <HAL_RCC_ClockConfig+0x1bc>)
 8002800:	689b      	ldr	r3, [r3, #8]
 8002802:	f023 0203 	bic.w	r2, r3, #3
 8002806:	687b      	ldr	r3, [r7, #4]
 8002808:	685b      	ldr	r3, [r3, #4]
 800280a:	4934      	ldr	r1, [pc, #208]	; (80028dc <HAL_RCC_ClockConfig+0x1bc>)
 800280c:	4313      	orrs	r3, r2
 800280e:	608b      	str	r3, [r1, #8]

    /* Get Start Tick */
    tickstart = HAL_GetTick();
 8002810:	f7ff f926 	bl	8001a60 <HAL_GetTick>
 8002814:	60f8      	str	r0, [r7, #12]

    while (__HAL_RCC_GET_SYSCLK_SOURCE() != (RCC_ClkInitStruct->SYSCLKSource << RCC_CFGR_SWS_Pos))
 8002816:	e00a      	b.n	800282e <HAL_RCC_ClockConfig+0x10e>
    {
      if ((HAL_GetTick() - tickstart) > CLOCKSWITCH_TIMEOUT_VALUE)
 8002818:	f7ff f922 	bl	8001a60 <HAL_GetTick>
 800281c:	4602      	mov	r2, r0
 800281e:	68fb      	ldr	r3, [r7, #12]
 8002820:	1ad3      	subs	r3, r2, r3
 8002822:	f241 3288 	movw	r2, #5000	; 0x1388
 8002826:	4293      	cmp	r3, r2
 8002828:	d901      	bls.n	800282e <HAL_RCC_ClockConfig+0x10e>
      {
        return HAL_TIMEOUT;
 800282a:	2303      	movs	r3, #3
 800282c:	e04f      	b.n	80028ce <HAL_RCC_ClockConfig+0x1ae>
    while (__HAL_RCC_GET_SYSCLK_SOURCE() != (RCC_ClkInitStruct->SYSCLKSource << RCC_CFGR_SWS_Pos))
 800282e:	4b2b      	ldr	r3, [pc, #172]	; (80028dc <HAL_RCC_ClockConfig+0x1bc>)
 8002830:	689b      	ldr	r3, [r3, #8]
 8002832:	f003 020c 	and.w	r2, r3, #12
 8002836:	687b      	ldr	r3, [r7, #4]
 8002838:	685b      	ldr	r3, [r3, #4]
 800283a:	009b      	lsls	r3, r3, #2
 800283c:	429a      	cmp	r2, r3
 800283e:	d1eb      	bne.n	8002818 <HAL_RCC_ClockConfig+0xf8>
      }
    }
  }

  /* Decreasing the number of wait states because of lower CPU frequency */
  if(FLatency < __HAL_FLASH_GET_LATENCY())
 8002840:	4b25      	ldr	r3, [pc, #148]	; (80028d8 <HAL_RCC_ClockConfig+0x1b8>)
 8002842:	681b      	ldr	r3, [r3, #0]
 8002844:	f003 030f 	and.w	r3, r3, #15
 8002848:	683a      	ldr	r2, [r7, #0]
 800284a:	429a      	cmp	r2, r3
 800284c:	d20c      	bcs.n	8002868 <HAL_RCC_ClockConfig+0x148>
  {
     /* Program the new number of wait states to the LATENCY bits in the FLASH_ACR register */
    __HAL_FLASH_SET_LATENCY(FLatency);
 800284e:	4b22      	ldr	r3, [pc, #136]	; (80028d8 <HAL_RCC_ClockConfig+0x1b8>)
 8002850:	683a      	ldr	r2, [r7, #0]
 8002852:	b2d2      	uxtb	r2, r2
 8002854:	701a      	strb	r2, [r3, #0]

    /* Check that the new number of wait states is taken into account to access the Flash
    memory by reading the FLASH_ACR register */
    if(__HAL_FLASH_GET_LATENCY() != FLatency)
 8002856:	4b20      	ldr	r3, [pc, #128]	; (80028d8 <HAL_RCC_ClockConfig+0x1b8>)
 8002858:	681b      	ldr	r3, [r3, #0]
 800285a:	f003 030f 	and.w	r3, r3, #15
 800285e:	683a      	ldr	r2, [r7, #0]
 8002860:	429a      	cmp	r2, r3
 8002862:	d001      	beq.n	8002868 <HAL_RCC_ClockConfig+0x148>
    {
      return HAL_ERROR;
 8002864:	2301      	movs	r3, #1
 8002866:	e032      	b.n	80028ce <HAL_RCC_ClockConfig+0x1ae>
    }
  }

  /*-------------------------- PCLK1 Configuration ---------------------------*/
  if(((RCC_ClkInitStruct->ClockType) & RCC_CLOCKTYPE_PCLK1) == RCC_CLOCKTYPE_PCLK1)
 8002868:	687b      	ldr	r3, [r7, #4]
 800286a:	681b      	ldr	r3, [r3, #0]
 800286c:	f003 0304 	and.w	r3, r3, #4
 8002870:	2b00      	cmp	r3, #0
 8002872:	d008      	beq.n	8002886 <HAL_RCC_ClockConfig+0x166>
  {
    assert_param(IS_RCC_PCLK(RCC_ClkInitStruct->APB1CLKDivider));
    MODIFY_REG(RCC->CFGR, RCC_CFGR_PPRE1, RCC_ClkInitStruct->APB1CLKDivider);
 8002874:	4b19      	ldr	r3, [pc, #100]	; (80028dc <HAL_RCC_ClockConfig+0x1bc>)
 8002876:	689b      	ldr	r3, [r3, #8]
 8002878:	f423 52e0 	bic.w	r2, r3, #7168	; 0x1c00
 800287c:	687b      	ldr	r3, [r7, #4]
 800287e:	68db      	ldr	r3, [r3, #12]
 8002880:	4916      	ldr	r1, [pc, #88]	; (80028dc <HAL_RCC_ClockConfig+0x1bc>)
 8002882:	4313      	orrs	r3, r2
 8002884:	608b      	str	r3, [r1, #8]
  }

  /*-------------------------- PCLK2 Configuration ---------------------------*/
  if(((RCC_ClkInitStruct->ClockType) & RCC_CLOCKTYPE_PCLK2) == RCC_CLOCKTYPE_PCLK2)
 8002886:	687b      	ldr	r3, [r7, #4]
 8002888:	681b      	ldr	r3, [r3, #0]
 800288a:	f003 0308 	and.w	r3, r3, #8
 800288e:	2b00      	cmp	r3, #0
 8002890:	d009      	beq.n	80028a6 <HAL_RCC_ClockConfig+0x186>
  {
    assert_param(IS_RCC_PCLK(RCC_ClkInitStruct->APB2CLKDivider));
    MODIFY_REG(RCC->CFGR, RCC_CFGR_PPRE2, ((RCC_ClkInitStruct->APB2CLKDivider) << 3U));
 8002892:	4b12      	ldr	r3, [pc, #72]	; (80028dc <HAL_RCC_ClockConfig+0x1bc>)
 8002894:	689b      	ldr	r3, [r3, #8]
 8002896:	f423 4260 	bic.w	r2, r3, #57344	; 0xe000
 800289a:	687b      	ldr	r3, [r7, #4]
 800289c:	691b      	ldr	r3, [r3, #16]
 800289e:	00db      	lsls	r3, r3, #3
 80028a0:	490e      	ldr	r1, [pc, #56]	; (80028dc <HAL_RCC_ClockConfig+0x1bc>)
 80028a2:	4313      	orrs	r3, r2
 80028a4:	608b      	str	r3, [r1, #8]
  }

  /* Update the SystemCoreClock global variable */
  SystemCoreClock = HAL_RCC_GetSysClockFreq() >> AHBPrescTable[(RCC->CFGR & RCC_CFGR_HPRE)>> RCC_CFGR_HPRE_Pos];
 80028a6:	f000 f855 	bl	8002954 <HAL_RCC_GetSysClockFreq>
 80028aa:	4602      	mov	r2, r0
 80028ac:	4b0b      	ldr	r3, [pc, #44]	; (80028dc <HAL_RCC_ClockConfig+0x1bc>)
 80028ae:	689b      	ldr	r3, [r3, #8]
 80028b0:	091b      	lsrs	r3, r3, #4
 80028b2:	f003 030f 	and.w	r3, r3, #15
 80028b6:	490a      	ldr	r1, [pc, #40]	; (80028e0 <HAL_RCC_ClockConfig+0x1c0>)
 80028b8:	5ccb      	ldrb	r3, [r1, r3]
 80028ba:	fa22 f303 	lsr.w	r3, r2, r3
 80028be:	4a09      	ldr	r2, [pc, #36]	; (80028e4 <HAL_RCC_ClockConfig+0x1c4>)
 80028c0:	6013      	str	r3, [r2, #0]

  /* Configure the source of time base considering new system clocks settings */
  HAL_InitTick (uwTickPrio);
 80028c2:	4b09      	ldr	r3, [pc, #36]	; (80028e8 <HAL_RCC_ClockConfig+0x1c8>)
 80028c4:	681b      	ldr	r3, [r3, #0]
 80028c6:	4618      	mov	r0, r3
 80028c8:	f7ff f886 	bl	80019d8 <HAL_InitTick>

  return HAL_OK;
 80028cc:	2300      	movs	r3, #0
}
 80028ce:	4618      	mov	r0, r3
 80028d0:	3710      	adds	r7, #16
 80028d2:	46bd      	mov	sp, r7
 80028d4:	bd80      	pop	{r7, pc}
 80028d6:	bf00      	nop
 80028d8:	40023c00 	.word	0x40023c00
 80028dc:	40023800 	.word	0x40023800
 80028e0:	080091c8 	.word	0x080091c8
 80028e4:	20000000 	.word	0x20000000
 80028e8:	20000004 	.word	0x20000004

080028ec <HAL_RCC_GetHCLKFreq>:
  * @note   The SystemCoreClock CMSIS variable is used to store System Clock Frequency
  *         and updated within this function
  * @retval HCLK frequency
  */
uint32_t HAL_RCC_GetHCLKFreq(void)
{
 80028ec:	b480      	push	{r7}
 80028ee:	af00      	add	r7, sp, #0
  return SystemCoreClock;
 80028f0:	4b03      	ldr	r3, [pc, #12]	; (8002900 <HAL_RCC_GetHCLKFreq+0x14>)
 80028f2:	681b      	ldr	r3, [r3, #0]
}
 80028f4:	4618      	mov	r0, r3
 80028f6:	46bd      	mov	sp, r7
 80028f8:	f85d 7b04 	ldr.w	r7, [sp], #4
 80028fc:	4770      	bx	lr
 80028fe:	bf00      	nop
 8002900:	20000000 	.word	0x20000000

08002904 <HAL_RCC_GetPCLK1Freq>:
  * @note   Each time PCLK1 changes, this function must be called to update the
  *         right PCLK1 value. Otherwise, any configuration based on this function will be incorrect.
  * @retval PCLK1 frequency
  */
uint32_t HAL_RCC_GetPCLK1Freq(void)
{
 8002904:	b580      	push	{r7, lr}
 8002906:	af00      	add	r7, sp, #0
  /* Get HCLK source and Compute PCLK1 frequency ---------------------------*/
  return (HAL_RCC_GetHCLKFreq() >> APBPrescTable[(RCC->CFGR & RCC_CFGR_PPRE1)>> RCC_CFGR_PPRE1_Pos]);
 8002908:	f7ff fff0 	bl	80028ec <HAL_RCC_GetHCLKFreq>
 800290c:	4602      	mov	r2, r0
 800290e:	4b05      	ldr	r3, [pc, #20]	; (8002924 <HAL_RCC_GetPCLK1Freq+0x20>)
 8002910:	689b      	ldr	r3, [r3, #8]
 8002912:	0a9b      	lsrs	r3, r3, #10
 8002914:	f003 0307 	and.w	r3, r3, #7
 8002918:	4903      	ldr	r1, [pc, #12]	; (8002928 <HAL_RCC_GetPCLK1Freq+0x24>)
 800291a:	5ccb      	ldrb	r3, [r1, r3]
 800291c:	fa22 f303 	lsr.w	r3, r2, r3
}
 8002920:	4618      	mov	r0, r3
 8002922:	bd80      	pop	{r7, pc}
 8002924:	40023800 	.word	0x40023800
 8002928:	080091d8 	.word	0x080091d8

0800292c <HAL_RCC_GetPCLK2Freq>:
  * @note   Each time PCLK2 changes, this function must be called to update the
  *         right PCLK2 value. Otherwise, any configuration based on this function will be incorrect.
  * @retval PCLK2 frequency
  */
uint32_t HAL_RCC_GetPCLK2Freq(void)
{
 800292c:	b580      	push	{r7, lr}
 800292e:	af00      	add	r7, sp, #0
  /* Get HCLK source and Compute PCLK2 frequency ---------------------------*/
  return (HAL_RCC_GetHCLKFreq()>> APBPrescTable[(RCC->CFGR & RCC_CFGR_PPRE2)>> RCC_CFGR_PPRE2_Pos]);
 8002930:	f7ff ffdc 	bl	80028ec <HAL_RCC_GetHCLKFreq>
 8002934:	4602      	mov	r2, r0
 8002936:	4b05      	ldr	r3, [pc, #20]	; (800294c <HAL_RCC_GetPCLK2Freq+0x20>)
 8002938:	689b      	ldr	r3, [r3, #8]
 800293a:	0b5b      	lsrs	r3, r3, #13
 800293c:	f003 0307 	and.w	r3, r3, #7
 8002940:	4903      	ldr	r1, [pc, #12]	; (8002950 <HAL_RCC_GetPCLK2Freq+0x24>)
 8002942:	5ccb      	ldrb	r3, [r1, r3]
 8002944:	fa22 f303 	lsr.w	r3, r2, r3
}
 8002948:	4618      	mov	r0, r3
 800294a:	bd80      	pop	{r7, pc}
 800294c:	40023800 	.word	0x40023800
 8002950:	080091d8 	.word	0x080091d8

08002954 <HAL_RCC_GetSysClockFreq>:
  *
  *
  * @retval SYSCLK frequency
  */
uint32_t HAL_RCC_GetSysClockFreq(void)
{
 8002954:	e92d 4fb0 	stmdb	sp!, {r4, r5, r7, r8, r9, sl, fp, lr}
 8002958:	b0ae      	sub	sp, #184	; 0xb8
 800295a:	af00      	add	r7, sp, #0
  uint32_t pllm = 0U;
 800295c:	2300      	movs	r3, #0
 800295e:	f8c7 30ac 	str.w	r3, [r7, #172]	; 0xac
  uint32_t pllvco = 0U;
 8002962:	2300      	movs	r3, #0
 8002964:	f8c7 30b4 	str.w	r3, [r7, #180]	; 0xb4
  uint32_t pllp = 0U;
 8002968:	2300      	movs	r3, #0
 800296a:	f8c7 30a8 	str.w	r3, [r7, #168]	; 0xa8
  uint32_t pllr = 0U;
 800296e:	2300      	movs	r3, #0
 8002970:	f8c7 30a4 	str.w	r3, [r7, #164]	; 0xa4
  uint32_t sysclockfreq = 0U;
 8002974:	2300      	movs	r3, #0
 8002976:	f8c7 30b0 	str.w	r3, [r7, #176]	; 0xb0

  /* Get SYSCLK source -------------------------------------------------------*/
  switch (RCC->CFGR & RCC_CFGR_SWS)
 800297a:	4bcb      	ldr	r3, [pc, #812]	; (8002ca8 <HAL_RCC_GetSysClockFreq+0x354>)
 800297c:	689b      	ldr	r3, [r3, #8]
 800297e:	f003 030c 	and.w	r3, r3, #12
 8002982:	2b0c      	cmp	r3, #12
 8002984:	f200 8206 	bhi.w	8002d94 <HAL_RCC_GetSysClockFreq+0x440>
 8002988:	a201      	add	r2, pc, #4	; (adr r2, 8002990 <HAL_RCC_GetSysClockFreq+0x3c>)
 800298a:	f852 f023 	ldr.w	pc, [r2, r3, lsl #2]
 800298e:	bf00      	nop
 8002990:	080029c5 	.word	0x080029c5
 8002994:	08002d95 	.word	0x08002d95
 8002998:	08002d95 	.word	0x08002d95
 800299c:	08002d95 	.word	0x08002d95
 80029a0:	080029cd 	.word	0x080029cd
 80029a4:	08002d95 	.word	0x08002d95
 80029a8:	08002d95 	.word	0x08002d95
 80029ac:	08002d95 	.word	0x08002d95
 80029b0:	080029d5 	.word	0x080029d5
 80029b4:	08002d95 	.word	0x08002d95
 80029b8:	08002d95 	.word	0x08002d95
 80029bc:	08002d95 	.word	0x08002d95
 80029c0:	08002bc5 	.word	0x08002bc5
  {
    case RCC_CFGR_SWS_HSI:  /* HSI used as system clock source */
    {
      sysclockfreq = HSI_VALUE;
 80029c4:	4bb9      	ldr	r3, [pc, #740]	; (8002cac <HAL_RCC_GetSysClockFreq+0x358>)
 80029c6:	f8c7 30b0 	str.w	r3, [r7, #176]	; 0xb0
       break;
 80029ca:	e1e7      	b.n	8002d9c <HAL_RCC_GetSysClockFreq+0x448>
    }
    case RCC_CFGR_SWS_HSE:  /* HSE used as system clock  source */
    {
      sysclockfreq = HSE_VALUE;
 80029cc:	4bb8      	ldr	r3, [pc, #736]	; (8002cb0 <HAL_RCC_GetSysClockFreq+0x35c>)
 80029ce:	f8c7 30b0 	str.w	r3, [r7, #176]	; 0xb0
      break;
 80029d2:	e1e3      	b.n	8002d9c <HAL_RCC_GetSysClockFreq+0x448>
    }
    case RCC_CFGR_SWS_PLL:  /* PLL/PLLP used as system clock  source */
    {
      /* PLL_VCO = (HSE_VALUE or HSI_VALUE / PLLM) * PLLN
      SYSCLK = PLL_VCO / PLLP */
      pllm = RCC->PLLCFGR & RCC_PLLCFGR_PLLM;
 80029d4:	4bb4      	ldr	r3, [pc, #720]	; (8002ca8 <HAL_RCC_GetSysClockFreq+0x354>)
 80029d6:	685b      	ldr	r3, [r3, #4]
 80029d8:	f003 033f 	and.w	r3, r3, #63	; 0x3f
 80029dc:	f8c7 30ac 	str.w	r3, [r7, #172]	; 0xac
      if(__HAL_RCC_GET_PLL_OSCSOURCE() != RCC_PLLSOURCE_HSI)
 80029e0:	4bb1      	ldr	r3, [pc, #708]	; (8002ca8 <HAL_RCC_GetSysClockFreq+0x354>)
 80029e2:	685b      	ldr	r3, [r3, #4]
 80029e4:	f403 0380 	and.w	r3, r3, #4194304	; 0x400000
 80029e8:	2b00      	cmp	r3, #0
 80029ea:	d071      	beq.n	8002ad0 <HAL_RCC_GetSysClockFreq+0x17c>
      {
        /* HSE used as PLL clock source */
        pllvco = (uint32_t) ((((uint64_t) HSE_VALUE * ((uint64_t) ((RCC->PLLCFGR & RCC_PLLCFGR_PLLN) >> RCC_PLLCFGR_PLLN_Pos)))) / (uint64_t)pllm);
 80029ec:	4bae      	ldr	r3, [pc, #696]	; (8002ca8 <HAL_RCC_GetSysClockFreq+0x354>)
 80029ee:	685b      	ldr	r3, [r3, #4]
 80029f0:	099b      	lsrs	r3, r3, #6
 80029f2:	2200      	movs	r2, #0
 80029f4:	f8c7 3098 	str.w	r3, [r7, #152]	; 0x98
 80029f8:	f8c7 209c 	str.w	r2, [r7, #156]	; 0x9c
 80029fc:	f8d7 3098 	ldr.w	r3, [r7, #152]	; 0x98
 8002a00:	f3c3 0308 	ubfx	r3, r3, #0, #9
 8002a04:	f8c7 3090 	str.w	r3, [r7, #144]	; 0x90
 8002a08:	2300      	movs	r3, #0
 8002a0a:	f8c7 3094 	str.w	r3, [r7, #148]	; 0x94
 8002a0e:	e9d7 4524 	ldrd	r4, r5, [r7, #144]	; 0x90
 8002a12:	4622      	mov	r2, r4
 8002a14:	462b      	mov	r3, r5
 8002a16:	f04f 0000 	mov.w	r0, #0
 8002a1a:	f04f 0100 	mov.w	r1, #0
 8002a1e:	0159      	lsls	r1, r3, #5
 8002a20:	ea41 61d2 	orr.w	r1, r1, r2, lsr #27
 8002a24:	0150      	lsls	r0, r2, #5
 8002a26:	4602      	mov	r2, r0
 8002a28:	460b      	mov	r3, r1
 8002a2a:	4621      	mov	r1, r4
 8002a2c:	1a51      	subs	r1, r2, r1
 8002a2e:	6439      	str	r1, [r7, #64]	; 0x40
 8002a30:	4629      	mov	r1, r5
 8002a32:	eb63 0301 	sbc.w	r3, r3, r1
 8002a36:	647b      	str	r3, [r7, #68]	; 0x44
 8002a38:	f04f 0200 	mov.w	r2, #0
 8002a3c:	f04f 0300 	mov.w	r3, #0
 8002a40:	e9d7 8910 	ldrd	r8, r9, [r7, #64]	; 0x40
 8002a44:	4649      	mov	r1, r9
 8002a46:	018b      	lsls	r3, r1, #6
 8002a48:	4641      	mov	r1, r8
 8002a4a:	ea43 6391 	orr.w	r3, r3, r1, lsr #26
 8002a4e:	4641      	mov	r1, r8
 8002a50:	018a      	lsls	r2, r1, #6
 8002a52:	4641      	mov	r1, r8
 8002a54:	1a51      	subs	r1, r2, r1
 8002a56:	63b9      	str	r1, [r7, #56]	; 0x38
 8002a58:	4649      	mov	r1, r9
 8002a5a:	eb63 0301 	sbc.w	r3, r3, r1
 8002a5e:	63fb      	str	r3, [r7, #60]	; 0x3c
 8002a60:	f04f 0200 	mov.w	r2, #0
 8002a64:	f04f 0300 	mov.w	r3, #0
 8002a68:	e9d7 890e 	ldrd	r8, r9, [r7, #56]	; 0x38
 8002a6c:	4649      	mov	r1, r9
 8002a6e:	00cb      	lsls	r3, r1, #3
 8002a70:	4641      	mov	r1, r8
 8002a72:	ea43 7351 	orr.w	r3, r3, r1, lsr #29
 8002a76:	4641      	mov	r1, r8
 8002a78:	00ca      	lsls	r2, r1, #3
 8002a7a:	4610      	mov	r0, r2
 8002a7c:	4619      	mov	r1, r3
 8002a7e:	4603      	mov	r3, r0
 8002a80:	4622      	mov	r2, r4
 8002a82:	189b      	adds	r3, r3, r2
 8002a84:	633b      	str	r3, [r7, #48]	; 0x30
 8002a86:	462b      	mov	r3, r5
 8002a88:	460a      	mov	r2, r1
 8002a8a:	eb42 0303 	adc.w	r3, r2, r3
 8002a8e:	637b      	str	r3, [r7, #52]	; 0x34
 8002a90:	f04f 0200 	mov.w	r2, #0
 8002a94:	f04f 0300 	mov.w	r3, #0
 8002a98:	e9d7 450c 	ldrd	r4, r5, [r7, #48]	; 0x30
 8002a9c:	4629      	mov	r1, r5
 8002a9e:	024b      	lsls	r3, r1, #9
 8002aa0:	4621      	mov	r1, r4
 8002aa2:	ea43 53d1 	orr.w	r3, r3, r1, lsr #23
 8002aa6:	4621      	mov	r1, r4
 8002aa8:	024a      	lsls	r2, r1, #9
 8002aaa:	4610      	mov	r0, r2
 8002aac:	4619      	mov	r1, r3
 8002aae:	f8d7 30ac 	ldr.w	r3, [r7, #172]	; 0xac
 8002ab2:	2200      	movs	r2, #0
 8002ab4:	f8c7 3088 	str.w	r3, [r7, #136]	; 0x88
 8002ab8:	f8c7 208c 	str.w	r2, [r7, #140]	; 0x8c
 8002abc:	e9d7 2322 	ldrd	r2, r3, [r7, #136]	; 0x88
 8002ac0:	f7fe f902 	bl	8000cc8 <__aeabi_uldivmod>
 8002ac4:	4602      	mov	r2, r0
 8002ac6:	460b      	mov	r3, r1
 8002ac8:	4613      	mov	r3, r2
 8002aca:	f8c7 30b4 	str.w	r3, [r7, #180]	; 0xb4
 8002ace:	e067      	b.n	8002ba0 <HAL_RCC_GetSysClockFreq+0x24c>
      }
      else
      {
        /* HSI used as PLL clock source */
        pllvco = (uint32_t) ((((uint64_t) HSI_VALUE * ((uint64_t) ((RCC->PLLCFGR & RCC_PLLCFGR_PLLN) >> RCC_PLLCFGR_PLLN_Pos)))) / (uint64_t)pllm);
 8002ad0:	4b75      	ldr	r3, [pc, #468]	; (8002ca8 <HAL_RCC_GetSysClockFreq+0x354>)
 8002ad2:	685b      	ldr	r3, [r3, #4]
 8002ad4:	099b      	lsrs	r3, r3, #6
 8002ad6:	2200      	movs	r2, #0
 8002ad8:	f8c7 3080 	str.w	r3, [r7, #128]	; 0x80
 8002adc:	f8c7 2084 	str.w	r2, [r7, #132]	; 0x84
 8002ae0:	f8d7 3080 	ldr.w	r3, [r7, #128]	; 0x80
 8002ae4:	f3c3 0308 	ubfx	r3, r3, #0, #9
 8002ae8:	67bb      	str	r3, [r7, #120]	; 0x78
 8002aea:	2300      	movs	r3, #0
 8002aec:	67fb      	str	r3, [r7, #124]	; 0x7c
 8002aee:	e9d7 451e 	ldrd	r4, r5, [r7, #120]	; 0x78
 8002af2:	4622      	mov	r2, r4
 8002af4:	462b      	mov	r3, r5
 8002af6:	f04f 0000 	mov.w	r0, #0
 8002afa:	f04f 0100 	mov.w	r1, #0
 8002afe:	0159      	lsls	r1, r3, #5
 8002b00:	ea41 61d2 	orr.w	r1, r1, r2, lsr #27
 8002b04:	0150      	lsls	r0, r2, #5
 8002b06:	4602      	mov	r2, r0
 8002b08:	460b      	mov	r3, r1
 8002b0a:	4621      	mov	r1, r4
 8002b0c:	1a51      	subs	r1, r2, r1
 8002b0e:	62b9      	str	r1, [r7, #40]	; 0x28
 8002b10:	4629      	mov	r1, r5
 8002b12:	eb63 0301 	sbc.w	r3, r3, r1
 8002b16:	62fb      	str	r3, [r7, #44]	; 0x2c
 8002b18:	f04f 0200 	mov.w	r2, #0
 8002b1c:	f04f 0300 	mov.w	r3, #0
 8002b20:	e9d7 890a 	ldrd	r8, r9, [r7, #40]	; 0x28
 8002b24:	4649      	mov	r1, r9
 8002b26:	018b      	lsls	r3, r1, #6
 8002b28:	4641      	mov	r1, r8
 8002b2a:	ea43 6391 	orr.w	r3, r3, r1, lsr #26
 8002b2e:	4641      	mov	r1, r8
 8002b30:	018a      	lsls	r2, r1, #6
 8002b32:	4641      	mov	r1, r8
 8002b34:	ebb2 0a01 	subs.w	sl, r2, r1
 8002b38:	4649      	mov	r1, r9
 8002b3a:	eb63 0b01 	sbc.w	fp, r3, r1
 8002b3e:	f04f 0200 	mov.w	r2, #0
 8002b42:	f04f 0300 	mov.w	r3, #0
 8002b46:	ea4f 03cb 	mov.w	r3, fp, lsl #3
 8002b4a:	ea43 735a 	orr.w	r3, r3, sl, lsr #29
 8002b4e:	ea4f 02ca 	mov.w	r2, sl, lsl #3
 8002b52:	4692      	mov	sl, r2
 8002b54:	469b      	mov	fp, r3
 8002b56:	4623      	mov	r3, r4
 8002b58:	eb1a 0303 	adds.w	r3, sl, r3
 8002b5c:	623b      	str	r3, [r7, #32]
 8002b5e:	462b      	mov	r3, r5
 8002b60:	eb4b 0303 	adc.w	r3, fp, r3
 8002b64:	627b      	str	r3, [r7, #36]	; 0x24
 8002b66:	f04f 0200 	mov.w	r2, #0
 8002b6a:	f04f 0300 	mov.w	r3, #0
 8002b6e:	e9d7 4508 	ldrd	r4, r5, [r7, #32]
 8002b72:	4629      	mov	r1, r5
 8002b74:	028b      	lsls	r3, r1, #10
 8002b76:	4621      	mov	r1, r4
 8002b78:	ea43 5391 	orr.w	r3, r3, r1, lsr #22
 8002b7c:	4621      	mov	r1, r4
 8002b7e:	028a      	lsls	r2, r1, #10
 8002b80:	4610      	mov	r0, r2
 8002b82:	4619      	mov	r1, r3
 8002b84:	f8d7 30ac 	ldr.w	r3, [r7, #172]	; 0xac
 8002b88:	2200      	movs	r2, #0
 8002b8a:	673b      	str	r3, [r7, #112]	; 0x70
 8002b8c:	677a      	str	r2, [r7, #116]	; 0x74
 8002b8e:	e9d7 231c 	ldrd	r2, r3, [r7, #112]	; 0x70
 8002b92:	f7fe f899 	bl	8000cc8 <__aeabi_uldivmod>
 8002b96:	4602      	mov	r2, r0
 8002b98:	460b      	mov	r3, r1
 8002b9a:	4613      	mov	r3, r2
 8002b9c:	f8c7 30b4 	str.w	r3, [r7, #180]	; 0xb4
      }
      pllp = ((((RCC->PLLCFGR & RCC_PLLCFGR_PLLP) >> RCC_PLLCFGR_PLLP_Pos) + 1U) *2U);
 8002ba0:	4b41      	ldr	r3, [pc, #260]	; (8002ca8 <HAL_RCC_GetSysClockFreq+0x354>)
 8002ba2:	685b      	ldr	r3, [r3, #4]
 8002ba4:	0c1b      	lsrs	r3, r3, #16
 8002ba6:	f003 0303 	and.w	r3, r3, #3
 8002baa:	3301      	adds	r3, #1
 8002bac:	005b      	lsls	r3, r3, #1
 8002bae:	f8c7 30a8 	str.w	r3, [r7, #168]	; 0xa8

      sysclockfreq = pllvco/pllp;
 8002bb2:	f8d7 20b4 	ldr.w	r2, [r7, #180]	; 0xb4
 8002bb6:	f8d7 30a8 	ldr.w	r3, [r7, #168]	; 0xa8
 8002bba:	fbb2 f3f3 	udiv	r3, r2, r3
 8002bbe:	f8c7 30b0 	str.w	r3, [r7, #176]	; 0xb0
      break;
 8002bc2:	e0eb      	b.n	8002d9c <HAL_RCC_GetSysClockFreq+0x448>
    }
    case RCC_CFGR_SWS_PLLR:  /* PLL/PLLR used as system clock  source */
    {
      /* PLL_VCO = (HSE_VALUE or HSI_VALUE / PLLM) * PLLN
      SYSCLK = PLL_VCO / PLLR */
      pllm = RCC->PLLCFGR & RCC_PLLCFGR_PLLM;
 8002bc4:	4b38      	ldr	r3, [pc, #224]	; (8002ca8 <HAL_RCC_GetSysClockFreq+0x354>)
 8002bc6:	685b      	ldr	r3, [r3, #4]
 8002bc8:	f003 033f 	and.w	r3, r3, #63	; 0x3f
 8002bcc:	f8c7 30ac 	str.w	r3, [r7, #172]	; 0xac
      if(__HAL_RCC_GET_PLL_OSCSOURCE() != RCC_PLLSOURCE_HSI)
 8002bd0:	4b35      	ldr	r3, [pc, #212]	; (8002ca8 <HAL_RCC_GetSysClockFreq+0x354>)
 8002bd2:	685b      	ldr	r3, [r3, #4]
 8002bd4:	f403 0380 	and.w	r3, r3, #4194304	; 0x400000
 8002bd8:	2b00      	cmp	r3, #0
 8002bda:	d06b      	beq.n	8002cb4 <HAL_RCC_GetSysClockFreq+0x360>
      {
        /* HSE used as PLL clock source */
        pllvco = (uint32_t) ((((uint64_t) HSE_VALUE * ((uint64_t) ((RCC->PLLCFGR & RCC_PLLCFGR_PLLN) >> RCC_PLLCFGR_PLLN_Pos)))) / (uint64_t)pllm);
 8002bdc:	4b32      	ldr	r3, [pc, #200]	; (8002ca8 <HAL_RCC_GetSysClockFreq+0x354>)
 8002bde:	685b      	ldr	r3, [r3, #4]
 8002be0:	099b      	lsrs	r3, r3, #6
 8002be2:	2200      	movs	r2, #0
 8002be4:	66bb      	str	r3, [r7, #104]	; 0x68
 8002be6:	66fa      	str	r2, [r7, #108]	; 0x6c
 8002be8:	6ebb      	ldr	r3, [r7, #104]	; 0x68
 8002bea:	f3c3 0308 	ubfx	r3, r3, #0, #9
 8002bee:	663b      	str	r3, [r7, #96]	; 0x60
 8002bf0:	2300      	movs	r3, #0
 8002bf2:	667b      	str	r3, [r7, #100]	; 0x64
 8002bf4:	e9d7 4518 	ldrd	r4, r5, [r7, #96]	; 0x60
 8002bf8:	4622      	mov	r2, r4
 8002bfa:	462b      	mov	r3, r5
 8002bfc:	f04f 0000 	mov.w	r0, #0
 8002c00:	f04f 0100 	mov.w	r1, #0
 8002c04:	0159      	lsls	r1, r3, #5
 8002c06:	ea41 61d2 	orr.w	r1, r1, r2, lsr #27
 8002c0a:	0150      	lsls	r0, r2, #5
 8002c0c:	4602      	mov	r2, r0
 8002c0e:	460b      	mov	r3, r1
 8002c10:	4621      	mov	r1, r4
 8002c12:	1a51      	subs	r1, r2, r1
 8002c14:	61b9      	str	r1, [r7, #24]
 8002c16:	4629      	mov	r1, r5
 8002c18:	eb63 0301 	sbc.w	r3, r3, r1
 8002c1c:	61fb      	str	r3, [r7, #28]
 8002c1e:	f04f 0200 	mov.w	r2, #0
 8002c22:	f04f 0300 	mov.w	r3, #0
 8002c26:	e9d7 ab06 	ldrd	sl, fp, [r7, #24]
 8002c2a:	4659      	mov	r1, fp
 8002c2c:	018b      	lsls	r3, r1, #6
 8002c2e:	4651      	mov	r1, sl
 8002c30:	ea43 6391 	orr.w	r3, r3, r1, lsr #26
 8002c34:	4651      	mov	r1, sl
 8002c36:	018a      	lsls	r2, r1, #6
 8002c38:	4651      	mov	r1, sl
 8002c3a:	ebb2 0801 	subs.w	r8, r2, r1
 8002c3e:	4659      	mov	r1, fp
 8002c40:	eb63 0901 	sbc.w	r9, r3, r1
 8002c44:	f04f 0200 	mov.w	r2, #0
 8002c48:	f04f 0300 	mov.w	r3, #0
 8002c4c:	ea4f 03c9 	mov.w	r3, r9, lsl #3
 8002c50:	ea43 7358 	orr.w	r3, r3, r8, lsr #29
 8002c54:	ea4f 02c8 	mov.w	r2, r8, lsl #3
 8002c58:	4690      	mov	r8, r2
 8002c5a:	4699      	mov	r9, r3
 8002c5c:	4623      	mov	r3, r4
 8002c5e:	eb18 0303 	adds.w	r3, r8, r3
 8002c62:	613b      	str	r3, [r7, #16]
 8002c64:	462b      	mov	r3, r5
 8002c66:	eb49 0303 	adc.w	r3, r9, r3
 8002c6a:	617b      	str	r3, [r7, #20]
 8002c6c:	f04f 0200 	mov.w	r2, #0
 8002c70:	f04f 0300 	mov.w	r3, #0
 8002c74:	e9d7 4504 	ldrd	r4, r5, [r7, #16]
 8002c78:	4629      	mov	r1, r5
 8002c7a:	024b      	lsls	r3, r1, #9
 8002c7c:	4621      	mov	r1, r4
 8002c7e:	ea43 53d1 	orr.w	r3, r3, r1, lsr #23
 8002c82:	4621      	mov	r1, r4
 8002c84:	024a      	lsls	r2, r1, #9
 8002c86:	4610      	mov	r0, r2
 8002c88:	4619      	mov	r1, r3
 8002c8a:	f8d7 30ac 	ldr.w	r3, [r7, #172]	; 0xac
 8002c8e:	2200      	movs	r2, #0
 8002c90:	65bb      	str	r3, [r7, #88]	; 0x58
 8002c92:	65fa      	str	r2, [r7, #92]	; 0x5c
 8002c94:	e9d7 2316 	ldrd	r2, r3, [r7, #88]	; 0x58
 8002c98:	f7fe f816 	bl	8000cc8 <__aeabi_uldivmod>
 8002c9c:	4602      	mov	r2, r0
 8002c9e:	460b      	mov	r3, r1
 8002ca0:	4613      	mov	r3, r2
 8002ca2:	f8c7 30b4 	str.w	r3, [r7, #180]	; 0xb4
 8002ca6:	e065      	b.n	8002d74 <HAL_RCC_GetSysClockFreq+0x420>
 8002ca8:	40023800 	.word	0x40023800
 8002cac:	00f42400 	.word	0x00f42400
 8002cb0:	007a1200 	.word	0x007a1200
      }
      else
      {
        /* HSI used as PLL clock source */
        pllvco = (uint32_t) ((((uint64_t) HSI_VALUE * ((uint64_t) ((RCC->PLLCFGR & RCC_PLLCFGR_PLLN) >> RCC_PLLCFGR_PLLN_Pos)))) / (uint64_t)pllm);
 8002cb4:	4b3d      	ldr	r3, [pc, #244]	; (8002dac <HAL_RCC_GetSysClockFreq+0x458>)
 8002cb6:	685b      	ldr	r3, [r3, #4]
 8002cb8:	099b      	lsrs	r3, r3, #6
 8002cba:	2200      	movs	r2, #0
 8002cbc:	4618      	mov	r0, r3
 8002cbe:	4611      	mov	r1, r2
 8002cc0:	f3c0 0308 	ubfx	r3, r0, #0, #9
 8002cc4:	653b      	str	r3, [r7, #80]	; 0x50
 8002cc6:	2300      	movs	r3, #0
 8002cc8:	657b      	str	r3, [r7, #84]	; 0x54
 8002cca:	e9d7 8914 	ldrd	r8, r9, [r7, #80]	; 0x50
 8002cce:	4642      	mov	r2, r8
 8002cd0:	464b      	mov	r3, r9
 8002cd2:	f04f 0000 	mov.w	r0, #0
 8002cd6:	f04f 0100 	mov.w	r1, #0
 8002cda:	0159      	lsls	r1, r3, #5
 8002cdc:	ea41 61d2 	orr.w	r1, r1, r2, lsr #27
 8002ce0:	0150      	lsls	r0, r2, #5
 8002ce2:	4602      	mov	r2, r0
 8002ce4:	460b      	mov	r3, r1
 8002ce6:	4641      	mov	r1, r8
 8002ce8:	1a51      	subs	r1, r2, r1
 8002cea:	60b9      	str	r1, [r7, #8]
 8002cec:	4649      	mov	r1, r9
 8002cee:	eb63 0301 	sbc.w	r3, r3, r1
 8002cf2:	60fb      	str	r3, [r7, #12]
 8002cf4:	f04f 0200 	mov.w	r2, #0
 8002cf8:	f04f 0300 	mov.w	r3, #0
 8002cfc:	e9d7 ab02 	ldrd	sl, fp, [r7, #8]
 8002d00:	4659      	mov	r1, fp
 8002d02:	018b      	lsls	r3, r1, #6
 8002d04:	4651      	mov	r1, sl
 8002d06:	ea43 6391 	orr.w	r3, r3, r1, lsr #26
 8002d0a:	4651      	mov	r1, sl
 8002d0c:	018a      	lsls	r2, r1, #6
 8002d0e:	4651      	mov	r1, sl
 8002d10:	1a54      	subs	r4, r2, r1
 8002d12:	4659      	mov	r1, fp
 8002d14:	eb63 0501 	sbc.w	r5, r3, r1
 8002d18:	f04f 0200 	mov.w	r2, #0
 8002d1c:	f04f 0300 	mov.w	r3, #0
 8002d20:	00eb      	lsls	r3, r5, #3
 8002d22:	ea43 7354 	orr.w	r3, r3, r4, lsr #29
 8002d26:	00e2      	lsls	r2, r4, #3
 8002d28:	4614      	mov	r4, r2
 8002d2a:	461d      	mov	r5, r3
 8002d2c:	4643      	mov	r3, r8
 8002d2e:	18e3      	adds	r3, r4, r3
 8002d30:	603b      	str	r3, [r7, #0]
 8002d32:	464b      	mov	r3, r9
 8002d34:	eb45 0303 	adc.w	r3, r5, r3
 8002d38:	607b      	str	r3, [r7, #4]
 8002d3a:	f04f 0200 	mov.w	r2, #0
 8002d3e:	f04f 0300 	mov.w	r3, #0
 8002d42:	e9d7 4500 	ldrd	r4, r5, [r7]
 8002d46:	4629      	mov	r1, r5
 8002d48:	028b      	lsls	r3, r1, #10
 8002d4a:	4621      	mov	r1, r4
 8002d4c:	ea43 5391 	orr.w	r3, r3, r1, lsr #22
 8002d50:	4621      	mov	r1, r4
 8002d52:	028a      	lsls	r2, r1, #10
 8002d54:	4610      	mov	r0, r2
 8002d56:	4619      	mov	r1, r3
 8002d58:	f8d7 30ac 	ldr.w	r3, [r7, #172]	; 0xac
 8002d5c:	2200      	movs	r2, #0
 8002d5e:	64bb      	str	r3, [r7, #72]	; 0x48
 8002d60:	64fa      	str	r2, [r7, #76]	; 0x4c
 8002d62:	e9d7 2312 	ldrd	r2, r3, [r7, #72]	; 0x48
 8002d66:	f7fd ffaf 	bl	8000cc8 <__aeabi_uldivmod>
 8002d6a:	4602      	mov	r2, r0
 8002d6c:	460b      	mov	r3, r1
 8002d6e:	4613      	mov	r3, r2
 8002d70:	f8c7 30b4 	str.w	r3, [r7, #180]	; 0xb4
      }
      pllr = ((RCC->PLLCFGR & RCC_PLLCFGR_PLLR) >> RCC_PLLCFGR_PLLR_Pos);
 8002d74:	4b0d      	ldr	r3, [pc, #52]	; (8002dac <HAL_RCC_GetSysClockFreq+0x458>)
 8002d76:	685b      	ldr	r3, [r3, #4]
 8002d78:	0f1b      	lsrs	r3, r3, #28
 8002d7a:	f003 0307 	and.w	r3, r3, #7
 8002d7e:	f8c7 30a4 	str.w	r3, [r7, #164]	; 0xa4

      sysclockfreq = pllvco/pllr;
 8002d82:	f8d7 20b4 	ldr.w	r2, [r7, #180]	; 0xb4
 8002d86:	f8d7 30a4 	ldr.w	r3, [r7, #164]	; 0xa4
 8002d8a:	fbb2 f3f3 	udiv	r3, r2, r3
 8002d8e:	f8c7 30b0 	str.w	r3, [r7, #176]	; 0xb0
      break;
 8002d92:	e003      	b.n	8002d9c <HAL_RCC_GetSysClockFreq+0x448>
    }
    default:
    {
      sysclockfreq = HSI_VALUE;
 8002d94:	4b06      	ldr	r3, [pc, #24]	; (8002db0 <HAL_RCC_GetSysClockFreq+0x45c>)
 8002d96:	f8c7 30b0 	str.w	r3, [r7, #176]	; 0xb0
      break;
 8002d9a:	bf00      	nop
    }
  }
  return sysclockfreq;
 8002d9c:	f8d7 30b0 	ldr.w	r3, [r7, #176]	; 0xb0
}
 8002da0:	4618      	mov	r0, r3
 8002da2:	37b8      	adds	r7, #184	; 0xb8
 8002da4:	46bd      	mov	sp, r7
 8002da6:	e8bd 8fb0 	ldmia.w	sp!, {r4, r5, r7, r8, r9, sl, fp, pc}
 8002daa:	bf00      	nop
 8002dac:	40023800 	.word	0x40023800
 8002db0:	00f42400 	.word	0x00f42400

08002db4 <HAL_RCC_OscConfig>:
  * @note   This function add the PLL/PLLR factor management during PLL configuration this feature
  *         is only available in STM32F410xx/STM32F446xx/STM32F469xx/STM32F479xx/STM32F412Zx/STM32F412Vx/STM32F412Rx/STM32F412Cx devices
  * @retval HAL status
  */
HAL_StatusTypeDef HAL_RCC_OscConfig(RCC_OscInitTypeDef  *RCC_OscInitStruct)
{
 8002db4:	b580      	push	{r7, lr}
 8002db6:	b086      	sub	sp, #24
 8002db8:	af00      	add	r7, sp, #0
 8002dba:	6078      	str	r0, [r7, #4]
  uint32_t tickstart, pll_config;

  /* Check Null pointer */
  if(RCC_OscInitStruct == NULL)
 8002dbc:	687b      	ldr	r3, [r7, #4]
 8002dbe:	2b00      	cmp	r3, #0
 8002dc0:	d101      	bne.n	8002dc6 <HAL_RCC_OscConfig+0x12>
  {
    return HAL_ERROR;
 8002dc2:	2301      	movs	r3, #1
 8002dc4:	e28d      	b.n	80032e2 <HAL_RCC_OscConfig+0x52e>
  }

  /* Check the parameters */
  assert_param(IS_RCC_OSCILLATORTYPE(RCC_OscInitStruct->OscillatorType));
  /*------------------------------- HSE Configuration ------------------------*/
  if(((RCC_OscInitStruct->OscillatorType) & RCC_OSCILLATORTYPE_HSE) == RCC_OSCILLATORTYPE_HSE)
 8002dc6:	687b      	ldr	r3, [r7, #4]
 8002dc8:	681b      	ldr	r3, [r3, #0]
 8002dca:	f003 0301 	and.w	r3, r3, #1
 8002dce:	2b00      	cmp	r3, #0
 8002dd0:	f000 8083 	beq.w	8002eda <HAL_RCC_OscConfig+0x126>
  {
    /* Check the parameters */
    assert_param(IS_RCC_HSE(RCC_OscInitStruct->HSEState));
    /* When the HSE is used as system clock or clock source for PLL in these cases HSE will not disabled */
#if defined(STM32F446xx)
    if((__HAL_RCC_GET_SYSCLK_SOURCE() == RCC_CFGR_SWS_HSE)                                                                     ||\
 8002dd4:	4b94      	ldr	r3, [pc, #592]	; (8003028 <HAL_RCC_OscConfig+0x274>)
 8002dd6:	689b      	ldr	r3, [r3, #8]
 8002dd8:	f003 030c 	and.w	r3, r3, #12
 8002ddc:	2b04      	cmp	r3, #4
 8002dde:	d019      	beq.n	8002e14 <HAL_RCC_OscConfig+0x60>
      ((__HAL_RCC_GET_SYSCLK_SOURCE() == RCC_CFGR_SWS_PLL) && ((RCC->PLLCFGR & RCC_PLLCFGR_PLLSRC) == RCC_PLLCFGR_PLLSRC_HSE)) ||\
 8002de0:	4b91      	ldr	r3, [pc, #580]	; (8003028 <HAL_RCC_OscConfig+0x274>)
 8002de2:	689b      	ldr	r3, [r3, #8]
 8002de4:	f003 030c 	and.w	r3, r3, #12
    if((__HAL_RCC_GET_SYSCLK_SOURCE() == RCC_CFGR_SWS_HSE)                                                                     ||\
 8002de8:	2b08      	cmp	r3, #8
 8002dea:	d106      	bne.n	8002dfa <HAL_RCC_OscConfig+0x46>
      ((__HAL_RCC_GET_SYSCLK_SOURCE() == RCC_CFGR_SWS_PLL) && ((RCC->PLLCFGR & RCC_PLLCFGR_PLLSRC) == RCC_PLLCFGR_PLLSRC_HSE)) ||\
 8002dec:	4b8e      	ldr	r3, [pc, #568]	; (8003028 <HAL_RCC_OscConfig+0x274>)
 8002dee:	685b      	ldr	r3, [r3, #4]
 8002df0:	f403 0380 	and.w	r3, r3, #4194304	; 0x400000
 8002df4:	f5b3 0f80 	cmp.w	r3, #4194304	; 0x400000
 8002df8:	d00c      	beq.n	8002e14 <HAL_RCC_OscConfig+0x60>
      ((__HAL_RCC_GET_SYSCLK_SOURCE() == RCC_CFGR_SWS_PLLR) && ((RCC->PLLCFGR & RCC_PLLCFGR_PLLSRC) == RCC_PLLCFGR_PLLSRC_HSE)))
 8002dfa:	4b8b      	ldr	r3, [pc, #556]	; (8003028 <HAL_RCC_OscConfig+0x274>)
 8002dfc:	689b      	ldr	r3, [r3, #8]
 8002dfe:	f003 030c 	and.w	r3, r3, #12
      ((__HAL_RCC_GET_SYSCLK_SOURCE() == RCC_CFGR_SWS_PLL) && ((RCC->PLLCFGR & RCC_PLLCFGR_PLLSRC) == RCC_PLLCFGR_PLLSRC_HSE)) ||\
 8002e02:	2b0c      	cmp	r3, #12
 8002e04:	d112      	bne.n	8002e2c <HAL_RCC_OscConfig+0x78>
      ((__HAL_RCC_GET_SYSCLK_SOURCE() == RCC_CFGR_SWS_PLLR) && ((RCC->PLLCFGR & RCC_PLLCFGR_PLLSRC) == RCC_PLLCFGR_PLLSRC_HSE)))
 8002e06:	4b88      	ldr	r3, [pc, #544]	; (8003028 <HAL_RCC_OscConfig+0x274>)
 8002e08:	685b      	ldr	r3, [r3, #4]
 8002e0a:	f403 0380 	and.w	r3, r3, #4194304	; 0x400000
 8002e0e:	f5b3 0f80 	cmp.w	r3, #4194304	; 0x400000
 8002e12:	d10b      	bne.n	8002e2c <HAL_RCC_OscConfig+0x78>
#else
    if((__HAL_RCC_GET_SYSCLK_SOURCE() == RCC_CFGR_SWS_HSE)                                                                     ||\
      ((__HAL_RCC_GET_SYSCLK_SOURCE() == RCC_CFGR_SWS_PLL) && ((RCC->PLLCFGR & RCC_PLLCFGR_PLLSRC) == RCC_PLLCFGR_PLLSRC_HSE)))
#endif /* STM32F446xx */
    {
      if((__HAL_RCC_GET_FLAG(RCC_FLAG_HSERDY) != RESET) && (RCC_OscInitStruct->HSEState == RCC_HSE_OFF))
 8002e14:	4b84      	ldr	r3, [pc, #528]	; (8003028 <HAL_RCC_OscConfig+0x274>)
 8002e16:	681b      	ldr	r3, [r3, #0]
 8002e18:	f403 3300 	and.w	r3, r3, #131072	; 0x20000
 8002e1c:	2b00      	cmp	r3, #0
 8002e1e:	d05b      	beq.n	8002ed8 <HAL_RCC_OscConfig+0x124>
 8002e20:	687b      	ldr	r3, [r7, #4]
 8002e22:	685b      	ldr	r3, [r3, #4]
 8002e24:	2b00      	cmp	r3, #0
 8002e26:	d157      	bne.n	8002ed8 <HAL_RCC_OscConfig+0x124>
      {
        return HAL_ERROR;
 8002e28:	2301      	movs	r3, #1
 8002e2a:	e25a      	b.n	80032e2 <HAL_RCC_OscConfig+0x52e>
      }
    }
    else
    {
      /* Set the new HSE configuration ---------------------------------------*/
      __HAL_RCC_HSE_CONFIG(RCC_OscInitStruct->HSEState);
 8002e2c:	687b      	ldr	r3, [r7, #4]
 8002e2e:	685b      	ldr	r3, [r3, #4]
 8002e30:	f5b3 3f80 	cmp.w	r3, #65536	; 0x10000
 8002e34:	d106      	bne.n	8002e44 <HAL_RCC_OscConfig+0x90>
 8002e36:	4b7c      	ldr	r3, [pc, #496]	; (8003028 <HAL_RCC_OscConfig+0x274>)
 8002e38:	681b      	ldr	r3, [r3, #0]
 8002e3a:	4a7b      	ldr	r2, [pc, #492]	; (8003028 <HAL_RCC_OscConfig+0x274>)
 8002e3c:	f443 3380 	orr.w	r3, r3, #65536	; 0x10000
 8002e40:	6013      	str	r3, [r2, #0]
 8002e42:	e01d      	b.n	8002e80 <HAL_RCC_OscConfig+0xcc>
 8002e44:	687b      	ldr	r3, [r7, #4]
 8002e46:	685b      	ldr	r3, [r3, #4]
 8002e48:	f5b3 2fa0 	cmp.w	r3, #327680	; 0x50000
 8002e4c:	d10c      	bne.n	8002e68 <HAL_RCC_OscConfig+0xb4>
 8002e4e:	4b76      	ldr	r3, [pc, #472]	; (8003028 <HAL_RCC_OscConfig+0x274>)
 8002e50:	681b      	ldr	r3, [r3, #0]
 8002e52:	4a75      	ldr	r2, [pc, #468]	; (8003028 <HAL_RCC_OscConfig+0x274>)
 8002e54:	f443 2380 	orr.w	r3, r3, #262144	; 0x40000
 8002e58:	6013      	str	r3, [r2, #0]
 8002e5a:	4b73      	ldr	r3, [pc, #460]	; (8003028 <HAL_RCC_OscConfig+0x274>)
 8002e5c:	681b      	ldr	r3, [r3, #0]
 8002e5e:	4a72      	ldr	r2, [pc, #456]	; (8003028 <HAL_RCC_OscConfig+0x274>)
 8002e60:	f443 3380 	orr.w	r3, r3, #65536	; 0x10000
 8002e64:	6013      	str	r3, [r2, #0]
 8002e66:	e00b      	b.n	8002e80 <HAL_RCC_OscConfig+0xcc>
 8002e68:	4b6f      	ldr	r3, [pc, #444]	; (8003028 <HAL_RCC_OscConfig+0x274>)
 8002e6a:	681b      	ldr	r3, [r3, #0]
 8002e6c:	4a6e      	ldr	r2, [pc, #440]	; (8003028 <HAL_RCC_OscConfig+0x274>)
 8002e6e:	f423 3380 	bic.w	r3, r3, #65536	; 0x10000
 8002e72:	6013      	str	r3, [r2, #0]
 8002e74:	4b6c      	ldr	r3, [pc, #432]	; (8003028 <HAL_RCC_OscConfig+0x274>)
 8002e76:	681b      	ldr	r3, [r3, #0]
 8002e78:	4a6b      	ldr	r2, [pc, #428]	; (8003028 <HAL_RCC_OscConfig+0x274>)
 8002e7a:	f423 2380 	bic.w	r3, r3, #262144	; 0x40000
 8002e7e:	6013      	str	r3, [r2, #0]

      /* Check the HSE State */
      if((RCC_OscInitStruct->HSEState) != RCC_HSE_OFF)
 8002e80:	687b      	ldr	r3, [r7, #4]
 8002e82:	685b      	ldr	r3, [r3, #4]
 8002e84:	2b00      	cmp	r3, #0
 8002e86:	d013      	beq.n	8002eb0 <HAL_RCC_OscConfig+0xfc>
      {
        /* Get Start Tick*/
        tickstart = HAL_GetTick();
 8002e88:	f7fe fdea 	bl	8001a60 <HAL_GetTick>
 8002e8c:	6138      	str	r0, [r7, #16]

        /* Wait till HSE is ready */
        while(__HAL_RCC_GET_FLAG(RCC_FLAG_HSERDY) == RESET)
 8002e8e:	e008      	b.n	8002ea2 <HAL_RCC_OscConfig+0xee>
        {
          if((HAL_GetTick() - tickstart ) > HSE_TIMEOUT_VALUE)
 8002e90:	f7fe fde6 	bl	8001a60 <HAL_GetTick>
 8002e94:	4602      	mov	r2, r0
 8002e96:	693b      	ldr	r3, [r7, #16]
 8002e98:	1ad3      	subs	r3, r2, r3
 8002e9a:	2b64      	cmp	r3, #100	; 0x64
 8002e9c:	d901      	bls.n	8002ea2 <HAL_RCC_OscConfig+0xee>
          {
            return HAL_TIMEOUT;
 8002e9e:	2303      	movs	r3, #3
 8002ea0:	e21f      	b.n	80032e2 <HAL_RCC_OscConfig+0x52e>
        while(__HAL_RCC_GET_FLAG(RCC_FLAG_HSERDY) == RESET)
 8002ea2:	4b61      	ldr	r3, [pc, #388]	; (8003028 <HAL_RCC_OscConfig+0x274>)
 8002ea4:	681b      	ldr	r3, [r3, #0]
 8002ea6:	f403 3300 	and.w	r3, r3, #131072	; 0x20000
 8002eaa:	2b00      	cmp	r3, #0
 8002eac:	d0f0      	beq.n	8002e90 <HAL_RCC_OscConfig+0xdc>
 8002eae:	e014      	b.n	8002eda <HAL_RCC_OscConfig+0x126>
        }
      }
      else
      {
        /* Get Start Tick*/
        tickstart = HAL_GetTick();
 8002eb0:	f7fe fdd6 	bl	8001a60 <HAL_GetTick>
 8002eb4:	6138      	str	r0, [r7, #16]

        /* Wait till HSE is bypassed or disabled */
        while(__HAL_RCC_GET_FLAG(RCC_FLAG_HSERDY) != RESET)
 8002eb6:	e008      	b.n	8002eca <HAL_RCC_OscConfig+0x116>
        {
          if((HAL_GetTick() - tickstart ) > HSE_TIMEOUT_VALUE)
 8002eb8:	f7fe fdd2 	bl	8001a60 <HAL_GetTick>
 8002ebc:	4602      	mov	r2, r0
 8002ebe:	693b      	ldr	r3, [r7, #16]
 8002ec0:	1ad3      	subs	r3, r2, r3
 8002ec2:	2b64      	cmp	r3, #100	; 0x64
 8002ec4:	d901      	bls.n	8002eca <HAL_RCC_OscConfig+0x116>
          {
            return HAL_TIMEOUT;
 8002ec6:	2303      	movs	r3, #3
 8002ec8:	e20b      	b.n	80032e2 <HAL_RCC_OscConfig+0x52e>
        while(__HAL_RCC_GET_FLAG(RCC_FLAG_HSERDY) != RESET)
 8002eca:	4b57      	ldr	r3, [pc, #348]	; (8003028 <HAL_RCC_OscConfig+0x274>)
 8002ecc:	681b      	ldr	r3, [r3, #0]
 8002ece:	f403 3300 	and.w	r3, r3, #131072	; 0x20000
 8002ed2:	2b00      	cmp	r3, #0
 8002ed4:	d1f0      	bne.n	8002eb8 <HAL_RCC_OscConfig+0x104>
 8002ed6:	e000      	b.n	8002eda <HAL_RCC_OscConfig+0x126>
      if((__HAL_RCC_GET_FLAG(RCC_FLAG_HSERDY) != RESET) && (RCC_OscInitStruct->HSEState == RCC_HSE_OFF))
 8002ed8:	bf00      	nop
        }
      }
    }
  }
  /*----------------------------- HSI Configuration --------------------------*/
  if(((RCC_OscInitStruct->OscillatorType) & RCC_OSCILLATORTYPE_HSI) == RCC_OSCILLATORTYPE_HSI)
 8002eda:	687b      	ldr	r3, [r7, #4]
 8002edc:	681b      	ldr	r3, [r3, #0]
 8002ede:	f003 0302 	and.w	r3, r3, #2
 8002ee2:	2b00      	cmp	r3, #0
 8002ee4:	d06f      	beq.n	8002fc6 <HAL_RCC_OscConfig+0x212>
    assert_param(IS_RCC_HSI(RCC_OscInitStruct->HSIState));
    assert_param(IS_RCC_CALIBRATION_VALUE(RCC_OscInitStruct->HSICalibrationValue));

    /* Check if HSI is used as system clock or as PLL source when PLL is selected as system clock */
#if defined(STM32F446xx)
    if((__HAL_RCC_GET_SYSCLK_SOURCE() == RCC_CFGR_SWS_HSI)                                                                     ||\
 8002ee6:	4b50      	ldr	r3, [pc, #320]	; (8003028 <HAL_RCC_OscConfig+0x274>)
 8002ee8:	689b      	ldr	r3, [r3, #8]
 8002eea:	f003 030c 	and.w	r3, r3, #12
 8002eee:	2b00      	cmp	r3, #0
 8002ef0:	d017      	beq.n	8002f22 <HAL_RCC_OscConfig+0x16e>
      ((__HAL_RCC_GET_SYSCLK_SOURCE() == RCC_CFGR_SWS_PLL) && ((RCC->PLLCFGR & RCC_PLLCFGR_PLLSRC) == RCC_PLLCFGR_PLLSRC_HSI)) ||\
 8002ef2:	4b4d      	ldr	r3, [pc, #308]	; (8003028 <HAL_RCC_OscConfig+0x274>)
 8002ef4:	689b      	ldr	r3, [r3, #8]
 8002ef6:	f003 030c 	and.w	r3, r3, #12
    if((__HAL_RCC_GET_SYSCLK_SOURCE() == RCC_CFGR_SWS_HSI)                                                                     ||\
 8002efa:	2b08      	cmp	r3, #8
 8002efc:	d105      	bne.n	8002f0a <HAL_RCC_OscConfig+0x156>
      ((__HAL_RCC_GET_SYSCLK_SOURCE() == RCC_CFGR_SWS_PLL) && ((RCC->PLLCFGR & RCC_PLLCFGR_PLLSRC) == RCC_PLLCFGR_PLLSRC_HSI)) ||\
 8002efe:	4b4a      	ldr	r3, [pc, #296]	; (8003028 <HAL_RCC_OscConfig+0x274>)
 8002f00:	685b      	ldr	r3, [r3, #4]
 8002f02:	f403 0380 	and.w	r3, r3, #4194304	; 0x400000
 8002f06:	2b00      	cmp	r3, #0
 8002f08:	d00b      	beq.n	8002f22 <HAL_RCC_OscConfig+0x16e>
      ((__HAL_RCC_GET_SYSCLK_SOURCE() == RCC_CFGR_SWS_PLLR) && ((RCC->PLLCFGR & RCC_PLLCFGR_PLLSRC) == RCC_PLLCFGR_PLLSRC_HSI)))
 8002f0a:	4b47      	ldr	r3, [pc, #284]	; (8003028 <HAL_RCC_OscConfig+0x274>)
 8002f0c:	689b      	ldr	r3, [r3, #8]
 8002f0e:	f003 030c 	and.w	r3, r3, #12
      ((__HAL_RCC_GET_SYSCLK_SOURCE() == RCC_CFGR_SWS_PLL) && ((RCC->PLLCFGR & RCC_PLLCFGR_PLLSRC) == RCC_PLLCFGR_PLLSRC_HSI)) ||\
 8002f12:	2b0c      	cmp	r3, #12
 8002f14:	d11c      	bne.n	8002f50 <HAL_RCC_OscConfig+0x19c>
      ((__HAL_RCC_GET_SYSCLK_SOURCE() == RCC_CFGR_SWS_PLLR) && ((RCC->PLLCFGR & RCC_PLLCFGR_PLLSRC) == RCC_PLLCFGR_PLLSRC_HSI)))
 8002f16:	4b44      	ldr	r3, [pc, #272]	; (8003028 <HAL_RCC_OscConfig+0x274>)
 8002f18:	685b      	ldr	r3, [r3, #4]
 8002f1a:	f403 0380 	and.w	r3, r3, #4194304	; 0x400000
 8002f1e:	2b00      	cmp	r3, #0
 8002f20:	d116      	bne.n	8002f50 <HAL_RCC_OscConfig+0x19c>
    if((__HAL_RCC_GET_SYSCLK_SOURCE() == RCC_CFGR_SWS_HSI)                                                                     ||\
      ((__HAL_RCC_GET_SYSCLK_SOURCE() == RCC_CFGR_SWS_PLL) && ((RCC->PLLCFGR & RCC_PLLCFGR_PLLSRC) == RCC_PLLCFGR_PLLSRC_HSI)))
#endif /* STM32F446xx */
    {
      /* When HSI is used as system clock it will not disabled */
      if((__HAL_RCC_GET_FLAG(RCC_FLAG_HSIRDY) != RESET) && (RCC_OscInitStruct->HSIState != RCC_HSI_ON))
 8002f22:	4b41      	ldr	r3, [pc, #260]	; (8003028 <HAL_RCC_OscConfig+0x274>)
 8002f24:	681b      	ldr	r3, [r3, #0]
 8002f26:	f003 0302 	and.w	r3, r3, #2
 8002f2a:	2b00      	cmp	r3, #0
 8002f2c:	d005      	beq.n	8002f3a <HAL_RCC_OscConfig+0x186>
 8002f2e:	687b      	ldr	r3, [r7, #4]
 8002f30:	68db      	ldr	r3, [r3, #12]
 8002f32:	2b01      	cmp	r3, #1
 8002f34:	d001      	beq.n	8002f3a <HAL_RCC_OscConfig+0x186>
      {
        return HAL_ERROR;
 8002f36:	2301      	movs	r3, #1
 8002f38:	e1d3      	b.n	80032e2 <HAL_RCC_OscConfig+0x52e>
      }
      /* Otherwise, just the calibration is allowed */
      else
      {
        /* Adjusts the Internal High Speed oscillator (HSI) calibration value.*/
        __HAL_RCC_HSI_CALIBRATIONVALUE_ADJUST(RCC_OscInitStruct->HSICalibrationValue);
 8002f3a:	4b3b      	ldr	r3, [pc, #236]	; (8003028 <HAL_RCC_OscConfig+0x274>)
 8002f3c:	681b      	ldr	r3, [r3, #0]
 8002f3e:	f023 02f8 	bic.w	r2, r3, #248	; 0xf8
 8002f42:	687b      	ldr	r3, [r7, #4]
 8002f44:	691b      	ldr	r3, [r3, #16]
 8002f46:	00db      	lsls	r3, r3, #3
 8002f48:	4937      	ldr	r1, [pc, #220]	; (8003028 <HAL_RCC_OscConfig+0x274>)
 8002f4a:	4313      	orrs	r3, r2
 8002f4c:	600b      	str	r3, [r1, #0]
      if((__HAL_RCC_GET_FLAG(RCC_FLAG_HSIRDY) != RESET) && (RCC_OscInitStruct->HSIState != RCC_HSI_ON))
 8002f4e:	e03a      	b.n	8002fc6 <HAL_RCC_OscConfig+0x212>
      }
    }
    else
    {
      /* Check the HSI State */
      if((RCC_OscInitStruct->HSIState)!= RCC_HSI_OFF)
 8002f50:	687b      	ldr	r3, [r7, #4]
 8002f52:	68db      	ldr	r3, [r3, #12]
 8002f54:	2b00      	cmp	r3, #0
 8002f56:	d020      	beq.n	8002f9a <HAL_RCC_OscConfig+0x1e6>
      {
        /* Enable the Internal High Speed oscillator (HSI). */
        __HAL_RCC_HSI_ENABLE();
 8002f58:	4b34      	ldr	r3, [pc, #208]	; (800302c <HAL_RCC_OscConfig+0x278>)
 8002f5a:	2201      	movs	r2, #1
 8002f5c:	601a      	str	r2, [r3, #0]

        /* Get Start Tick*/
        tickstart = HAL_GetTick();
 8002f5e:	f7fe fd7f 	bl	8001a60 <HAL_GetTick>
 8002f62:	6138      	str	r0, [r7, #16]

        /* Wait till HSI is ready */
        while(__HAL_RCC_GET_FLAG(RCC_FLAG_HSIRDY) == RESET)
 8002f64:	e008      	b.n	8002f78 <HAL_RCC_OscConfig+0x1c4>
        {
          if((HAL_GetTick() - tickstart ) > HSI_TIMEOUT_VALUE)
 8002f66:	f7fe fd7b 	bl	8001a60 <HAL_GetTick>
 8002f6a:	4602      	mov	r2, r0
 8002f6c:	693b      	ldr	r3, [r7, #16]
 8002f6e:	1ad3      	subs	r3, r2, r3
 8002f70:	2b02      	cmp	r3, #2
 8002f72:	d901      	bls.n	8002f78 <HAL_RCC_OscConfig+0x1c4>
          {
            return HAL_TIMEOUT;
 8002f74:	2303      	movs	r3, #3
 8002f76:	e1b4      	b.n	80032e2 <HAL_RCC_OscConfig+0x52e>
        while(__HAL_RCC_GET_FLAG(RCC_FLAG_HSIRDY) == RESET)
 8002f78:	4b2b      	ldr	r3, [pc, #172]	; (8003028 <HAL_RCC_OscConfig+0x274>)
 8002f7a:	681b      	ldr	r3, [r3, #0]
 8002f7c:	f003 0302 	and.w	r3, r3, #2
 8002f80:	2b00      	cmp	r3, #0
 8002f82:	d0f0      	beq.n	8002f66 <HAL_RCC_OscConfig+0x1b2>
          }
        }

        /* Adjusts the Internal High Speed oscillator (HSI) calibration value.*/
        __HAL_RCC_HSI_CALIBRATIONVALUE_ADJUST(RCC_OscInitStruct->HSICalibrationValue);
 8002f84:	4b28      	ldr	r3, [pc, #160]	; (8003028 <HAL_RCC_OscConfig+0x274>)
 8002f86:	681b      	ldr	r3, [r3, #0]
 8002f88:	f023 02f8 	bic.w	r2, r3, #248	; 0xf8
 8002f8c:	687b      	ldr	r3, [r7, #4]
 8002f8e:	691b      	ldr	r3, [r3, #16]
 8002f90:	00db      	lsls	r3, r3, #3
 8002f92:	4925      	ldr	r1, [pc, #148]	; (8003028 <HAL_RCC_OscConfig+0x274>)
 8002f94:	4313      	orrs	r3, r2
 8002f96:	600b      	str	r3, [r1, #0]
 8002f98:	e015      	b.n	8002fc6 <HAL_RCC_OscConfig+0x212>
      }
      else
      {
        /* Disable the Internal High Speed oscillator (HSI). */
        __HAL_RCC_HSI_DISABLE();
 8002f9a:	4b24      	ldr	r3, [pc, #144]	; (800302c <HAL_RCC_OscConfig+0x278>)
 8002f9c:	2200      	movs	r2, #0
 8002f9e:	601a      	str	r2, [r3, #0]

        /* Get Start Tick*/
        tickstart = HAL_GetTick();
 8002fa0:	f7fe fd5e 	bl	8001a60 <HAL_GetTick>
 8002fa4:	6138      	str	r0, [r7, #16]

        /* Wait till HSI is ready */
        while(__HAL_RCC_GET_FLAG(RCC_FLAG_HSIRDY) != RESET)
 8002fa6:	e008      	b.n	8002fba <HAL_RCC_OscConfig+0x206>
        {
          if((HAL_GetTick() - tickstart ) > HSI_TIMEOUT_VALUE)
 8002fa8:	f7fe fd5a 	bl	8001a60 <HAL_GetTick>
 8002fac:	4602      	mov	r2, r0
 8002fae:	693b      	ldr	r3, [r7, #16]
 8002fb0:	1ad3      	subs	r3, r2, r3
 8002fb2:	2b02      	cmp	r3, #2
 8002fb4:	d901      	bls.n	8002fba <HAL_RCC_OscConfig+0x206>
          {
            return HAL_TIMEOUT;
 8002fb6:	2303      	movs	r3, #3
 8002fb8:	e193      	b.n	80032e2 <HAL_RCC_OscConfig+0x52e>
        while(__HAL_RCC_GET_FLAG(RCC_FLAG_HSIRDY) != RESET)
 8002fba:	4b1b      	ldr	r3, [pc, #108]	; (8003028 <HAL_RCC_OscConfig+0x274>)
 8002fbc:	681b      	ldr	r3, [r3, #0]
 8002fbe:	f003 0302 	and.w	r3, r3, #2
 8002fc2:	2b00      	cmp	r3, #0
 8002fc4:	d1f0      	bne.n	8002fa8 <HAL_RCC_OscConfig+0x1f4>
        }
      }
    }
  }
  /*------------------------------ LSI Configuration -------------------------*/
  if(((RCC_OscInitStruct->OscillatorType) & RCC_OSCILLATORTYPE_LSI) == RCC_OSCILLATORTYPE_LSI)
 8002fc6:	687b      	ldr	r3, [r7, #4]
 8002fc8:	681b      	ldr	r3, [r3, #0]
 8002fca:	f003 0308 	and.w	r3, r3, #8
 8002fce:	2b00      	cmp	r3, #0
 8002fd0:	d036      	beq.n	8003040 <HAL_RCC_OscConfig+0x28c>
  {
    /* Check the parameters */
    assert_param(IS_RCC_LSI(RCC_OscInitStruct->LSIState));

    /* Check the LSI State */
    if((RCC_OscInitStruct->LSIState)!= RCC_LSI_OFF)
 8002fd2:	687b      	ldr	r3, [r7, #4]
 8002fd4:	695b      	ldr	r3, [r3, #20]
 8002fd6:	2b00      	cmp	r3, #0
 8002fd8:	d016      	beq.n	8003008 <HAL_RCC_OscConfig+0x254>
    {
      /* Enable the Internal Low Speed oscillator (LSI). */
      __HAL_RCC_LSI_ENABLE();
 8002fda:	4b15      	ldr	r3, [pc, #84]	; (8003030 <HAL_RCC_OscConfig+0x27c>)
 8002fdc:	2201      	movs	r2, #1
 8002fde:	601a      	str	r2, [r3, #0]

      /* Get Start Tick*/
      tickstart = HAL_GetTick();
 8002fe0:	f7fe fd3e 	bl	8001a60 <HAL_GetTick>
 8002fe4:	6138      	str	r0, [r7, #16]

      /* Wait till LSI is ready */
      while(__HAL_RCC_GET_FLAG(RCC_FLAG_LSIRDY) == RESET)
 8002fe6:	e008      	b.n	8002ffa <HAL_RCC_OscConfig+0x246>
      {
        if((HAL_GetTick() - tickstart ) > LSI_TIMEOUT_VALUE)
 8002fe8:	f7fe fd3a 	bl	8001a60 <HAL_GetTick>
 8002fec:	4602      	mov	r2, r0
 8002fee:	693b      	ldr	r3, [r7, #16]
 8002ff0:	1ad3      	subs	r3, r2, r3
 8002ff2:	2b02      	cmp	r3, #2
 8002ff4:	d901      	bls.n	8002ffa <HAL_RCC_OscConfig+0x246>
        {
          return HAL_TIMEOUT;
 8002ff6:	2303      	movs	r3, #3
 8002ff8:	e173      	b.n	80032e2 <HAL_RCC_OscConfig+0x52e>
      while(__HAL_RCC_GET_FLAG(RCC_FLAG_LSIRDY) == RESET)
 8002ffa:	4b0b      	ldr	r3, [pc, #44]	; (8003028 <HAL_RCC_OscConfig+0x274>)
 8002ffc:	6f5b      	ldr	r3, [r3, #116]	; 0x74
 8002ffe:	f003 0302 	and.w	r3, r3, #2
 8003002:	2b00      	cmp	r3, #0
 8003004:	d0f0      	beq.n	8002fe8 <HAL_RCC_OscConfig+0x234>
 8003006:	e01b      	b.n	8003040 <HAL_RCC_OscConfig+0x28c>
      }
    }
    else
    {
      /* Disable the Internal Low Speed oscillator (LSI). */
      __HAL_RCC_LSI_DISABLE();
 8003008:	4b09      	ldr	r3, [pc, #36]	; (8003030 <HAL_RCC_OscConfig+0x27c>)
 800300a:	2200      	movs	r2, #0
 800300c:	601a      	str	r2, [r3, #0]

      /* Get Start Tick*/
      tickstart = HAL_GetTick();
 800300e:	f7fe fd27 	bl	8001a60 <HAL_GetTick>
 8003012:	6138      	str	r0, [r7, #16]

      /* Wait till LSI is ready */
      while(__HAL_RCC_GET_FLAG(RCC_FLAG_LSIRDY) != RESET)
 8003014:	e00e      	b.n	8003034 <HAL_RCC_OscConfig+0x280>
      {
        if((HAL_GetTick() - tickstart ) > LSI_TIMEOUT_VALUE)
 8003016:	f7fe fd23 	bl	8001a60 <HAL_GetTick>
 800301a:	4602      	mov	r2, r0
 800301c:	693b      	ldr	r3, [r7, #16]
 800301e:	1ad3      	subs	r3, r2, r3
 8003020:	2b02      	cmp	r3, #2
 8003022:	d907      	bls.n	8003034 <HAL_RCC_OscConfig+0x280>
        {
          return HAL_TIMEOUT;
 8003024:	2303      	movs	r3, #3
 8003026:	e15c      	b.n	80032e2 <HAL_RCC_OscConfig+0x52e>
 8003028:	40023800 	.word	0x40023800
 800302c:	42470000 	.word	0x42470000
 8003030:	42470e80 	.word	0x42470e80
      while(__HAL_RCC_GET_FLAG(RCC_FLAG_LSIRDY) != RESET)
 8003034:	4b8a      	ldr	r3, [pc, #552]	; (8003260 <HAL_RCC_OscConfig+0x4ac>)
 8003036:	6f5b      	ldr	r3, [r3, #116]	; 0x74
 8003038:	f003 0302 	and.w	r3, r3, #2
 800303c:	2b00      	cmp	r3, #0
 800303e:	d1ea      	bne.n	8003016 <HAL_RCC_OscConfig+0x262>
        }
      }
    }
  }
  /*------------------------------ LSE Configuration -------------------------*/
  if(((RCC_OscInitStruct->OscillatorType) & RCC_OSCILLATORTYPE_LSE) == RCC_OSCILLATORTYPE_LSE)
 8003040:	687b      	ldr	r3, [r7, #4]
 8003042:	681b      	ldr	r3, [r3, #0]
 8003044:	f003 0304 	and.w	r3, r3, #4
 8003048:	2b00      	cmp	r3, #0
 800304a:	f000 8097 	beq.w	800317c <HAL_RCC_OscConfig+0x3c8>
  {
    FlagStatus       pwrclkchanged = RESET;
 800304e:	2300      	movs	r3, #0
 8003050:	75fb      	strb	r3, [r7, #23]
    /* Check the parameters */
    assert_param(IS_RCC_LSE(RCC_OscInitStruct->LSEState));

    /* Update LSE configuration in Backup Domain control register    */
    /* Requires to enable write access to Backup Domain of necessary */
    if(__HAL_RCC_PWR_IS_CLK_DISABLED())
 8003052:	4b83      	ldr	r3, [pc, #524]	; (8003260 <HAL_RCC_OscConfig+0x4ac>)
 8003054:	6c1b      	ldr	r3, [r3, #64]	; 0x40
 8003056:	f003 5380 	and.w	r3, r3, #268435456	; 0x10000000
 800305a:	2b00      	cmp	r3, #0
 800305c:	d10f      	bne.n	800307e <HAL_RCC_OscConfig+0x2ca>
    {
      __HAL_RCC_PWR_CLK_ENABLE();
 800305e:	2300      	movs	r3, #0
 8003060:	60bb      	str	r3, [r7, #8]
 8003062:	4b7f      	ldr	r3, [pc, #508]	; (8003260 <HAL_RCC_OscConfig+0x4ac>)
 8003064:	6c1b      	ldr	r3, [r3, #64]	; 0x40
 8003066:	4a7e      	ldr	r2, [pc, #504]	; (8003260 <HAL_RCC_OscConfig+0x4ac>)
 8003068:	f043 5380 	orr.w	r3, r3, #268435456	; 0x10000000
 800306c:	6413      	str	r3, [r2, #64]	; 0x40
 800306e:	4b7c      	ldr	r3, [pc, #496]	; (8003260 <HAL_RCC_OscConfig+0x4ac>)
 8003070:	6c1b      	ldr	r3, [r3, #64]	; 0x40
 8003072:	f003 5380 	and.w	r3, r3, #268435456	; 0x10000000
 8003076:	60bb      	str	r3, [r7, #8]
 8003078:	68bb      	ldr	r3, [r7, #8]
      pwrclkchanged = SET;
 800307a:	2301      	movs	r3, #1
 800307c:	75fb      	strb	r3, [r7, #23]
    }

    if(HAL_IS_BIT_CLR(PWR->CR, PWR_CR_DBP))
 800307e:	4b79      	ldr	r3, [pc, #484]	; (8003264 <HAL_RCC_OscConfig+0x4b0>)
 8003080:	681b      	ldr	r3, [r3, #0]
 8003082:	f403 7380 	and.w	r3, r3, #256	; 0x100
 8003086:	2b00      	cmp	r3, #0
 8003088:	d118      	bne.n	80030bc <HAL_RCC_OscConfig+0x308>
    {
      /* Enable write access to Backup domain */
      SET_BIT(PWR->CR, PWR_CR_DBP);
 800308a:	4b76      	ldr	r3, [pc, #472]	; (8003264 <HAL_RCC_OscConfig+0x4b0>)
 800308c:	681b      	ldr	r3, [r3, #0]
 800308e:	4a75      	ldr	r2, [pc, #468]	; (8003264 <HAL_RCC_OscConfig+0x4b0>)
 8003090:	f443 7380 	orr.w	r3, r3, #256	; 0x100
 8003094:	6013      	str	r3, [r2, #0]

      /* Wait for Backup domain Write protection disable */
      tickstart = HAL_GetTick();
 8003096:	f7fe fce3 	bl	8001a60 <HAL_GetTick>
 800309a:	6138      	str	r0, [r7, #16]

      while(HAL_IS_BIT_CLR(PWR->CR, PWR_CR_DBP))
 800309c:	e008      	b.n	80030b0 <HAL_RCC_OscConfig+0x2fc>
      {
        if((HAL_GetTick() - tickstart) > RCC_DBP_TIMEOUT_VALUE)
 800309e:	f7fe fcdf 	bl	8001a60 <HAL_GetTick>
 80030a2:	4602      	mov	r2, r0
 80030a4:	693b      	ldr	r3, [r7, #16]
 80030a6:	1ad3      	subs	r3, r2, r3
 80030a8:	2b02      	cmp	r3, #2
 80030aa:	d901      	bls.n	80030b0 <HAL_RCC_OscConfig+0x2fc>
        {
          return HAL_TIMEOUT;
 80030ac:	2303      	movs	r3, #3
 80030ae:	e118      	b.n	80032e2 <HAL_RCC_OscConfig+0x52e>
      while(HAL_IS_BIT_CLR(PWR->CR, PWR_CR_DBP))
 80030b0:	4b6c      	ldr	r3, [pc, #432]	; (8003264 <HAL_RCC_OscConfig+0x4b0>)
 80030b2:	681b      	ldr	r3, [r3, #0]
 80030b4:	f403 7380 	and.w	r3, r3, #256	; 0x100
 80030b8:	2b00      	cmp	r3, #0
 80030ba:	d0f0      	beq.n	800309e <HAL_RCC_OscConfig+0x2ea>
        }
      }
    }

    /* Set the new LSE configuration -----------------------------------------*/
    __HAL_RCC_LSE_CONFIG(RCC_OscInitStruct->LSEState);
 80030bc:	687b      	ldr	r3, [r7, #4]
 80030be:	689b      	ldr	r3, [r3, #8]
 80030c0:	2b01      	cmp	r3, #1
 80030c2:	d106      	bne.n	80030d2 <HAL_RCC_OscConfig+0x31e>
 80030c4:	4b66      	ldr	r3, [pc, #408]	; (8003260 <HAL_RCC_OscConfig+0x4ac>)
 80030c6:	6f1b      	ldr	r3, [r3, #112]	; 0x70
 80030c8:	4a65      	ldr	r2, [pc, #404]	; (8003260 <HAL_RCC_OscConfig+0x4ac>)
 80030ca:	f043 0301 	orr.w	r3, r3, #1
 80030ce:	6713      	str	r3, [r2, #112]	; 0x70
 80030d0:	e01c      	b.n	800310c <HAL_RCC_OscConfig+0x358>
 80030d2:	687b      	ldr	r3, [r7, #4]
 80030d4:	689b      	ldr	r3, [r3, #8]
 80030d6:	2b05      	cmp	r3, #5
 80030d8:	d10c      	bne.n	80030f4 <HAL_RCC_OscConfig+0x340>
 80030da:	4b61      	ldr	r3, [pc, #388]	; (8003260 <HAL_RCC_OscConfig+0x4ac>)
 80030dc:	6f1b      	ldr	r3, [r3, #112]	; 0x70
 80030de:	4a60      	ldr	r2, [pc, #384]	; (8003260 <HAL_RCC_OscConfig+0x4ac>)
 80030e0:	f043 0304 	orr.w	r3, r3, #4
 80030e4:	6713      	str	r3, [r2, #112]	; 0x70
 80030e6:	4b5e      	ldr	r3, [pc, #376]	; (8003260 <HAL_RCC_OscConfig+0x4ac>)
 80030e8:	6f1b      	ldr	r3, [r3, #112]	; 0x70
 80030ea:	4a5d      	ldr	r2, [pc, #372]	; (8003260 <HAL_RCC_OscConfig+0x4ac>)
 80030ec:	f043 0301 	orr.w	r3, r3, #1
 80030f0:	6713      	str	r3, [r2, #112]	; 0x70
 80030f2:	e00b      	b.n	800310c <HAL_RCC_OscConfig+0x358>
 80030f4:	4b5a      	ldr	r3, [pc, #360]	; (8003260 <HAL_RCC_OscConfig+0x4ac>)
 80030f6:	6f1b      	ldr	r3, [r3, #112]	; 0x70
 80030f8:	4a59      	ldr	r2, [pc, #356]	; (8003260 <HAL_RCC_OscConfig+0x4ac>)
 80030fa:	f023 0301 	bic.w	r3, r3, #1
 80030fe:	6713      	str	r3, [r2, #112]	; 0x70
 8003100:	4b57      	ldr	r3, [pc, #348]	; (8003260 <HAL_RCC_OscConfig+0x4ac>)
 8003102:	6f1b      	ldr	r3, [r3, #112]	; 0x70
 8003104:	4a56      	ldr	r2, [pc, #344]	; (8003260 <HAL_RCC_OscConfig+0x4ac>)
 8003106:	f023 0304 	bic.w	r3, r3, #4
 800310a:	6713      	str	r3, [r2, #112]	; 0x70
    /* Check the LSE State */
    if((RCC_OscInitStruct->LSEState) != RCC_LSE_OFF)
 800310c:	687b      	ldr	r3, [r7, #4]
 800310e:	689b      	ldr	r3, [r3, #8]
 8003110:	2b00      	cmp	r3, #0
 8003112:	d015      	beq.n	8003140 <HAL_RCC_OscConfig+0x38c>
    {
      /* Get Start Tick*/
      tickstart = HAL_GetTick();
 8003114:	f7fe fca4 	bl	8001a60 <HAL_GetTick>
 8003118:	6138      	str	r0, [r7, #16]

      /* Wait till LSE is ready */
      while(__HAL_RCC_GET_FLAG(RCC_FLAG_LSERDY) == RESET)
 800311a:	e00a      	b.n	8003132 <HAL_RCC_OscConfig+0x37e>
      {
        if((HAL_GetTick() - tickstart ) > RCC_LSE_TIMEOUT_VALUE)
 800311c:	f7fe fca0 	bl	8001a60 <HAL_GetTick>
 8003120:	4602      	mov	r2, r0
 8003122:	693b      	ldr	r3, [r7, #16]
 8003124:	1ad3      	subs	r3, r2, r3
 8003126:	f241 3288 	movw	r2, #5000	; 0x1388
 800312a:	4293      	cmp	r3, r2
 800312c:	d901      	bls.n	8003132 <HAL_RCC_OscConfig+0x37e>
        {
          return HAL_TIMEOUT;
 800312e:	2303      	movs	r3, #3
 8003130:	e0d7      	b.n	80032e2 <HAL_RCC_OscConfig+0x52e>
      while(__HAL_RCC_GET_FLAG(RCC_FLAG_LSERDY) == RESET)
 8003132:	4b4b      	ldr	r3, [pc, #300]	; (8003260 <HAL_RCC_OscConfig+0x4ac>)
 8003134:	6f1b      	ldr	r3, [r3, #112]	; 0x70
 8003136:	f003 0302 	and.w	r3, r3, #2
 800313a:	2b00      	cmp	r3, #0
 800313c:	d0ee      	beq.n	800311c <HAL_RCC_OscConfig+0x368>
 800313e:	e014      	b.n	800316a <HAL_RCC_OscConfig+0x3b6>
      }
    }
    else
    {
      /* Get Start Tick*/
      tickstart = HAL_GetTick();
 8003140:	f7fe fc8e 	bl	8001a60 <HAL_GetTick>
 8003144:	6138      	str	r0, [r7, #16]

      /* Wait till LSE is ready */
      while(__HAL_RCC_GET_FLAG(RCC_FLAG_LSERDY) != RESET)
 8003146:	e00a      	b.n	800315e <HAL_RCC_OscConfig+0x3aa>
      {
        if((HAL_GetTick() - tickstart ) > RCC_LSE_TIMEOUT_VALUE)
 8003148:	f7fe fc8a 	bl	8001a60 <HAL_GetTick>
 800314c:	4602      	mov	r2, r0
 800314e:	693b      	ldr	r3, [r7, #16]
 8003150:	1ad3      	subs	r3, r2, r3
 8003152:	f241 3288 	movw	r2, #5000	; 0x1388
 8003156:	4293      	cmp	r3, r2
 8003158:	d901      	bls.n	800315e <HAL_RCC_OscConfig+0x3aa>
        {
          return HAL_TIMEOUT;
 800315a:	2303      	movs	r3, #3
 800315c:	e0c1      	b.n	80032e2 <HAL_RCC_OscConfig+0x52e>
      while(__HAL_RCC_GET_FLAG(RCC_FLAG_LSERDY) != RESET)
 800315e:	4b40      	ldr	r3, [pc, #256]	; (8003260 <HAL_RCC_OscConfig+0x4ac>)
 8003160:	6f1b      	ldr	r3, [r3, #112]	; 0x70
 8003162:	f003 0302 	and.w	r3, r3, #2
 8003166:	2b00      	cmp	r3, #0
 8003168:	d1ee      	bne.n	8003148 <HAL_RCC_OscConfig+0x394>
        }
      }
    }

    /* Restore clock configuration if changed */
    if(pwrclkchanged == SET)
 800316a:	7dfb      	ldrb	r3, [r7, #23]
 800316c:	2b01      	cmp	r3, #1
 800316e:	d105      	bne.n	800317c <HAL_RCC_OscConfig+0x3c8>
    {
      __HAL_RCC_PWR_CLK_DISABLE();
 8003170:	4b3b      	ldr	r3, [pc, #236]	; (8003260 <HAL_RCC_OscConfig+0x4ac>)
 8003172:	6c1b      	ldr	r3, [r3, #64]	; 0x40
 8003174:	4a3a      	ldr	r2, [pc, #232]	; (8003260 <HAL_RCC_OscConfig+0x4ac>)
 8003176:	f023 5380 	bic.w	r3, r3, #268435456	; 0x10000000
 800317a:	6413      	str	r3, [r2, #64]	; 0x40
    }
  }
  /*-------------------------------- PLL Configuration -----------------------*/
  /* Check the parameters */
  assert_param(IS_RCC_PLL(RCC_OscInitStruct->PLL.PLLState));
  if ((RCC_OscInitStruct->PLL.PLLState) != RCC_PLL_NONE)
 800317c:	687b      	ldr	r3, [r7, #4]
 800317e:	699b      	ldr	r3, [r3, #24]
 8003180:	2b00      	cmp	r3, #0
 8003182:	f000 80ad 	beq.w	80032e0 <HAL_RCC_OscConfig+0x52c>
  {
    /* Check if the PLL is used as system clock or not */
    if(__HAL_RCC_GET_SYSCLK_SOURCE() != RCC_CFGR_SWS_PLL)
 8003186:	4b36      	ldr	r3, [pc, #216]	; (8003260 <HAL_RCC_OscConfig+0x4ac>)
 8003188:	689b      	ldr	r3, [r3, #8]
 800318a:	f003 030c 	and.w	r3, r3, #12
 800318e:	2b08      	cmp	r3, #8
 8003190:	d060      	beq.n	8003254 <HAL_RCC_OscConfig+0x4a0>
    {
      if((RCC_OscInitStruct->PLL.PLLState) == RCC_PLL_ON)
 8003192:	687b      	ldr	r3, [r7, #4]
 8003194:	699b      	ldr	r3, [r3, #24]
 8003196:	2b02      	cmp	r3, #2
 8003198:	d145      	bne.n	8003226 <HAL_RCC_OscConfig+0x472>
        assert_param(IS_RCC_PLLP_VALUE(RCC_OscInitStruct->PLL.PLLP));
        assert_param(IS_RCC_PLLQ_VALUE(RCC_OscInitStruct->PLL.PLLQ));
        assert_param(IS_RCC_PLLR_VALUE(RCC_OscInitStruct->PLL.PLLR));

        /* Disable the main PLL. */
        __HAL_RCC_PLL_DISABLE();
 800319a:	4b33      	ldr	r3, [pc, #204]	; (8003268 <HAL_RCC_OscConfig+0x4b4>)
 800319c:	2200      	movs	r2, #0
 800319e:	601a      	str	r2, [r3, #0]

        /* Get Start Tick*/
        tickstart = HAL_GetTick();
 80031a0:	f7fe fc5e 	bl	8001a60 <HAL_GetTick>
 80031a4:	6138      	str	r0, [r7, #16]

        /* Wait till PLL is ready */
        while(__HAL_RCC_GET_FLAG(RCC_FLAG_PLLRDY) != RESET)
 80031a6:	e008      	b.n	80031ba <HAL_RCC_OscConfig+0x406>
        {
          if((HAL_GetTick() - tickstart ) > PLL_TIMEOUT_VALUE)
 80031a8:	f7fe fc5a 	bl	8001a60 <HAL_GetTick>
 80031ac:	4602      	mov	r2, r0
 80031ae:	693b      	ldr	r3, [r7, #16]
 80031b0:	1ad3      	subs	r3, r2, r3
 80031b2:	2b02      	cmp	r3, #2
 80031b4:	d901      	bls.n	80031ba <HAL_RCC_OscConfig+0x406>
          {
            return HAL_TIMEOUT;
 80031b6:	2303      	movs	r3, #3
 80031b8:	e093      	b.n	80032e2 <HAL_RCC_OscConfig+0x52e>
        while(__HAL_RCC_GET_FLAG(RCC_FLAG_PLLRDY) != RESET)
 80031ba:	4b29      	ldr	r3, [pc, #164]	; (8003260 <HAL_RCC_OscConfig+0x4ac>)
 80031bc:	681b      	ldr	r3, [r3, #0]
 80031be:	f003 7300 	and.w	r3, r3, #33554432	; 0x2000000
 80031c2:	2b00      	cmp	r3, #0
 80031c4:	d1f0      	bne.n	80031a8 <HAL_RCC_OscConfig+0x3f4>
          }
        }

        /* Configure the main PLL clock source, multiplication and division factors. */
        WRITE_REG(RCC->PLLCFGR, (RCC_OscInitStruct->PLL.PLLSource                                            | \
 80031c6:	687b      	ldr	r3, [r7, #4]
 80031c8:	69da      	ldr	r2, [r3, #28]
 80031ca:	687b      	ldr	r3, [r7, #4]
 80031cc:	6a1b      	ldr	r3, [r3, #32]
 80031ce:	431a      	orrs	r2, r3
 80031d0:	687b      	ldr	r3, [r7, #4]
 80031d2:	6a5b      	ldr	r3, [r3, #36]	; 0x24
 80031d4:	019b      	lsls	r3, r3, #6
 80031d6:	431a      	orrs	r2, r3
 80031d8:	687b      	ldr	r3, [r7, #4]
 80031da:	6a9b      	ldr	r3, [r3, #40]	; 0x28
 80031dc:	085b      	lsrs	r3, r3, #1
 80031de:	3b01      	subs	r3, #1
 80031e0:	041b      	lsls	r3, r3, #16
 80031e2:	431a      	orrs	r2, r3
 80031e4:	687b      	ldr	r3, [r7, #4]
 80031e6:	6adb      	ldr	r3, [r3, #44]	; 0x2c
 80031e8:	061b      	lsls	r3, r3, #24
 80031ea:	431a      	orrs	r2, r3
 80031ec:	687b      	ldr	r3, [r7, #4]
 80031ee:	6b1b      	ldr	r3, [r3, #48]	; 0x30
 80031f0:	071b      	lsls	r3, r3, #28
 80031f2:	491b      	ldr	r1, [pc, #108]	; (8003260 <HAL_RCC_OscConfig+0x4ac>)
 80031f4:	4313      	orrs	r3, r2
 80031f6:	604b      	str	r3, [r1, #4]
                                 (RCC_OscInitStruct->PLL.PLLN << RCC_PLLCFGR_PLLN_Pos)                       | \
                                 (((RCC_OscInitStruct->PLL.PLLP >> 1U) - 1U) << RCC_PLLCFGR_PLLP_Pos)        | \
                                 (RCC_OscInitStruct->PLL.PLLQ << RCC_PLLCFGR_PLLQ_Pos)                       | \
                                 (RCC_OscInitStruct->PLL.PLLR << RCC_PLLCFGR_PLLR_Pos)));
        /* Enable the main PLL. */
        __HAL_RCC_PLL_ENABLE();
 80031f8:	4b1b      	ldr	r3, [pc, #108]	; (8003268 <HAL_RCC_OscConfig+0x4b4>)
 80031fa:	2201      	movs	r2, #1
 80031fc:	601a      	str	r2, [r3, #0]

        /* Get Start Tick*/
        tickstart = HAL_GetTick();
 80031fe:	f7fe fc2f 	bl	8001a60 <HAL_GetTick>
 8003202:	6138      	str	r0, [r7, #16]

        /* Wait till PLL is ready */
        while(__HAL_RCC_GET_FLAG(RCC_FLAG_PLLRDY) == RESET)
 8003204:	e008      	b.n	8003218 <HAL_RCC_OscConfig+0x464>
        {
          if((HAL_GetTick() - tickstart ) > PLL_TIMEOUT_VALUE)
 8003206:	f7fe fc2b 	bl	8001a60 <HAL_GetTick>
 800320a:	4602      	mov	r2, r0
 800320c:	693b      	ldr	r3, [r7, #16]
 800320e:	1ad3      	subs	r3, r2, r3
 8003210:	2b02      	cmp	r3, #2
 8003212:	d901      	bls.n	8003218 <HAL_RCC_OscConfig+0x464>
          {
            return HAL_TIMEOUT;
 8003214:	2303      	movs	r3, #3
 8003216:	e064      	b.n	80032e2 <HAL_RCC_OscConfig+0x52e>
        while(__HAL_RCC_GET_FLAG(RCC_FLAG_PLLRDY) == RESET)
 8003218:	4b11      	ldr	r3, [pc, #68]	; (8003260 <HAL_RCC_OscConfig+0x4ac>)
 800321a:	681b      	ldr	r3, [r3, #0]
 800321c:	f003 7300 	and.w	r3, r3, #33554432	; 0x2000000
 8003220:	2b00      	cmp	r3, #0
 8003222:	d0f0      	beq.n	8003206 <HAL_RCC_OscConfig+0x452>
 8003224:	e05c      	b.n	80032e0 <HAL_RCC_OscConfig+0x52c>
        }
      }
      else
      {
        /* Disable the main PLL. */
        __HAL_RCC_PLL_DISABLE();
 8003226:	4b10      	ldr	r3, [pc, #64]	; (8003268 <HAL_RCC_OscConfig+0x4b4>)
 8003228:	2200      	movs	r2, #0
 800322a:	601a      	str	r2, [r3, #0]

        /* Get Start Tick*/
        tickstart = HAL_GetTick();
 800322c:	f7fe fc18 	bl	8001a60 <HAL_GetTick>
 8003230:	6138      	str	r0, [r7, #16]

        /* Wait till PLL is ready */
        while(__HAL_RCC_GET_FLAG(RCC_FLAG_PLLRDY) != RESET)
 8003232:	e008      	b.n	8003246 <HAL_RCC_OscConfig+0x492>
        {
          if((HAL_GetTick() - tickstart ) > PLL_TIMEOUT_VALUE)
 8003234:	f7fe fc14 	bl	8001a60 <HAL_GetTick>
 8003238:	4602      	mov	r2, r0
 800323a:	693b      	ldr	r3, [r7, #16]
 800323c:	1ad3      	subs	r3, r2, r3
 800323e:	2b02      	cmp	r3, #2
 8003240:	d901      	bls.n	8003246 <HAL_RCC_OscConfig+0x492>
          {
            return HAL_TIMEOUT;
 8003242:	2303      	movs	r3, #3
 8003244:	e04d      	b.n	80032e2 <HAL_RCC_OscConfig+0x52e>
        while(__HAL_RCC_GET_FLAG(RCC_FLAG_PLLRDY) != RESET)
 8003246:	4b06      	ldr	r3, [pc, #24]	; (8003260 <HAL_RCC_OscConfig+0x4ac>)
 8003248:	681b      	ldr	r3, [r3, #0]
 800324a:	f003 7300 	and.w	r3, r3, #33554432	; 0x2000000
 800324e:	2b00      	cmp	r3, #0
 8003250:	d1f0      	bne.n	8003234 <HAL_RCC_OscConfig+0x480>
 8003252:	e045      	b.n	80032e0 <HAL_RCC_OscConfig+0x52c>
      }
    }
    else
    {
      /* Check if there is a request to disable the PLL used as System clock source */
      if((RCC_OscInitStruct->PLL.PLLState) == RCC_PLL_OFF)
 8003254:	687b      	ldr	r3, [r7, #4]
 8003256:	699b      	ldr	r3, [r3, #24]
 8003258:	2b01      	cmp	r3, #1
 800325a:	d107      	bne.n	800326c <HAL_RCC_OscConfig+0x4b8>
      {
        return HAL_ERROR;
 800325c:	2301      	movs	r3, #1
 800325e:	e040      	b.n	80032e2 <HAL_RCC_OscConfig+0x52e>
 8003260:	40023800 	.word	0x40023800
 8003264:	40007000 	.word	0x40007000
 8003268:	42470060 	.word	0x42470060
      }
      else
      {
        /* Do not return HAL_ERROR if request repeats the current configuration */
        pll_config = RCC->PLLCFGR;
 800326c:	4b1f      	ldr	r3, [pc, #124]	; (80032ec <HAL_RCC_OscConfig+0x538>)
 800326e:	685b      	ldr	r3, [r3, #4]
 8003270:	60fb      	str	r3, [r7, #12]
#if defined (RCC_PLLCFGR_PLLR)
        if (((RCC_OscInitStruct->PLL.PLLState) == RCC_PLL_OFF) ||
 8003272:	687b      	ldr	r3, [r7, #4]
 8003274:	699b      	ldr	r3, [r3, #24]
 8003276:	2b01      	cmp	r3, #1
 8003278:	d030      	beq.n	80032dc <HAL_RCC_OscConfig+0x528>
            (READ_BIT(pll_config, RCC_PLLCFGR_PLLSRC) != RCC_OscInitStruct->PLL.PLLSource) ||
 800327a:	68fb      	ldr	r3, [r7, #12]
 800327c:	f403 0280 	and.w	r2, r3, #4194304	; 0x400000
 8003280:	687b      	ldr	r3, [r7, #4]
 8003282:	69db      	ldr	r3, [r3, #28]
        if (((RCC_OscInitStruct->PLL.PLLState) == RCC_PLL_OFF) ||
 8003284:	429a      	cmp	r2, r3
 8003286:	d129      	bne.n	80032dc <HAL_RCC_OscConfig+0x528>
            (READ_BIT(pll_config, RCC_PLLCFGR_PLLM) != (RCC_OscInitStruct->PLL.PLLM) << RCC_PLLCFGR_PLLM_Pos) ||
 8003288:	68fb      	ldr	r3, [r7, #12]
 800328a:	f003 023f 	and.w	r2, r3, #63	; 0x3f
 800328e:	687b      	ldr	r3, [r7, #4]
 8003290:	6a1b      	ldr	r3, [r3, #32]
            (READ_BIT(pll_config, RCC_PLLCFGR_PLLSRC) != RCC_OscInitStruct->PLL.PLLSource) ||
 8003292:	429a      	cmp	r2, r3
 8003294:	d122      	bne.n	80032dc <HAL_RCC_OscConfig+0x528>
            (READ_BIT(pll_config, RCC_PLLCFGR_PLLN) != (RCC_OscInitStruct->PLL.PLLN) << RCC_PLLCFGR_PLLN_Pos) ||
 8003296:	68fa      	ldr	r2, [r7, #12]
 8003298:	f647 73c0 	movw	r3, #32704	; 0x7fc0
 800329c:	4013      	ands	r3, r2
 800329e:	687a      	ldr	r2, [r7, #4]
 80032a0:	6a52      	ldr	r2, [r2, #36]	; 0x24
 80032a2:	0192      	lsls	r2, r2, #6
            (READ_BIT(pll_config, RCC_PLLCFGR_PLLM) != (RCC_OscInitStruct->PLL.PLLM) << RCC_PLLCFGR_PLLM_Pos) ||
 80032a4:	4293      	cmp	r3, r2
 80032a6:	d119      	bne.n	80032dc <HAL_RCC_OscConfig+0x528>
            (READ_BIT(pll_config, RCC_PLLCFGR_PLLP) != (((RCC_OscInitStruct->PLL.PLLP >> 1U) - 1U)) << RCC_PLLCFGR_PLLP_Pos) ||
 80032a8:	68fb      	ldr	r3, [r7, #12]
 80032aa:	f403 3240 	and.w	r2, r3, #196608	; 0x30000
 80032ae:	687b      	ldr	r3, [r7, #4]
 80032b0:	6a9b      	ldr	r3, [r3, #40]	; 0x28
 80032b2:	085b      	lsrs	r3, r3, #1
 80032b4:	3b01      	subs	r3, #1
 80032b6:	041b      	lsls	r3, r3, #16
            (READ_BIT(pll_config, RCC_PLLCFGR_PLLN) != (RCC_OscInitStruct->PLL.PLLN) << RCC_PLLCFGR_PLLN_Pos) ||
 80032b8:	429a      	cmp	r2, r3
 80032ba:	d10f      	bne.n	80032dc <HAL_RCC_OscConfig+0x528>
            (READ_BIT(pll_config, RCC_PLLCFGR_PLLQ) != (RCC_OscInitStruct->PLL.PLLQ << RCC_PLLCFGR_PLLQ_Pos)) ||
 80032bc:	68fb      	ldr	r3, [r7, #12]
 80032be:	f003 6270 	and.w	r2, r3, #251658240	; 0xf000000
 80032c2:	687b      	ldr	r3, [r7, #4]
 80032c4:	6adb      	ldr	r3, [r3, #44]	; 0x2c
 80032c6:	061b      	lsls	r3, r3, #24
            (READ_BIT(pll_config, RCC_PLLCFGR_PLLP) != (((RCC_OscInitStruct->PLL.PLLP >> 1U) - 1U)) << RCC_PLLCFGR_PLLP_Pos) ||
 80032c8:	429a      	cmp	r2, r3
 80032ca:	d107      	bne.n	80032dc <HAL_RCC_OscConfig+0x528>
            (READ_BIT(pll_config, RCC_PLLCFGR_PLLR) != (RCC_OscInitStruct->PLL.PLLR << RCC_PLLCFGR_PLLR_Pos)))
 80032cc:	68fb      	ldr	r3, [r7, #12]
 80032ce:	f003 42e0 	and.w	r2, r3, #1879048192	; 0x70000000
 80032d2:	687b      	ldr	r3, [r7, #4]
 80032d4:	6b1b      	ldr	r3, [r3, #48]	; 0x30
 80032d6:	071b      	lsls	r3, r3, #28
            (READ_BIT(pll_config, RCC_PLLCFGR_PLLQ) != (RCC_OscInitStruct->PLL.PLLQ << RCC_PLLCFGR_PLLQ_Pos)) ||
 80032d8:	429a      	cmp	r2, r3
 80032da:	d001      	beq.n	80032e0 <HAL_RCC_OscConfig+0x52c>
            (READ_BIT(pll_config, RCC_PLLCFGR_PLLN) != (RCC_OscInitStruct->PLL.PLLN) << RCC_PLLCFGR_PLLN_Pos) ||
            (READ_BIT(pll_config, RCC_PLLCFGR_PLLP) != (((RCC_OscInitStruct->PLL.PLLP >> 1U) - 1U)) << RCC_PLLCFGR_PLLP_Pos) ||
            (READ_BIT(pll_config, RCC_PLLCFGR_PLLQ) != (RCC_OscInitStruct->PLL.PLLQ << RCC_PLLCFGR_PLLQ_Pos)))
#endif
        {
          return HAL_ERROR;
 80032dc:	2301      	movs	r3, #1
 80032de:	e000      	b.n	80032e2 <HAL_RCC_OscConfig+0x52e>
        }
      }
    }
  }
  return HAL_OK;
 80032e0:	2300      	movs	r3, #0
}
 80032e2:	4618      	mov	r0, r3
 80032e4:	3718      	adds	r7, #24
 80032e6:	46bd      	mov	sp, r7
 80032e8:	bd80      	pop	{r7, pc}
 80032ea:	bf00      	nop
 80032ec:	40023800 	.word	0x40023800

080032f0 <HAL_UART_Init>:
  * @param  huart  Pointer to a UART_HandleTypeDef structure that contains
  *                the configuration information for the specified UART module.
  * @retval HAL status
  */
HAL_StatusTypeDef HAL_UART_Init(UART_HandleTypeDef *huart)
{
 80032f0:	b580      	push	{r7, lr}
 80032f2:	b082      	sub	sp, #8
 80032f4:	af00      	add	r7, sp, #0
 80032f6:	6078      	str	r0, [r7, #4]
  /* Check the UART handle allocation */
  if (huart == NULL)
 80032f8:	687b      	ldr	r3, [r7, #4]
 80032fa:	2b00      	cmp	r3, #0
 80032fc:	d101      	bne.n	8003302 <HAL_UART_Init+0x12>
  {
    return HAL_ERROR;
 80032fe:	2301      	movs	r3, #1
 8003300:	e03f      	b.n	8003382 <HAL_UART_Init+0x92>
    assert_param(IS_UART_INSTANCE(huart->Instance));
  }
  assert_param(IS_UART_WORD_LENGTH(huart->Init.WordLength));
  assert_param(IS_UART_OVERSAMPLING(huart->Init.OverSampling));

  if (huart->gState == HAL_UART_STATE_RESET)
 8003302:	687b      	ldr	r3, [r7, #4]
 8003304:	f893 303d 	ldrb.w	r3, [r3, #61]	; 0x3d
 8003308:	b2db      	uxtb	r3, r3
 800330a:	2b00      	cmp	r3, #0
 800330c:	d106      	bne.n	800331c <HAL_UART_Init+0x2c>
  {
    /* Allocate lock resource and initialize it */
    huart->Lock = HAL_UNLOCKED;
 800330e:	687b      	ldr	r3, [r7, #4]
 8003310:	2200      	movs	r2, #0
 8003312:	f883 203c 	strb.w	r2, [r3, #60]	; 0x3c

    /* Init the low level hardware */
    huart->MspInitCallback(huart);
#else
    /* Init the low level hardware : GPIO, CLOCK */
    HAL_UART_MspInit(huart);
 8003316:	6878      	ldr	r0, [r7, #4]
 8003318:	f7fe f956 	bl	80015c8 <HAL_UART_MspInit>
#endif /* (USE_HAL_UART_REGISTER_CALLBACKS) */
  }

  huart->gState = HAL_UART_STATE_BUSY;
 800331c:	687b      	ldr	r3, [r7, #4]
 800331e:	2224      	movs	r2, #36	; 0x24
 8003320:	f883 203d 	strb.w	r2, [r3, #61]	; 0x3d

  /* Disable the peripheral */
  __HAL_UART_DISABLE(huart);
 8003324:	687b      	ldr	r3, [r7, #4]
 8003326:	681b      	ldr	r3, [r3, #0]
 8003328:	68da      	ldr	r2, [r3, #12]
 800332a:	687b      	ldr	r3, [r7, #4]
 800332c:	681b      	ldr	r3, [r3, #0]
 800332e:	f422 5200 	bic.w	r2, r2, #8192	; 0x2000
 8003332:	60da      	str	r2, [r3, #12]

  /* Set the UART Communication parameters */
  UART_SetConfig(huart);
 8003334:	6878      	ldr	r0, [r7, #4]
 8003336:	f000 fb9b 	bl	8003a70 <UART_SetConfig>

  /* In asynchronous mode, the following bits must be kept cleared:
     - LINEN and CLKEN bits in the USART_CR2 register,
     - SCEN, HDSEL and IREN  bits in the USART_CR3 register.*/
  CLEAR_BIT(huart->Instance->CR2, (USART_CR2_LINEN | USART_CR2_CLKEN));
 800333a:	687b      	ldr	r3, [r7, #4]
 800333c:	681b      	ldr	r3, [r3, #0]
 800333e:	691a      	ldr	r2, [r3, #16]
 8003340:	687b      	ldr	r3, [r7, #4]
 8003342:	681b      	ldr	r3, [r3, #0]
 8003344:	f422 4290 	bic.w	r2, r2, #18432	; 0x4800
 8003348:	611a      	str	r2, [r3, #16]
  CLEAR_BIT(huart->Instance->CR3, (USART_CR3_SCEN | USART_CR3_HDSEL | USART_CR3_IREN));
 800334a:	687b      	ldr	r3, [r7, #4]
 800334c:	681b      	ldr	r3, [r3, #0]
 800334e:	695a      	ldr	r2, [r3, #20]
 8003350:	687b      	ldr	r3, [r7, #4]
 8003352:	681b      	ldr	r3, [r3, #0]
 8003354:	f022 022a 	bic.w	r2, r2, #42	; 0x2a
 8003358:	615a      	str	r2, [r3, #20]

  /* Enable the peripheral */
  __HAL_UART_ENABLE(huart);
 800335a:	687b      	ldr	r3, [r7, #4]
 800335c:	681b      	ldr	r3, [r3, #0]
 800335e:	68da      	ldr	r2, [r3, #12]
 8003360:	687b      	ldr	r3, [r7, #4]
 8003362:	681b      	ldr	r3, [r3, #0]
 8003364:	f442 5200 	orr.w	r2, r2, #8192	; 0x2000
 8003368:	60da      	str	r2, [r3, #12]

  /* Initialize the UART state */
  huart->ErrorCode = HAL_UART_ERROR_NONE;
 800336a:	687b      	ldr	r3, [r7, #4]
 800336c:	2200      	movs	r2, #0
 800336e:	641a      	str	r2, [r3, #64]	; 0x40
  huart->gState = HAL_UART_STATE_READY;
 8003370:	687b      	ldr	r3, [r7, #4]
 8003372:	2220      	movs	r2, #32
 8003374:	f883 203d 	strb.w	r2, [r3, #61]	; 0x3d
  huart->RxState = HAL_UART_STATE_READY;
 8003378:	687b      	ldr	r3, [r7, #4]
 800337a:	2220      	movs	r2, #32
 800337c:	f883 203e 	strb.w	r2, [r3, #62]	; 0x3e

  return HAL_OK;
 8003380:	2300      	movs	r3, #0
}
 8003382:	4618      	mov	r0, r3
 8003384:	3708      	adds	r7, #8
 8003386:	46bd      	mov	sp, r7
 8003388:	bd80      	pop	{r7, pc}

0800338a <HAL_UART_Transmit>:
  * @param  Size  Amount of data elements (u8 or u16) to be sent
  * @param  Timeout Timeout duration
  * @retval HAL status
  */
HAL_StatusTypeDef HAL_UART_Transmit(UART_HandleTypeDef *huart, const uint8_t *pData, uint16_t Size, uint32_t Timeout)
{
 800338a:	b580      	push	{r7, lr}
 800338c:	b08a      	sub	sp, #40	; 0x28
 800338e:	af02      	add	r7, sp, #8
 8003390:	60f8      	str	r0, [r7, #12]
 8003392:	60b9      	str	r1, [r7, #8]
 8003394:	603b      	str	r3, [r7, #0]
 8003396:	4613      	mov	r3, r2
 8003398:	80fb      	strh	r3, [r7, #6]
  const uint8_t  *pdata8bits;
  const uint16_t *pdata16bits;
  uint32_t tickstart = 0U;
 800339a:	2300      	movs	r3, #0
 800339c:	617b      	str	r3, [r7, #20]

  /* Check that a Tx process is not already ongoing */
  if (huart->gState == HAL_UART_STATE_READY)
 800339e:	68fb      	ldr	r3, [r7, #12]
 80033a0:	f893 303d 	ldrb.w	r3, [r3, #61]	; 0x3d
 80033a4:	b2db      	uxtb	r3, r3
 80033a6:	2b20      	cmp	r3, #32
 80033a8:	d17c      	bne.n	80034a4 <HAL_UART_Transmit+0x11a>
  {
    if ((pData == NULL) || (Size == 0U))
 80033aa:	68bb      	ldr	r3, [r7, #8]
 80033ac:	2b00      	cmp	r3, #0
 80033ae:	d002      	beq.n	80033b6 <HAL_UART_Transmit+0x2c>
 80033b0:	88fb      	ldrh	r3, [r7, #6]
 80033b2:	2b00      	cmp	r3, #0
 80033b4:	d101      	bne.n	80033ba <HAL_UART_Transmit+0x30>
    {
      return  HAL_ERROR;
 80033b6:	2301      	movs	r3, #1
 80033b8:	e075      	b.n	80034a6 <HAL_UART_Transmit+0x11c>
    }

    /* Process Locked */
    __HAL_LOCK(huart);
 80033ba:	68fb      	ldr	r3, [r7, #12]
 80033bc:	f893 303c 	ldrb.w	r3, [r3, #60]	; 0x3c
 80033c0:	2b01      	cmp	r3, #1
 80033c2:	d101      	bne.n	80033c8 <HAL_UART_Transmit+0x3e>
 80033c4:	2302      	movs	r3, #2
 80033c6:	e06e      	b.n	80034a6 <HAL_UART_Transmit+0x11c>
 80033c8:	68fb      	ldr	r3, [r7, #12]
 80033ca:	2201      	movs	r2, #1
 80033cc:	f883 203c 	strb.w	r2, [r3, #60]	; 0x3c

    huart->ErrorCode = HAL_UART_ERROR_NONE;
 80033d0:	68fb      	ldr	r3, [r7, #12]
 80033d2:	2200      	movs	r2, #0
 80033d4:	641a      	str	r2, [r3, #64]	; 0x40
    huart->gState = HAL_UART_STATE_BUSY_TX;
 80033d6:	68fb      	ldr	r3, [r7, #12]
 80033d8:	2221      	movs	r2, #33	; 0x21
 80033da:	f883 203d 	strb.w	r2, [r3, #61]	; 0x3d

    /* Init tickstart for timeout management */
    tickstart = HAL_GetTick();
 80033de:	f7fe fb3f 	bl	8001a60 <HAL_GetTick>
 80033e2:	6178      	str	r0, [r7, #20]

    huart->TxXferSize = Size;
 80033e4:	68fb      	ldr	r3, [r7, #12]
 80033e6:	88fa      	ldrh	r2, [r7, #6]
 80033e8:	849a      	strh	r2, [r3, #36]	; 0x24
    huart->TxXferCount = Size;
 80033ea:	68fb      	ldr	r3, [r7, #12]
 80033ec:	88fa      	ldrh	r2, [r7, #6]
 80033ee:	84da      	strh	r2, [r3, #38]	; 0x26

    /* In case of 9bits/No Parity transfer, pData needs to be handled as a uint16_t pointer */
    if ((huart->Init.WordLength == UART_WORDLENGTH_9B) && (huart->Init.Parity == UART_PARITY_NONE))
 80033f0:	68fb      	ldr	r3, [r7, #12]
 80033f2:	689b      	ldr	r3, [r3, #8]
 80033f4:	f5b3 5f80 	cmp.w	r3, #4096	; 0x1000
 80033f8:	d108      	bne.n	800340c <HAL_UART_Transmit+0x82>
 80033fa:	68fb      	ldr	r3, [r7, #12]
 80033fc:	691b      	ldr	r3, [r3, #16]
 80033fe:	2b00      	cmp	r3, #0
 8003400:	d104      	bne.n	800340c <HAL_UART_Transmit+0x82>
    {
      pdata8bits  = NULL;
 8003402:	2300      	movs	r3, #0
 8003404:	61fb      	str	r3, [r7, #28]
      pdata16bits = (const uint16_t *) pData;
 8003406:	68bb      	ldr	r3, [r7, #8]
 8003408:	61bb      	str	r3, [r7, #24]
 800340a:	e003      	b.n	8003414 <HAL_UART_Transmit+0x8a>
    }
    else
    {
      pdata8bits  = pData;
 800340c:	68bb      	ldr	r3, [r7, #8]
 800340e:	61fb      	str	r3, [r7, #28]
      pdata16bits = NULL;
 8003410:	2300      	movs	r3, #0
 8003412:	61bb      	str	r3, [r7, #24]
    }

    /* Process Unlocked */
    __HAL_UNLOCK(huart);
 8003414:	68fb      	ldr	r3, [r7, #12]
 8003416:	2200      	movs	r2, #0
 8003418:	f883 203c 	strb.w	r2, [r3, #60]	; 0x3c

    while (huart->TxXferCount > 0U)
 800341c:	e02a      	b.n	8003474 <HAL_UART_Transmit+0xea>
    {
      if (UART_WaitOnFlagUntilTimeout(huart, UART_FLAG_TXE, RESET, tickstart, Timeout) != HAL_OK)
 800341e:	683b      	ldr	r3, [r7, #0]
 8003420:	9300      	str	r3, [sp, #0]
 8003422:	697b      	ldr	r3, [r7, #20]
 8003424:	2200      	movs	r2, #0
 8003426:	2180      	movs	r1, #128	; 0x80
 8003428:	68f8      	ldr	r0, [r7, #12]
 800342a:	f000 f988 	bl	800373e <UART_WaitOnFlagUntilTimeout>
 800342e:	4603      	mov	r3, r0
 8003430:	2b00      	cmp	r3, #0
 8003432:	d001      	beq.n	8003438 <HAL_UART_Transmit+0xae>
      {
        return HAL_TIMEOUT;
 8003434:	2303      	movs	r3, #3
 8003436:	e036      	b.n	80034a6 <HAL_UART_Transmit+0x11c>
      }
      if (pdata8bits == NULL)
 8003438:	69fb      	ldr	r3, [r7, #28]
 800343a:	2b00      	cmp	r3, #0
 800343c:	d10b      	bne.n	8003456 <HAL_UART_Transmit+0xcc>
      {
        huart->Instance->DR = (uint16_t)(*pdata16bits & 0x01FFU);
 800343e:	69bb      	ldr	r3, [r7, #24]
 8003440:	881b      	ldrh	r3, [r3, #0]
 8003442:	461a      	mov	r2, r3
 8003444:	68fb      	ldr	r3, [r7, #12]
 8003446:	681b      	ldr	r3, [r3, #0]
 8003448:	f3c2 0208 	ubfx	r2, r2, #0, #9
 800344c:	605a      	str	r2, [r3, #4]
        pdata16bits++;
 800344e:	69bb      	ldr	r3, [r7, #24]
 8003450:	3302      	adds	r3, #2
 8003452:	61bb      	str	r3, [r7, #24]
 8003454:	e007      	b.n	8003466 <HAL_UART_Transmit+0xdc>
      }
      else
      {
        huart->Instance->DR = (uint8_t)(*pdata8bits & 0xFFU);
 8003456:	69fb      	ldr	r3, [r7, #28]
 8003458:	781a      	ldrb	r2, [r3, #0]
 800345a:	68fb      	ldr	r3, [r7, #12]
 800345c:	681b      	ldr	r3, [r3, #0]
 800345e:	605a      	str	r2, [r3, #4]
        pdata8bits++;
 8003460:	69fb      	ldr	r3, [r7, #28]
 8003462:	3301      	adds	r3, #1
 8003464:	61fb      	str	r3, [r7, #28]
      }
      huart->TxXferCount--;
 8003466:	68fb      	ldr	r3, [r7, #12]
 8003468:	8cdb      	ldrh	r3, [r3, #38]	; 0x26
 800346a:	b29b      	uxth	r3, r3
 800346c:	3b01      	subs	r3, #1
 800346e:	b29a      	uxth	r2, r3
 8003470:	68fb      	ldr	r3, [r7, #12]
 8003472:	84da      	strh	r2, [r3, #38]	; 0x26
    while (huart->TxXferCount > 0U)
 8003474:	68fb      	ldr	r3, [r7, #12]
 8003476:	8cdb      	ldrh	r3, [r3, #38]	; 0x26
 8003478:	b29b      	uxth	r3, r3
 800347a:	2b00      	cmp	r3, #0
 800347c:	d1cf      	bne.n	800341e <HAL_UART_Transmit+0x94>
    }

    if (UART_WaitOnFlagUntilTimeout(huart, UART_FLAG_TC, RESET, tickstart, Timeout) != HAL_OK)
 800347e:	683b      	ldr	r3, [r7, #0]
 8003480:	9300      	str	r3, [sp, #0]
 8003482:	697b      	ldr	r3, [r7, #20]
 8003484:	2200      	movs	r2, #0
 8003486:	2140      	movs	r1, #64	; 0x40
 8003488:	68f8      	ldr	r0, [r7, #12]
 800348a:	f000 f958 	bl	800373e <UART_WaitOnFlagUntilTimeout>
 800348e:	4603      	mov	r3, r0
 8003490:	2b00      	cmp	r3, #0
 8003492:	d001      	beq.n	8003498 <HAL_UART_Transmit+0x10e>
    {
      return HAL_TIMEOUT;
 8003494:	2303      	movs	r3, #3
 8003496:	e006      	b.n	80034a6 <HAL_UART_Transmit+0x11c>
    }

    /* At end of Tx process, restore huart->gState to Ready */
    huart->gState = HAL_UART_STATE_READY;
 8003498:	68fb      	ldr	r3, [r7, #12]
 800349a:	2220      	movs	r2, #32
 800349c:	f883 203d 	strb.w	r2, [r3, #61]	; 0x3d

    return HAL_OK;
 80034a0:	2300      	movs	r3, #0
 80034a2:	e000      	b.n	80034a6 <HAL_UART_Transmit+0x11c>
  }
  else
  {
    return HAL_BUSY;
 80034a4:	2302      	movs	r3, #2
  }
}
 80034a6:	4618      	mov	r0, r3
 80034a8:	3720      	adds	r7, #32
 80034aa:	46bd      	mov	sp, r7
 80034ac:	bd80      	pop	{r7, pc}

080034ae <HAL_UART_Receive_DMA>:
  * @param  Size  Amount of data elements (u8 or u16) to be received.
  * @note   When the UART parity is enabled (PCE = 1) the received data contains the parity bit.
  * @retval HAL status
  */
HAL_StatusTypeDef HAL_UART_Receive_DMA(UART_HandleTypeDef *huart, uint8_t *pData, uint16_t Size)
{
 80034ae:	b580      	push	{r7, lr}
 80034b0:	b084      	sub	sp, #16
 80034b2:	af00      	add	r7, sp, #0
 80034b4:	60f8      	str	r0, [r7, #12]
 80034b6:	60b9      	str	r1, [r7, #8]
 80034b8:	4613      	mov	r3, r2
 80034ba:	80fb      	strh	r3, [r7, #6]
  /* Check that a Rx process is not already ongoing */
  if (huart->RxState == HAL_UART_STATE_READY)
 80034bc:	68fb      	ldr	r3, [r7, #12]
 80034be:	f893 303e 	ldrb.w	r3, [r3, #62]	; 0x3e
 80034c2:	b2db      	uxtb	r3, r3
 80034c4:	2b20      	cmp	r3, #32
 80034c6:	d11d      	bne.n	8003504 <HAL_UART_Receive_DMA+0x56>
  {
    if ((pData == NULL) || (Size == 0U))
 80034c8:	68bb      	ldr	r3, [r7, #8]
 80034ca:	2b00      	cmp	r3, #0
 80034cc:	d002      	beq.n	80034d4 <HAL_UART_Receive_DMA+0x26>
 80034ce:	88fb      	ldrh	r3, [r7, #6]
 80034d0:	2b00      	cmp	r3, #0
 80034d2:	d101      	bne.n	80034d8 <HAL_UART_Receive_DMA+0x2a>
    {
      return HAL_ERROR;
 80034d4:	2301      	movs	r3, #1
 80034d6:	e016      	b.n	8003506 <HAL_UART_Receive_DMA+0x58>
    }

    /* Process Locked */
    __HAL_LOCK(huart);
 80034d8:	68fb      	ldr	r3, [r7, #12]
 80034da:	f893 303c 	ldrb.w	r3, [r3, #60]	; 0x3c
 80034de:	2b01      	cmp	r3, #1
 80034e0:	d101      	bne.n	80034e6 <HAL_UART_Receive_DMA+0x38>
 80034e2:	2302      	movs	r3, #2
 80034e4:	e00f      	b.n	8003506 <HAL_UART_Receive_DMA+0x58>
 80034e6:	68fb      	ldr	r3, [r7, #12]
 80034e8:	2201      	movs	r2, #1
 80034ea:	f883 203c 	strb.w	r2, [r3, #60]	; 0x3c

    /* Set Reception type to Standard reception */
    huart->ReceptionType = HAL_UART_RECEPTION_STANDARD;
 80034ee:	68fb      	ldr	r3, [r7, #12]
 80034f0:	2200      	movs	r2, #0
 80034f2:	631a      	str	r2, [r3, #48]	; 0x30

    return (UART_Start_Receive_DMA(huart, pData, Size));
 80034f4:	88fb      	ldrh	r3, [r7, #6]
 80034f6:	461a      	mov	r2, r3
 80034f8:	68b9      	ldr	r1, [r7, #8]
 80034fa:	68f8      	ldr	r0, [r7, #12]
 80034fc:	f000 f98e 	bl	800381c <UART_Start_Receive_DMA>
 8003500:	4603      	mov	r3, r0
 8003502:	e000      	b.n	8003506 <HAL_UART_Receive_DMA+0x58>
  }
  else
  {
    return HAL_BUSY;
 8003504:	2302      	movs	r3, #2
  }
}
 8003506:	4618      	mov	r0, r3
 8003508:	3710      	adds	r7, #16
 800350a:	46bd      	mov	sp, r7
 800350c:	bd80      	pop	{r7, pc}

0800350e <HAL_UART_RxHalfCpltCallback>:
  * @param  huart  Pointer to a UART_HandleTypeDef structure that contains
  *                the configuration information for the specified UART module.
  * @retval None
  */
__weak void HAL_UART_RxHalfCpltCallback(UART_HandleTypeDef *huart)
{
 800350e:	b480      	push	{r7}
 8003510:	b083      	sub	sp, #12
 8003512:	af00      	add	r7, sp, #0
 8003514:	6078      	str	r0, [r7, #4]
  /* Prevent unused argument(s) compilation warning */
  UNUSED(huart);
  /* NOTE: This function should not be modified, when the callback is needed,
           the HAL_UART_RxHalfCpltCallback could be implemented in the user file
   */
}
 8003516:	bf00      	nop
 8003518:	370c      	adds	r7, #12
 800351a:	46bd      	mov	sp, r7
 800351c:	f85d 7b04 	ldr.w	r7, [sp], #4
 8003520:	4770      	bx	lr

08003522 <HAL_UART_ErrorCallback>:
  * @param  huart  Pointer to a UART_HandleTypeDef structure that contains
  *                the configuration information for the specified UART module.
  * @retval None
  */
__weak void HAL_UART_ErrorCallback(UART_HandleTypeDef *huart)
{
 8003522:	b480      	push	{r7}
 8003524:	b083      	sub	sp, #12
 8003526:	af00      	add	r7, sp, #0
 8003528:	6078      	str	r0, [r7, #4]
  /* Prevent unused argument(s) compilation warning */
  UNUSED(huart);
  /* NOTE: This function should not be modified, when the callback is needed,
           the HAL_UART_ErrorCallback could be implemented in the user file
   */
}
 800352a:	bf00      	nop
 800352c:	370c      	adds	r7, #12
 800352e:	46bd      	mov	sp, r7
 8003530:	f85d 7b04 	ldr.w	r7, [sp], #4
 8003534:	4770      	bx	lr

08003536 <HAL_UARTEx_RxEventCallback>:
  * @param  Size  Number of data available in application reception buffer (indicates a position in
  *               reception buffer until which, data are available)
  * @retval None
  */
__weak void HAL_UARTEx_RxEventCallback(UART_HandleTypeDef *huart, uint16_t Size)
{
 8003536:	b480      	push	{r7}
 8003538:	b083      	sub	sp, #12
 800353a:	af00      	add	r7, sp, #0
 800353c:	6078      	str	r0, [r7, #4]
 800353e:	460b      	mov	r3, r1
 8003540:	807b      	strh	r3, [r7, #2]
  UNUSED(Size);

  /* NOTE : This function should not be modified, when the callback is needed,
            the HAL_UARTEx_RxEventCallback can be implemented in the user file.
   */
}
 8003542:	bf00      	nop
 8003544:	370c      	adds	r7, #12
 8003546:	46bd      	mov	sp, r7
 8003548:	f85d 7b04 	ldr.w	r7, [sp], #4
 800354c:	4770      	bx	lr

0800354e <UART_DMAReceiveCplt>:
  * @param  hdma  Pointer to a DMA_HandleTypeDef structure that contains
  *               the configuration information for the specified DMA module.
  * @retval None
  */
static void UART_DMAReceiveCplt(DMA_HandleTypeDef *hdma)
{
 800354e:	b580      	push	{r7, lr}
 8003550:	b09c      	sub	sp, #112	; 0x70
 8003552:	af00      	add	r7, sp, #0
 8003554:	6078      	str	r0, [r7, #4]
  UART_HandleTypeDef *huart = (UART_HandleTypeDef *)((DMA_HandleTypeDef *)hdma)->Parent;
 8003556:	687b      	ldr	r3, [r7, #4]
 8003558:	6b9b      	ldr	r3, [r3, #56]	; 0x38
 800355a:	66fb      	str	r3, [r7, #108]	; 0x6c
  /* DMA Normal mode*/
  if ((hdma->Instance->CR & DMA_SxCR_CIRC) == 0U)
 800355c:	687b      	ldr	r3, [r7, #4]
 800355e:	681b      	ldr	r3, [r3, #0]
 8003560:	681b      	ldr	r3, [r3, #0]
 8003562:	f403 7380 	and.w	r3, r3, #256	; 0x100
 8003566:	2b00      	cmp	r3, #0
 8003568:	d172      	bne.n	8003650 <UART_DMAReceiveCplt+0x102>
  {
    huart->RxXferCount = 0U;
 800356a:	6efb      	ldr	r3, [r7, #108]	; 0x6c
 800356c:	2200      	movs	r2, #0
 800356e:	85da      	strh	r2, [r3, #46]	; 0x2e

    /* Disable RXNE, PE and ERR (Frame error, noise error, overrun error) interrupts */
    ATOMIC_CLEAR_BIT(huart->Instance->CR1, USART_CR1_PEIE);
 8003570:	6efb      	ldr	r3, [r7, #108]	; 0x6c
 8003572:	681b      	ldr	r3, [r3, #0]
 8003574:	330c      	adds	r3, #12
 8003576:	64fb      	str	r3, [r7, #76]	; 0x4c
 */
__STATIC_FORCEINLINE uint32_t __LDREXW(volatile uint32_t *addr)
{
    uint32_t result;

   __ASM volatile ("ldrex %0, %1" : "=r" (result) : "Q" (*addr) );
 8003578:	6cfb      	ldr	r3, [r7, #76]	; 0x4c
 800357a:	e853 3f00 	ldrex	r3, [r3]
 800357e:	64bb      	str	r3, [r7, #72]	; 0x48
   return(result);
 8003580:	6cbb      	ldr	r3, [r7, #72]	; 0x48
 8003582:	f423 7380 	bic.w	r3, r3, #256	; 0x100
 8003586:	66bb      	str	r3, [r7, #104]	; 0x68
 8003588:	6efb      	ldr	r3, [r7, #108]	; 0x6c
 800358a:	681b      	ldr	r3, [r3, #0]
 800358c:	330c      	adds	r3, #12
 800358e:	6eba      	ldr	r2, [r7, #104]	; 0x68
 8003590:	65ba      	str	r2, [r7, #88]	; 0x58
 8003592:	657b      	str	r3, [r7, #84]	; 0x54
 */
__STATIC_FORCEINLINE uint32_t __STREXW(uint32_t value, volatile uint32_t *addr)
{
   uint32_t result;

   __ASM volatile ("strex %0, %2, %1" : "=&r" (result), "=Q" (*addr) : "r" (value) );
 8003594:	6d79      	ldr	r1, [r7, #84]	; 0x54
 8003596:	6dba      	ldr	r2, [r7, #88]	; 0x58
 8003598:	e841 2300 	strex	r3, r2, [r1]
 800359c:	653b      	str	r3, [r7, #80]	; 0x50
   return(result);
 800359e:	6d3b      	ldr	r3, [r7, #80]	; 0x50
 80035a0:	2b00      	cmp	r3, #0
 80035a2:	d1e5      	bne.n	8003570 <UART_DMAReceiveCplt+0x22>
    ATOMIC_CLEAR_BIT(huart->Instance->CR3, USART_CR3_EIE);
 80035a4:	6efb      	ldr	r3, [r7, #108]	; 0x6c
 80035a6:	681b      	ldr	r3, [r3, #0]
 80035a8:	3314      	adds	r3, #20
 80035aa:	63bb      	str	r3, [r7, #56]	; 0x38
   __ASM volatile ("ldrex %0, %1" : "=r" (result) : "Q" (*addr) );
 80035ac:	6bbb      	ldr	r3, [r7, #56]	; 0x38
 80035ae:	e853 3f00 	ldrex	r3, [r3]
 80035b2:	637b      	str	r3, [r7, #52]	; 0x34
   return(result);
 80035b4:	6b7b      	ldr	r3, [r7, #52]	; 0x34
 80035b6:	f023 0301 	bic.w	r3, r3, #1
 80035ba:	667b      	str	r3, [r7, #100]	; 0x64
 80035bc:	6efb      	ldr	r3, [r7, #108]	; 0x6c
 80035be:	681b      	ldr	r3, [r3, #0]
 80035c0:	3314      	adds	r3, #20
 80035c2:	6e7a      	ldr	r2, [r7, #100]	; 0x64
 80035c4:	647a      	str	r2, [r7, #68]	; 0x44
 80035c6:	643b      	str	r3, [r7, #64]	; 0x40
   __ASM volatile ("strex %0, %2, %1" : "=&r" (result), "=Q" (*addr) : "r" (value) );
 80035c8:	6c39      	ldr	r1, [r7, #64]	; 0x40
 80035ca:	6c7a      	ldr	r2, [r7, #68]	; 0x44
 80035cc:	e841 2300 	strex	r3, r2, [r1]
 80035d0:	63fb      	str	r3, [r7, #60]	; 0x3c
   return(result);
 80035d2:	6bfb      	ldr	r3, [r7, #60]	; 0x3c
 80035d4:	2b00      	cmp	r3, #0
 80035d6:	d1e5      	bne.n	80035a4 <UART_DMAReceiveCplt+0x56>

    /* Disable the DMA transfer for the receiver request by setting the DMAR bit
       in the UART CR3 register */
    ATOMIC_CLEAR_BIT(huart->Instance->CR3, USART_CR3_DMAR);
 80035d8:	6efb      	ldr	r3, [r7, #108]	; 0x6c
 80035da:	681b      	ldr	r3, [r3, #0]
 80035dc:	3314      	adds	r3, #20
 80035de:	627b      	str	r3, [r7, #36]	; 0x24
   __ASM volatile ("ldrex %0, %1" : "=r" (result) : "Q" (*addr) );
 80035e0:	6a7b      	ldr	r3, [r7, #36]	; 0x24
 80035e2:	e853 3f00 	ldrex	r3, [r3]
 80035e6:	623b      	str	r3, [r7, #32]
   return(result);
 80035e8:	6a3b      	ldr	r3, [r7, #32]
 80035ea:	f023 0340 	bic.w	r3, r3, #64	; 0x40
 80035ee:	663b      	str	r3, [r7, #96]	; 0x60
 80035f0:	6efb      	ldr	r3, [r7, #108]	; 0x6c
 80035f2:	681b      	ldr	r3, [r3, #0]
 80035f4:	3314      	adds	r3, #20
 80035f6:	6e3a      	ldr	r2, [r7, #96]	; 0x60
 80035f8:	633a      	str	r2, [r7, #48]	; 0x30
 80035fa:	62fb      	str	r3, [r7, #44]	; 0x2c
   __ASM volatile ("strex %0, %2, %1" : "=&r" (result), "=Q" (*addr) : "r" (value) );
 80035fc:	6af9      	ldr	r1, [r7, #44]	; 0x2c
 80035fe:	6b3a      	ldr	r2, [r7, #48]	; 0x30
 8003600:	e841 2300 	strex	r3, r2, [r1]
 8003604:	62bb      	str	r3, [r7, #40]	; 0x28
   return(result);
 8003606:	6abb      	ldr	r3, [r7, #40]	; 0x28
 8003608:	2b00      	cmp	r3, #0
 800360a:	d1e5      	bne.n	80035d8 <UART_DMAReceiveCplt+0x8a>

    /* At end of Rx process, restore huart->RxState to Ready */
    huart->RxState = HAL_UART_STATE_READY;
 800360c:	6efb      	ldr	r3, [r7, #108]	; 0x6c
 800360e:	2220      	movs	r2, #32
 8003610:	f883 203e 	strb.w	r2, [r3, #62]	; 0x3e

    /* If Reception till IDLE event has been selected, Disable IDLE Interrupt */
    if (huart->ReceptionType == HAL_UART_RECEPTION_TOIDLE)
 8003614:	6efb      	ldr	r3, [r7, #108]	; 0x6c
 8003616:	6b1b      	ldr	r3, [r3, #48]	; 0x30
 8003618:	2b01      	cmp	r3, #1
 800361a:	d119      	bne.n	8003650 <UART_DMAReceiveCplt+0x102>
    {
      ATOMIC_CLEAR_BIT(huart->Instance->CR1, USART_CR1_IDLEIE);
 800361c:	6efb      	ldr	r3, [r7, #108]	; 0x6c
 800361e:	681b      	ldr	r3, [r3, #0]
 8003620:	330c      	adds	r3, #12
 8003622:	613b      	str	r3, [r7, #16]
   __ASM volatile ("ldrex %0, %1" : "=r" (result) : "Q" (*addr) );
 8003624:	693b      	ldr	r3, [r7, #16]
 8003626:	e853 3f00 	ldrex	r3, [r3]
 800362a:	60fb      	str	r3, [r7, #12]
   return(result);
 800362c:	68fb      	ldr	r3, [r7, #12]
 800362e:	f023 0310 	bic.w	r3, r3, #16
 8003632:	65fb      	str	r3, [r7, #92]	; 0x5c
 8003634:	6efb      	ldr	r3, [r7, #108]	; 0x6c
 8003636:	681b      	ldr	r3, [r3, #0]
 8003638:	330c      	adds	r3, #12
 800363a:	6dfa      	ldr	r2, [r7, #92]	; 0x5c
 800363c:	61fa      	str	r2, [r7, #28]
 800363e:	61bb      	str	r3, [r7, #24]
   __ASM volatile ("strex %0, %2, %1" : "=&r" (result), "=Q" (*addr) : "r" (value) );
 8003640:	69b9      	ldr	r1, [r7, #24]
 8003642:	69fa      	ldr	r2, [r7, #28]
 8003644:	e841 2300 	strex	r3, r2, [r1]
 8003648:	617b      	str	r3, [r7, #20]
   return(result);
 800364a:	697b      	ldr	r3, [r7, #20]
 800364c:	2b00      	cmp	r3, #0
 800364e:	d1e5      	bne.n	800361c <UART_DMAReceiveCplt+0xce>
    }
  }

  /* Check current reception Mode :
     If Reception till IDLE event has been selected : use Rx Event callback */
  if (huart->ReceptionType == HAL_UART_RECEPTION_TOIDLE)
 8003650:	6efb      	ldr	r3, [r7, #108]	; 0x6c
 8003652:	6b1b      	ldr	r3, [r3, #48]	; 0x30
 8003654:	2b01      	cmp	r3, #1
 8003656:	d106      	bne.n	8003666 <UART_DMAReceiveCplt+0x118>
#if (USE_HAL_UART_REGISTER_CALLBACKS == 1)
    /*Call registered Rx Event callback*/
    huart->RxEventCallback(huart, huart->RxXferSize);
#else
    /*Call legacy weak Rx Event callback*/
    HAL_UARTEx_RxEventCallback(huart, huart->RxXferSize);
 8003658:	6efb      	ldr	r3, [r7, #108]	; 0x6c
 800365a:	8d9b      	ldrh	r3, [r3, #44]	; 0x2c
 800365c:	4619      	mov	r1, r3
 800365e:	6ef8      	ldr	r0, [r7, #108]	; 0x6c
 8003660:	f7ff ff69 	bl	8003536 <HAL_UARTEx_RxEventCallback>
#else
    /*Call legacy weak Rx complete callback*/
    HAL_UART_RxCpltCallback(huart);
#endif /* USE_HAL_UART_REGISTER_CALLBACKS */
  }
}
 8003664:	e002      	b.n	800366c <UART_DMAReceiveCplt+0x11e>
    HAL_UART_RxCpltCallback(huart);
 8003666:	6ef8      	ldr	r0, [r7, #108]	; 0x6c
 8003668:	f7fd fe56 	bl	8001318 <HAL_UART_RxCpltCallback>
}
 800366c:	bf00      	nop
 800366e:	3770      	adds	r7, #112	; 0x70
 8003670:	46bd      	mov	sp, r7
 8003672:	bd80      	pop	{r7, pc}

08003674 <UART_DMARxHalfCplt>:
  * @param  hdma  Pointer to a DMA_HandleTypeDef structure that contains
  *               the configuration information for the specified DMA module.
  * @retval None
  */
static void UART_DMARxHalfCplt(DMA_HandleTypeDef *hdma)
{
 8003674:	b580      	push	{r7, lr}
 8003676:	b084      	sub	sp, #16
 8003678:	af00      	add	r7, sp, #0
 800367a:	6078      	str	r0, [r7, #4]
  UART_HandleTypeDef *huart = (UART_HandleTypeDef *)((DMA_HandleTypeDef *)hdma)->Parent;
 800367c:	687b      	ldr	r3, [r7, #4]
 800367e:	6b9b      	ldr	r3, [r3, #56]	; 0x38
 8003680:	60fb      	str	r3, [r7, #12]

  /* Check current reception Mode :
     If Reception till IDLE event has been selected : use Rx Event callback */
  if (huart->ReceptionType == HAL_UART_RECEPTION_TOIDLE)
 8003682:	68fb      	ldr	r3, [r7, #12]
 8003684:	6b1b      	ldr	r3, [r3, #48]	; 0x30
 8003686:	2b01      	cmp	r3, #1
 8003688:	d108      	bne.n	800369c <UART_DMARxHalfCplt+0x28>
#if (USE_HAL_UART_REGISTER_CALLBACKS == 1)
    /*Call registered Rx Event callback*/
    huart->RxEventCallback(huart, huart->RxXferSize / 2U);
#else
    /*Call legacy weak Rx Event callback*/
    HAL_UARTEx_RxEventCallback(huart, huart->RxXferSize / 2U);
 800368a:	68fb      	ldr	r3, [r7, #12]
 800368c:	8d9b      	ldrh	r3, [r3, #44]	; 0x2c
 800368e:	085b      	lsrs	r3, r3, #1
 8003690:	b29b      	uxth	r3, r3
 8003692:	4619      	mov	r1, r3
 8003694:	68f8      	ldr	r0, [r7, #12]
 8003696:	f7ff ff4e 	bl	8003536 <HAL_UARTEx_RxEventCallback>
#else
    /*Call legacy weak Rx Half complete callback*/
    HAL_UART_RxHalfCpltCallback(huart);
#endif /* USE_HAL_UART_REGISTER_CALLBACKS */
  }
}
 800369a:	e002      	b.n	80036a2 <UART_DMARxHalfCplt+0x2e>
    HAL_UART_RxHalfCpltCallback(huart);
 800369c:	68f8      	ldr	r0, [r7, #12]
 800369e:	f7ff ff36 	bl	800350e <HAL_UART_RxHalfCpltCallback>
}
 80036a2:	bf00      	nop
 80036a4:	3710      	adds	r7, #16
 80036a6:	46bd      	mov	sp, r7
 80036a8:	bd80      	pop	{r7, pc}

080036aa <UART_DMAError>:
  * @param  hdma  Pointer to a DMA_HandleTypeDef structure that contains
  *               the configuration information for the specified DMA module.
  * @retval None
  */
static void UART_DMAError(DMA_HandleTypeDef *hdma)
{
 80036aa:	b580      	push	{r7, lr}
 80036ac:	b084      	sub	sp, #16
 80036ae:	af00      	add	r7, sp, #0
 80036b0:	6078      	str	r0, [r7, #4]
  uint32_t dmarequest = 0x00U;
 80036b2:	2300      	movs	r3, #0
 80036b4:	60fb      	str	r3, [r7, #12]
  UART_HandleTypeDef *huart = (UART_HandleTypeDef *)((DMA_HandleTypeDef *)hdma)->Parent;
 80036b6:	687b      	ldr	r3, [r7, #4]
 80036b8:	6b9b      	ldr	r3, [r3, #56]	; 0x38
 80036ba:	60bb      	str	r3, [r7, #8]

  /* Stop UART DMA Tx request if ongoing */
  dmarequest = HAL_IS_BIT_SET(huart->Instance->CR3, USART_CR3_DMAT);
 80036bc:	68bb      	ldr	r3, [r7, #8]
 80036be:	681b      	ldr	r3, [r3, #0]
 80036c0:	695b      	ldr	r3, [r3, #20]
 80036c2:	f003 0380 	and.w	r3, r3, #128	; 0x80
 80036c6:	2b80      	cmp	r3, #128	; 0x80
 80036c8:	bf0c      	ite	eq
 80036ca:	2301      	moveq	r3, #1
 80036cc:	2300      	movne	r3, #0
 80036ce:	b2db      	uxtb	r3, r3
 80036d0:	60fb      	str	r3, [r7, #12]
  if ((huart->gState == HAL_UART_STATE_BUSY_TX) && dmarequest)
 80036d2:	68bb      	ldr	r3, [r7, #8]
 80036d4:	f893 303d 	ldrb.w	r3, [r3, #61]	; 0x3d
 80036d8:	b2db      	uxtb	r3, r3
 80036da:	2b21      	cmp	r3, #33	; 0x21
 80036dc:	d108      	bne.n	80036f0 <UART_DMAError+0x46>
 80036de:	68fb      	ldr	r3, [r7, #12]
 80036e0:	2b00      	cmp	r3, #0
 80036e2:	d005      	beq.n	80036f0 <UART_DMAError+0x46>
  {
    huart->TxXferCount = 0x00U;
 80036e4:	68bb      	ldr	r3, [r7, #8]
 80036e6:	2200      	movs	r2, #0
 80036e8:	84da      	strh	r2, [r3, #38]	; 0x26
    UART_EndTxTransfer(huart);
 80036ea:	68b8      	ldr	r0, [r7, #8]
 80036ec:	f000 f934 	bl	8003958 <UART_EndTxTransfer>
  }

  /* Stop UART DMA Rx request if ongoing */
  dmarequest = HAL_IS_BIT_SET(huart->Instance->CR3, USART_CR3_DMAR);
 80036f0:	68bb      	ldr	r3, [r7, #8]
 80036f2:	681b      	ldr	r3, [r3, #0]
 80036f4:	695b      	ldr	r3, [r3, #20]
 80036f6:	f003 0340 	and.w	r3, r3, #64	; 0x40
 80036fa:	2b40      	cmp	r3, #64	; 0x40
 80036fc:	bf0c      	ite	eq
 80036fe:	2301      	moveq	r3, #1
 8003700:	2300      	movne	r3, #0
 8003702:	b2db      	uxtb	r3, r3
 8003704:	60fb      	str	r3, [r7, #12]
  if ((huart->RxState == HAL_UART_STATE_BUSY_RX) && dmarequest)
 8003706:	68bb      	ldr	r3, [r7, #8]
 8003708:	f893 303e 	ldrb.w	r3, [r3, #62]	; 0x3e
 800370c:	b2db      	uxtb	r3, r3
 800370e:	2b22      	cmp	r3, #34	; 0x22
 8003710:	d108      	bne.n	8003724 <UART_DMAError+0x7a>
 8003712:	68fb      	ldr	r3, [r7, #12]
 8003714:	2b00      	cmp	r3, #0
 8003716:	d005      	beq.n	8003724 <UART_DMAError+0x7a>
  {
    huart->RxXferCount = 0x00U;
 8003718:	68bb      	ldr	r3, [r7, #8]
 800371a:	2200      	movs	r2, #0
 800371c:	85da      	strh	r2, [r3, #46]	; 0x2e
    UART_EndRxTransfer(huart);
 800371e:	68b8      	ldr	r0, [r7, #8]
 8003720:	f000 f942 	bl	80039a8 <UART_EndRxTransfer>
  }

  huart->ErrorCode |= HAL_UART_ERROR_DMA;
 8003724:	68bb      	ldr	r3, [r7, #8]
 8003726:	6c1b      	ldr	r3, [r3, #64]	; 0x40
 8003728:	f043 0210 	orr.w	r2, r3, #16
 800372c:	68bb      	ldr	r3, [r7, #8]
 800372e:	641a      	str	r2, [r3, #64]	; 0x40
#if (USE_HAL_UART_REGISTER_CALLBACKS == 1)
  /*Call registered error callback*/
  huart->ErrorCallback(huart);
#else
  /*Call legacy weak error callback*/
  HAL_UART_ErrorCallback(huart);
 8003730:	68b8      	ldr	r0, [r7, #8]
 8003732:	f7ff fef6 	bl	8003522 <HAL_UART_ErrorCallback>
#endif /* USE_HAL_UART_REGISTER_CALLBACKS */
}
 8003736:	bf00      	nop
 8003738:	3710      	adds	r7, #16
 800373a:	46bd      	mov	sp, r7
 800373c:	bd80      	pop	{r7, pc}

0800373e <UART_WaitOnFlagUntilTimeout>:
  * @param  Timeout Timeout duration
  * @retval HAL status
  */
static HAL_StatusTypeDef UART_WaitOnFlagUntilTimeout(UART_HandleTypeDef *huart, uint32_t Flag, FlagStatus Status,
                                                     uint32_t Tickstart, uint32_t Timeout)
{
 800373e:	b580      	push	{r7, lr}
 8003740:	b090      	sub	sp, #64	; 0x40
 8003742:	af00      	add	r7, sp, #0
 8003744:	60f8      	str	r0, [r7, #12]
 8003746:	60b9      	str	r1, [r7, #8]
 8003748:	603b      	str	r3, [r7, #0]
 800374a:	4613      	mov	r3, r2
 800374c:	71fb      	strb	r3, [r7, #7]
  /* Wait until flag is set */
  while ((__HAL_UART_GET_FLAG(huart, Flag) ? SET : RESET) == Status)
 800374e:	e050      	b.n	80037f2 <UART_WaitOnFlagUntilTimeout+0xb4>
  {
    /* Check for the Timeout */
    if (Timeout != HAL_MAX_DELAY)
 8003750:	6cbb      	ldr	r3, [r7, #72]	; 0x48
 8003752:	f1b3 3fff 	cmp.w	r3, #4294967295
 8003756:	d04c      	beq.n	80037f2 <UART_WaitOnFlagUntilTimeout+0xb4>
    {
      if ((Timeout == 0U) || ((HAL_GetTick() - Tickstart) > Timeout))
 8003758:	6cbb      	ldr	r3, [r7, #72]	; 0x48
 800375a:	2b00      	cmp	r3, #0
 800375c:	d007      	beq.n	800376e <UART_WaitOnFlagUntilTimeout+0x30>
 800375e:	f7fe f97f 	bl	8001a60 <HAL_GetTick>
 8003762:	4602      	mov	r2, r0
 8003764:	683b      	ldr	r3, [r7, #0]
 8003766:	1ad3      	subs	r3, r2, r3
 8003768:	6cba      	ldr	r2, [r7, #72]	; 0x48
 800376a:	429a      	cmp	r2, r3
 800376c:	d241      	bcs.n	80037f2 <UART_WaitOnFlagUntilTimeout+0xb4>
      {
        /* Disable TXE, RXNE, PE and ERR (Frame error, noise error, overrun error) interrupts for the interrupt process */
        ATOMIC_CLEAR_BIT(huart->Instance->CR1, (USART_CR1_RXNEIE | USART_CR1_PEIE | USART_CR1_TXEIE));
 800376e:	68fb      	ldr	r3, [r7, #12]
 8003770:	681b      	ldr	r3, [r3, #0]
 8003772:	330c      	adds	r3, #12
 8003774:	62bb      	str	r3, [r7, #40]	; 0x28
   __ASM volatile ("ldrex %0, %1" : "=r" (result) : "Q" (*addr) );
 8003776:	6abb      	ldr	r3, [r7, #40]	; 0x28
 8003778:	e853 3f00 	ldrex	r3, [r3]
 800377c:	627b      	str	r3, [r7, #36]	; 0x24
   return(result);
 800377e:	6a7b      	ldr	r3, [r7, #36]	; 0x24
 8003780:	f423 73d0 	bic.w	r3, r3, #416	; 0x1a0
 8003784:	63fb      	str	r3, [r7, #60]	; 0x3c
 8003786:	68fb      	ldr	r3, [r7, #12]
 8003788:	681b      	ldr	r3, [r3, #0]
 800378a:	330c      	adds	r3, #12
 800378c:	6bfa      	ldr	r2, [r7, #60]	; 0x3c
 800378e:	637a      	str	r2, [r7, #52]	; 0x34
 8003790:	633b      	str	r3, [r7, #48]	; 0x30
   __ASM volatile ("strex %0, %2, %1" : "=&r" (result), "=Q" (*addr) : "r" (value) );
 8003792:	6b39      	ldr	r1, [r7, #48]	; 0x30
 8003794:	6b7a      	ldr	r2, [r7, #52]	; 0x34
 8003796:	e841 2300 	strex	r3, r2, [r1]
 800379a:	62fb      	str	r3, [r7, #44]	; 0x2c
   return(result);
 800379c:	6afb      	ldr	r3, [r7, #44]	; 0x2c
 800379e:	2b00      	cmp	r3, #0
 80037a0:	d1e5      	bne.n	800376e <UART_WaitOnFlagUntilTimeout+0x30>
        ATOMIC_CLEAR_BIT(huart->Instance->CR3, USART_CR3_EIE);
 80037a2:	68fb      	ldr	r3, [r7, #12]
 80037a4:	681b      	ldr	r3, [r3, #0]
 80037a6:	3314      	adds	r3, #20
 80037a8:	617b      	str	r3, [r7, #20]
   __ASM volatile ("ldrex %0, %1" : "=r" (result) : "Q" (*addr) );
 80037aa:	697b      	ldr	r3, [r7, #20]
 80037ac:	e853 3f00 	ldrex	r3, [r3]
 80037b0:	613b      	str	r3, [r7, #16]
   return(result);
 80037b2:	693b      	ldr	r3, [r7, #16]
 80037b4:	f023 0301 	bic.w	r3, r3, #1
 80037b8:	63bb      	str	r3, [r7, #56]	; 0x38
 80037ba:	68fb      	ldr	r3, [r7, #12]
 80037bc:	681b      	ldr	r3, [r3, #0]
 80037be:	3314      	adds	r3, #20
 80037c0:	6bba      	ldr	r2, [r7, #56]	; 0x38
 80037c2:	623a      	str	r2, [r7, #32]
 80037c4:	61fb      	str	r3, [r7, #28]
   __ASM volatile ("strex %0, %2, %1" : "=&r" (result), "=Q" (*addr) : "r" (value) );
 80037c6:	69f9      	ldr	r1, [r7, #28]
 80037c8:	6a3a      	ldr	r2, [r7, #32]
 80037ca:	e841 2300 	strex	r3, r2, [r1]
 80037ce:	61bb      	str	r3, [r7, #24]
   return(result);
 80037d0:	69bb      	ldr	r3, [r7, #24]
 80037d2:	2b00      	cmp	r3, #0
 80037d4:	d1e5      	bne.n	80037a2 <UART_WaitOnFlagUntilTimeout+0x64>

        huart->gState  = HAL_UART_STATE_READY;
 80037d6:	68fb      	ldr	r3, [r7, #12]
 80037d8:	2220      	movs	r2, #32
 80037da:	f883 203d 	strb.w	r2, [r3, #61]	; 0x3d
        huart->RxState = HAL_UART_STATE_READY;
 80037de:	68fb      	ldr	r3, [r7, #12]
 80037e0:	2220      	movs	r2, #32
 80037e2:	f883 203e 	strb.w	r2, [r3, #62]	; 0x3e

        /* Process Unlocked */
        __HAL_UNLOCK(huart);
 80037e6:	68fb      	ldr	r3, [r7, #12]
 80037e8:	2200      	movs	r2, #0
 80037ea:	f883 203c 	strb.w	r2, [r3, #60]	; 0x3c

        return HAL_TIMEOUT;
 80037ee:	2303      	movs	r3, #3
 80037f0:	e00f      	b.n	8003812 <UART_WaitOnFlagUntilTimeout+0xd4>
  while ((__HAL_UART_GET_FLAG(huart, Flag) ? SET : RESET) == Status)
 80037f2:	68fb      	ldr	r3, [r7, #12]
 80037f4:	681b      	ldr	r3, [r3, #0]
 80037f6:	681a      	ldr	r2, [r3, #0]
 80037f8:	68bb      	ldr	r3, [r7, #8]
 80037fa:	4013      	ands	r3, r2
 80037fc:	68ba      	ldr	r2, [r7, #8]
 80037fe:	429a      	cmp	r2, r3
 8003800:	bf0c      	ite	eq
 8003802:	2301      	moveq	r3, #1
 8003804:	2300      	movne	r3, #0
 8003806:	b2db      	uxtb	r3, r3
 8003808:	461a      	mov	r2, r3
 800380a:	79fb      	ldrb	r3, [r7, #7]
 800380c:	429a      	cmp	r2, r3
 800380e:	d09f      	beq.n	8003750 <UART_WaitOnFlagUntilTimeout+0x12>
      }
    }
  }
  return HAL_OK;
 8003810:	2300      	movs	r3, #0
}
 8003812:	4618      	mov	r0, r3
 8003814:	3740      	adds	r7, #64	; 0x40
 8003816:	46bd      	mov	sp, r7
 8003818:	bd80      	pop	{r7, pc}
	...

0800381c <UART_Start_Receive_DMA>:
  * @param  pData Pointer to data buffer (u8 or u16 data elements).
  * @param  Size  Amount of data elements (u8 or u16) to be received.
  * @retval HAL status
  */
HAL_StatusTypeDef UART_Start_Receive_DMA(UART_HandleTypeDef *huart, uint8_t *pData, uint16_t Size)
{
 800381c:	b580      	push	{r7, lr}
 800381e:	b098      	sub	sp, #96	; 0x60
 8003820:	af00      	add	r7, sp, #0
 8003822:	60f8      	str	r0, [r7, #12]
 8003824:	60b9      	str	r1, [r7, #8]
 8003826:	4613      	mov	r3, r2
 8003828:	80fb      	strh	r3, [r7, #6]
  uint32_t *tmp;

  huart->pRxBuffPtr = pData;
 800382a:	68ba      	ldr	r2, [r7, #8]
 800382c:	68fb      	ldr	r3, [r7, #12]
 800382e:	629a      	str	r2, [r3, #40]	; 0x28
  huart->RxXferSize = Size;
 8003830:	68fb      	ldr	r3, [r7, #12]
 8003832:	88fa      	ldrh	r2, [r7, #6]
 8003834:	859a      	strh	r2, [r3, #44]	; 0x2c

  huart->ErrorCode = HAL_UART_ERROR_NONE;
 8003836:	68fb      	ldr	r3, [r7, #12]
 8003838:	2200      	movs	r2, #0
 800383a:	641a      	str	r2, [r3, #64]	; 0x40
  huart->RxState = HAL_UART_STATE_BUSY_RX;
 800383c:	68fb      	ldr	r3, [r7, #12]
 800383e:	2222      	movs	r2, #34	; 0x22
 8003840:	f883 203e 	strb.w	r2, [r3, #62]	; 0x3e

  /* Set the UART DMA transfer complete callback */
  huart->hdmarx->XferCpltCallback = UART_DMAReceiveCplt;
 8003844:	68fb      	ldr	r3, [r7, #12]
 8003846:	6b9b      	ldr	r3, [r3, #56]	; 0x38
 8003848:	4a40      	ldr	r2, [pc, #256]	; (800394c <UART_Start_Receive_DMA+0x130>)
 800384a:	63da      	str	r2, [r3, #60]	; 0x3c

  /* Set the UART DMA Half transfer complete callback */
  huart->hdmarx->XferHalfCpltCallback = UART_DMARxHalfCplt;
 800384c:	68fb      	ldr	r3, [r7, #12]
 800384e:	6b9b      	ldr	r3, [r3, #56]	; 0x38
 8003850:	4a3f      	ldr	r2, [pc, #252]	; (8003950 <UART_Start_Receive_DMA+0x134>)
 8003852:	641a      	str	r2, [r3, #64]	; 0x40

  /* Set the DMA error callback */
  huart->hdmarx->XferErrorCallback = UART_DMAError;
 8003854:	68fb      	ldr	r3, [r7, #12]
 8003856:	6b9b      	ldr	r3, [r3, #56]	; 0x38
 8003858:	4a3e      	ldr	r2, [pc, #248]	; (8003954 <UART_Start_Receive_DMA+0x138>)
 800385a:	64da      	str	r2, [r3, #76]	; 0x4c

  /* Set the DMA abort callback */
  huart->hdmarx->XferAbortCallback = NULL;
 800385c:	68fb      	ldr	r3, [r7, #12]
 800385e:	6b9b      	ldr	r3, [r3, #56]	; 0x38
 8003860:	2200      	movs	r2, #0
 8003862:	651a      	str	r2, [r3, #80]	; 0x50

  /* Enable the DMA stream */
  tmp = (uint32_t *)&pData;
 8003864:	f107 0308 	add.w	r3, r7, #8
 8003868:	65fb      	str	r3, [r7, #92]	; 0x5c
  HAL_DMA_Start_IT(huart->hdmarx, (uint32_t)&huart->Instance->DR, *(uint32_t *)tmp, Size);
 800386a:	68fb      	ldr	r3, [r7, #12]
 800386c:	6b98      	ldr	r0, [r3, #56]	; 0x38
 800386e:	68fb      	ldr	r3, [r7, #12]
 8003870:	681b      	ldr	r3, [r3, #0]
 8003872:	3304      	adds	r3, #4
 8003874:	4619      	mov	r1, r3
 8003876:	6dfb      	ldr	r3, [r7, #92]	; 0x5c
 8003878:	681a      	ldr	r2, [r3, #0]
 800387a:	88fb      	ldrh	r3, [r7, #6]
 800387c:	f7fe fae0 	bl	8001e40 <HAL_DMA_Start_IT>

  /* Clear the Overrun flag just before enabling the DMA Rx request: can be mandatory for the second transfer */
  __HAL_UART_CLEAR_OREFLAG(huart);
 8003880:	2300      	movs	r3, #0
 8003882:	613b      	str	r3, [r7, #16]
 8003884:	68fb      	ldr	r3, [r7, #12]
 8003886:	681b      	ldr	r3, [r3, #0]
 8003888:	681b      	ldr	r3, [r3, #0]
 800388a:	613b      	str	r3, [r7, #16]
 800388c:	68fb      	ldr	r3, [r7, #12]
 800388e:	681b      	ldr	r3, [r3, #0]
 8003890:	685b      	ldr	r3, [r3, #4]
 8003892:	613b      	str	r3, [r7, #16]
 8003894:	693b      	ldr	r3, [r7, #16]

  /* Process Unlocked */
  __HAL_UNLOCK(huart);
 8003896:	68fb      	ldr	r3, [r7, #12]
 8003898:	2200      	movs	r2, #0
 800389a:	f883 203c 	strb.w	r2, [r3, #60]	; 0x3c

  if (huart->Init.Parity != UART_PARITY_NONE)
 800389e:	68fb      	ldr	r3, [r7, #12]
 80038a0:	691b      	ldr	r3, [r3, #16]
 80038a2:	2b00      	cmp	r3, #0
 80038a4:	d019      	beq.n	80038da <UART_Start_Receive_DMA+0xbe>
  {
    /* Enable the UART Parity Error Interrupt */
    ATOMIC_SET_BIT(huart->Instance->CR1, USART_CR1_PEIE);
 80038a6:	68fb      	ldr	r3, [r7, #12]
 80038a8:	681b      	ldr	r3, [r3, #0]
 80038aa:	330c      	adds	r3, #12
 80038ac:	643b      	str	r3, [r7, #64]	; 0x40
   __ASM volatile ("ldrex %0, %1" : "=r" (result) : "Q" (*addr) );
 80038ae:	6c3b      	ldr	r3, [r7, #64]	; 0x40
 80038b0:	e853 3f00 	ldrex	r3, [r3]
 80038b4:	63fb      	str	r3, [r7, #60]	; 0x3c
   return(result);
 80038b6:	6bfb      	ldr	r3, [r7, #60]	; 0x3c
 80038b8:	f443 7380 	orr.w	r3, r3, #256	; 0x100
 80038bc:	65bb      	str	r3, [r7, #88]	; 0x58
 80038be:	68fb      	ldr	r3, [r7, #12]
 80038c0:	681b      	ldr	r3, [r3, #0]
 80038c2:	330c      	adds	r3, #12
 80038c4:	6dba      	ldr	r2, [r7, #88]	; 0x58
 80038c6:	64fa      	str	r2, [r7, #76]	; 0x4c
 80038c8:	64bb      	str	r3, [r7, #72]	; 0x48
   __ASM volatile ("strex %0, %2, %1" : "=&r" (result), "=Q" (*addr) : "r" (value) );
 80038ca:	6cb9      	ldr	r1, [r7, #72]	; 0x48
 80038cc:	6cfa      	ldr	r2, [r7, #76]	; 0x4c
 80038ce:	e841 2300 	strex	r3, r2, [r1]
 80038d2:	647b      	str	r3, [r7, #68]	; 0x44
   return(result);
 80038d4:	6c7b      	ldr	r3, [r7, #68]	; 0x44
 80038d6:	2b00      	cmp	r3, #0
 80038d8:	d1e5      	bne.n	80038a6 <UART_Start_Receive_DMA+0x8a>
  }

  /* Enable the UART Error Interrupt: (Frame error, noise error, overrun error) */
  ATOMIC_SET_BIT(huart->Instance->CR3, USART_CR3_EIE);
 80038da:	68fb      	ldr	r3, [r7, #12]
 80038dc:	681b      	ldr	r3, [r3, #0]
 80038de:	3314      	adds	r3, #20
 80038e0:	62fb      	str	r3, [r7, #44]	; 0x2c
   __ASM volatile ("ldrex %0, %1" : "=r" (result) : "Q" (*addr) );
 80038e2:	6afb      	ldr	r3, [r7, #44]	; 0x2c
 80038e4:	e853 3f00 	ldrex	r3, [r3]
 80038e8:	62bb      	str	r3, [r7, #40]	; 0x28
   return(result);
 80038ea:	6abb      	ldr	r3, [r7, #40]	; 0x28
 80038ec:	f043 0301 	orr.w	r3, r3, #1
 80038f0:	657b      	str	r3, [r7, #84]	; 0x54
 80038f2:	68fb      	ldr	r3, [r7, #12]
 80038f4:	681b      	ldr	r3, [r3, #0]
 80038f6:	3314      	adds	r3, #20
 80038f8:	6d7a      	ldr	r2, [r7, #84]	; 0x54
 80038fa:	63ba      	str	r2, [r7, #56]	; 0x38
 80038fc:	637b      	str	r3, [r7, #52]	; 0x34
   __ASM volatile ("strex %0, %2, %1" : "=&r" (result), "=Q" (*addr) : "r" (value) );
 80038fe:	6b79      	ldr	r1, [r7, #52]	; 0x34
 8003900:	6bba      	ldr	r2, [r7, #56]	; 0x38
 8003902:	e841 2300 	strex	r3, r2, [r1]
 8003906:	633b      	str	r3, [r7, #48]	; 0x30
   return(result);
 8003908:	6b3b      	ldr	r3, [r7, #48]	; 0x30
 800390a:	2b00      	cmp	r3, #0
 800390c:	d1e5      	bne.n	80038da <UART_Start_Receive_DMA+0xbe>

  /* Enable the DMA transfer for the receiver request by setting the DMAR bit
  in the UART CR3 register */
  ATOMIC_SET_BIT(huart->Instance->CR3, USART_CR3_DMAR);
 800390e:	68fb      	ldr	r3, [r7, #12]
 8003910:	681b      	ldr	r3, [r3, #0]
 8003912:	3314      	adds	r3, #20
 8003914:	61bb      	str	r3, [r7, #24]
   __ASM volatile ("ldrex %0, %1" : "=r" (result) : "Q" (*addr) );
 8003916:	69bb      	ldr	r3, [r7, #24]
 8003918:	e853 3f00 	ldrex	r3, [r3]
 800391c:	617b      	str	r3, [r7, #20]
   return(result);
 800391e:	697b      	ldr	r3, [r7, #20]
 8003920:	f043 0340 	orr.w	r3, r3, #64	; 0x40
 8003924:	653b      	str	r3, [r7, #80]	; 0x50
 8003926:	68fb      	ldr	r3, [r7, #12]
 8003928:	681b      	ldr	r3, [r3, #0]
 800392a:	3314      	adds	r3, #20
 800392c:	6d3a      	ldr	r2, [r7, #80]	; 0x50
 800392e:	627a      	str	r2, [r7, #36]	; 0x24
 8003930:	623b      	str	r3, [r7, #32]
   __ASM volatile ("strex %0, %2, %1" : "=&r" (result), "=Q" (*addr) : "r" (value) );
 8003932:	6a39      	ldr	r1, [r7, #32]
 8003934:	6a7a      	ldr	r2, [r7, #36]	; 0x24
 8003936:	e841 2300 	strex	r3, r2, [r1]
 800393a:	61fb      	str	r3, [r7, #28]
   return(result);
 800393c:	69fb      	ldr	r3, [r7, #28]
 800393e:	2b00      	cmp	r3, #0
 8003940:	d1e5      	bne.n	800390e <UART_Start_Receive_DMA+0xf2>

  return HAL_OK;
 8003942:	2300      	movs	r3, #0
}
 8003944:	4618      	mov	r0, r3
 8003946:	3760      	adds	r7, #96	; 0x60
 8003948:	46bd      	mov	sp, r7
 800394a:	bd80      	pop	{r7, pc}
 800394c:	0800354f 	.word	0x0800354f
 8003950:	08003675 	.word	0x08003675
 8003954:	080036ab 	.word	0x080036ab

08003958 <UART_EndTxTransfer>:
  * @brief  End ongoing Tx transfer on UART peripheral (following error detection or Transmit completion).
  * @param  huart UART handle.
  * @retval None
  */
static void UART_EndTxTransfer(UART_HandleTypeDef *huart)
{
 8003958:	b480      	push	{r7}
 800395a:	b089      	sub	sp, #36	; 0x24
 800395c:	af00      	add	r7, sp, #0
 800395e:	6078      	str	r0, [r7, #4]
  /* Disable TXEIE and TCIE interrupts */
  ATOMIC_CLEAR_BIT(huart->Instance->CR1, (USART_CR1_TXEIE | USART_CR1_TCIE));
 8003960:	687b      	ldr	r3, [r7, #4]
 8003962:	681b      	ldr	r3, [r3, #0]
 8003964:	330c      	adds	r3, #12
 8003966:	60fb      	str	r3, [r7, #12]
   __ASM volatile ("ldrex %0, %1" : "=r" (result) : "Q" (*addr) );
 8003968:	68fb      	ldr	r3, [r7, #12]
 800396a:	e853 3f00 	ldrex	r3, [r3]
 800396e:	60bb      	str	r3, [r7, #8]
   return(result);
 8003970:	68bb      	ldr	r3, [r7, #8]
 8003972:	f023 03c0 	bic.w	r3, r3, #192	; 0xc0
 8003976:	61fb      	str	r3, [r7, #28]
 8003978:	687b      	ldr	r3, [r7, #4]
 800397a:	681b      	ldr	r3, [r3, #0]
 800397c:	330c      	adds	r3, #12
 800397e:	69fa      	ldr	r2, [r7, #28]
 8003980:	61ba      	str	r2, [r7, #24]
 8003982:	617b      	str	r3, [r7, #20]
   __ASM volatile ("strex %0, %2, %1" : "=&r" (result), "=Q" (*addr) : "r" (value) );
 8003984:	6979      	ldr	r1, [r7, #20]
 8003986:	69ba      	ldr	r2, [r7, #24]
 8003988:	e841 2300 	strex	r3, r2, [r1]
 800398c:	613b      	str	r3, [r7, #16]
   return(result);
 800398e:	693b      	ldr	r3, [r7, #16]
 8003990:	2b00      	cmp	r3, #0
 8003992:	d1e5      	bne.n	8003960 <UART_EndTxTransfer+0x8>

  /* At end of Tx process, restore huart->gState to Ready */
  huart->gState = HAL_UART_STATE_READY;
 8003994:	687b      	ldr	r3, [r7, #4]
 8003996:	2220      	movs	r2, #32
 8003998:	f883 203d 	strb.w	r2, [r3, #61]	; 0x3d
}
 800399c:	bf00      	nop
 800399e:	3724      	adds	r7, #36	; 0x24
 80039a0:	46bd      	mov	sp, r7
 80039a2:	f85d 7b04 	ldr.w	r7, [sp], #4
 80039a6:	4770      	bx	lr

080039a8 <UART_EndRxTransfer>:
  * @brief  End ongoing Rx transfer on UART peripheral (following error detection or Reception completion).
  * @param  huart UART handle.
  * @retval None
  */
static void UART_EndRxTransfer(UART_HandleTypeDef *huart)
{
 80039a8:	b480      	push	{r7}
 80039aa:	b095      	sub	sp, #84	; 0x54
 80039ac:	af00      	add	r7, sp, #0
 80039ae:	6078      	str	r0, [r7, #4]
  /* Disable RXNE, PE and ERR (Frame error, noise error, overrun error) interrupts */
  ATOMIC_CLEAR_BIT(huart->Instance->CR1, (USART_CR1_RXNEIE | USART_CR1_PEIE));
 80039b0:	687b      	ldr	r3, [r7, #4]
 80039b2:	681b      	ldr	r3, [r3, #0]
 80039b4:	330c      	adds	r3, #12
 80039b6:	637b      	str	r3, [r7, #52]	; 0x34
   __ASM volatile ("ldrex %0, %1" : "=r" (result) : "Q" (*addr) );
 80039b8:	6b7b      	ldr	r3, [r7, #52]	; 0x34
 80039ba:	e853 3f00 	ldrex	r3, [r3]
 80039be:	633b      	str	r3, [r7, #48]	; 0x30
   return(result);
 80039c0:	6b3b      	ldr	r3, [r7, #48]	; 0x30
 80039c2:	f423 7390 	bic.w	r3, r3, #288	; 0x120
 80039c6:	64fb      	str	r3, [r7, #76]	; 0x4c
 80039c8:	687b      	ldr	r3, [r7, #4]
 80039ca:	681b      	ldr	r3, [r3, #0]
 80039cc:	330c      	adds	r3, #12
 80039ce:	6cfa      	ldr	r2, [r7, #76]	; 0x4c
 80039d0:	643a      	str	r2, [r7, #64]	; 0x40
 80039d2:	63fb      	str	r3, [r7, #60]	; 0x3c
   __ASM volatile ("strex %0, %2, %1" : "=&r" (result), "=Q" (*addr) : "r" (value) );
 80039d4:	6bf9      	ldr	r1, [r7, #60]	; 0x3c
 80039d6:	6c3a      	ldr	r2, [r7, #64]	; 0x40
 80039d8:	e841 2300 	strex	r3, r2, [r1]
 80039dc:	63bb      	str	r3, [r7, #56]	; 0x38
   return(result);
 80039de:	6bbb      	ldr	r3, [r7, #56]	; 0x38
 80039e0:	2b00      	cmp	r3, #0
 80039e2:	d1e5      	bne.n	80039b0 <UART_EndRxTransfer+0x8>
  ATOMIC_CLEAR_BIT(huart->Instance->CR3, USART_CR3_EIE);
 80039e4:	687b      	ldr	r3, [r7, #4]
 80039e6:	681b      	ldr	r3, [r3, #0]
 80039e8:	3314      	adds	r3, #20
 80039ea:	623b      	str	r3, [r7, #32]
   __ASM volatile ("ldrex %0, %1" : "=r" (result) : "Q" (*addr) );
 80039ec:	6a3b      	ldr	r3, [r7, #32]
 80039ee:	e853 3f00 	ldrex	r3, [r3]
 80039f2:	61fb      	str	r3, [r7, #28]
   return(result);
 80039f4:	69fb      	ldr	r3, [r7, #28]
 80039f6:	f023 0301 	bic.w	r3, r3, #1
 80039fa:	64bb      	str	r3, [r7, #72]	; 0x48
 80039fc:	687b      	ldr	r3, [r7, #4]
 80039fe:	681b      	ldr	r3, [r3, #0]
 8003a00:	3314      	adds	r3, #20
 8003a02:	6cba      	ldr	r2, [r7, #72]	; 0x48
 8003a04:	62fa      	str	r2, [r7, #44]	; 0x2c
 8003a06:	62bb      	str	r3, [r7, #40]	; 0x28
   __ASM volatile ("strex %0, %2, %1" : "=&r" (result), "=Q" (*addr) : "r" (value) );
 8003a08:	6ab9      	ldr	r1, [r7, #40]	; 0x28
 8003a0a:	6afa      	ldr	r2, [r7, #44]	; 0x2c
 8003a0c:	e841 2300 	strex	r3, r2, [r1]
 8003a10:	627b      	str	r3, [r7, #36]	; 0x24
   return(result);
 8003a12:	6a7b      	ldr	r3, [r7, #36]	; 0x24
 8003a14:	2b00      	cmp	r3, #0
 8003a16:	d1e5      	bne.n	80039e4 <UART_EndRxTransfer+0x3c>

  /* In case of reception waiting for IDLE event, disable also the IDLE IE interrupt source */
  if (huart->ReceptionType == HAL_UART_RECEPTION_TOIDLE)
 8003a18:	687b      	ldr	r3, [r7, #4]
 8003a1a:	6b1b      	ldr	r3, [r3, #48]	; 0x30
 8003a1c:	2b01      	cmp	r3, #1
 8003a1e:	d119      	bne.n	8003a54 <UART_EndRxTransfer+0xac>
  {
    ATOMIC_CLEAR_BIT(huart->Instance->CR1, USART_CR1_IDLEIE);
 8003a20:	687b      	ldr	r3, [r7, #4]
 8003a22:	681b      	ldr	r3, [r3, #0]
 8003a24:	330c      	adds	r3, #12
 8003a26:	60fb      	str	r3, [r7, #12]
   __ASM volatile ("ldrex %0, %1" : "=r" (result) : "Q" (*addr) );
 8003a28:	68fb      	ldr	r3, [r7, #12]
 8003a2a:	e853 3f00 	ldrex	r3, [r3]
 8003a2e:	60bb      	str	r3, [r7, #8]
   return(result);
 8003a30:	68bb      	ldr	r3, [r7, #8]
 8003a32:	f023 0310 	bic.w	r3, r3, #16
 8003a36:	647b      	str	r3, [r7, #68]	; 0x44
 8003a38:	687b      	ldr	r3, [r7, #4]
 8003a3a:	681b      	ldr	r3, [r3, #0]
 8003a3c:	330c      	adds	r3, #12
 8003a3e:	6c7a      	ldr	r2, [r7, #68]	; 0x44
 8003a40:	61ba      	str	r2, [r7, #24]
 8003a42:	617b      	str	r3, [r7, #20]
   __ASM volatile ("strex %0, %2, %1" : "=&r" (result), "=Q" (*addr) : "r" (value) );
 8003a44:	6979      	ldr	r1, [r7, #20]
 8003a46:	69ba      	ldr	r2, [r7, #24]
 8003a48:	e841 2300 	strex	r3, r2, [r1]
 8003a4c:	613b      	str	r3, [r7, #16]
   return(result);
 8003a4e:	693b      	ldr	r3, [r7, #16]
 8003a50:	2b00      	cmp	r3, #0
 8003a52:	d1e5      	bne.n	8003a20 <UART_EndRxTransfer+0x78>
  }

  /* At end of Rx process, restore huart->RxState to Ready */
  huart->RxState = HAL_UART_STATE_READY;
 8003a54:	687b      	ldr	r3, [r7, #4]
 8003a56:	2220      	movs	r2, #32
 8003a58:	f883 203e 	strb.w	r2, [r3, #62]	; 0x3e
  huart->ReceptionType = HAL_UART_RECEPTION_STANDARD;
 8003a5c:	687b      	ldr	r3, [r7, #4]
 8003a5e:	2200      	movs	r2, #0
 8003a60:	631a      	str	r2, [r3, #48]	; 0x30
}
 8003a62:	bf00      	nop
 8003a64:	3754      	adds	r7, #84	; 0x54
 8003a66:	46bd      	mov	sp, r7
 8003a68:	f85d 7b04 	ldr.w	r7, [sp], #4
 8003a6c:	4770      	bx	lr
	...

08003a70 <UART_SetConfig>:
  * @param  huart  Pointer to a UART_HandleTypeDef structure that contains
  *                the configuration information for the specified UART module.
  * @retval None
  */
static void UART_SetConfig(UART_HandleTypeDef *huart)
{
 8003a70:	e92d 4fb0 	stmdb	sp!, {r4, r5, r7, r8, r9, sl, fp, lr}
 8003a74:	b0c0      	sub	sp, #256	; 0x100
 8003a76:	af00      	add	r7, sp, #0
 8003a78:	f8c7 00f4 	str.w	r0, [r7, #244]	; 0xf4
  assert_param(IS_UART_MODE(huart->Init.Mode));

  /*-------------------------- USART CR2 Configuration -----------------------*/
  /* Configure the UART Stop Bits: Set STOP[13:12] bits
     according to huart->Init.StopBits value */
  MODIFY_REG(huart->Instance->CR2, USART_CR2_STOP, huart->Init.StopBits);
 8003a7c:	f8d7 30f4 	ldr.w	r3, [r7, #244]	; 0xf4
 8003a80:	681b      	ldr	r3, [r3, #0]
 8003a82:	691b      	ldr	r3, [r3, #16]
 8003a84:	f423 5040 	bic.w	r0, r3, #12288	; 0x3000
 8003a88:	f8d7 30f4 	ldr.w	r3, [r7, #244]	; 0xf4
 8003a8c:	68d9      	ldr	r1, [r3, #12]
 8003a8e:	f8d7 30f4 	ldr.w	r3, [r7, #244]	; 0xf4
 8003a92:	681a      	ldr	r2, [r3, #0]
 8003a94:	ea40 0301 	orr.w	r3, r0, r1
 8003a98:	6113      	str	r3, [r2, #16]
     Set the M bits according to huart->Init.WordLength value
     Set PCE and PS bits according to huart->Init.Parity value
     Set TE and RE bits according to huart->Init.Mode value
     Set OVER8 bit according to huart->Init.OverSampling value */

  tmpreg = (uint32_t)huart->Init.WordLength | huart->Init.Parity | huart->Init.Mode | huart->Init.OverSampling;
 8003a9a:	f8d7 30f4 	ldr.w	r3, [r7, #244]	; 0xf4
 8003a9e:	689a      	ldr	r2, [r3, #8]
 8003aa0:	f8d7 30f4 	ldr.w	r3, [r7, #244]	; 0xf4
 8003aa4:	691b      	ldr	r3, [r3, #16]
 8003aa6:	431a      	orrs	r2, r3
 8003aa8:	f8d7 30f4 	ldr.w	r3, [r7, #244]	; 0xf4
 8003aac:	695b      	ldr	r3, [r3, #20]
 8003aae:	431a      	orrs	r2, r3
 8003ab0:	f8d7 30f4 	ldr.w	r3, [r7, #244]	; 0xf4
 8003ab4:	69db      	ldr	r3, [r3, #28]
 8003ab6:	4313      	orrs	r3, r2
 8003ab8:	f8c7 30f8 	str.w	r3, [r7, #248]	; 0xf8
  MODIFY_REG(huart->Instance->CR1,
 8003abc:	f8d7 30f4 	ldr.w	r3, [r7, #244]	; 0xf4
 8003ac0:	681b      	ldr	r3, [r3, #0]
 8003ac2:	68db      	ldr	r3, [r3, #12]
 8003ac4:	f423 4116 	bic.w	r1, r3, #38400	; 0x9600
 8003ac8:	f021 010c 	bic.w	r1, r1, #12
 8003acc:	f8d7 30f4 	ldr.w	r3, [r7, #244]	; 0xf4
 8003ad0:	681a      	ldr	r2, [r3, #0]
 8003ad2:	f8d7 30f8 	ldr.w	r3, [r7, #248]	; 0xf8
 8003ad6:	430b      	orrs	r3, r1
 8003ad8:	60d3      	str	r3, [r2, #12]
             (uint32_t)(USART_CR1_M | USART_CR1_PCE | USART_CR1_PS | USART_CR1_TE | USART_CR1_RE | USART_CR1_OVER8),
             tmpreg);

  /*-------------------------- USART CR3 Configuration -----------------------*/
  /* Configure the UART HFC: Set CTSE and RTSE bits according to huart->Init.HwFlowCtl value */
  MODIFY_REG(huart->Instance->CR3, (USART_CR3_RTSE | USART_CR3_CTSE), huart->Init.HwFlowCtl);
 8003ada:	f8d7 30f4 	ldr.w	r3, [r7, #244]	; 0xf4
 8003ade:	681b      	ldr	r3, [r3, #0]
 8003ae0:	695b      	ldr	r3, [r3, #20]
 8003ae2:	f423 7040 	bic.w	r0, r3, #768	; 0x300
 8003ae6:	f8d7 30f4 	ldr.w	r3, [r7, #244]	; 0xf4
 8003aea:	6999      	ldr	r1, [r3, #24]
 8003aec:	f8d7 30f4 	ldr.w	r3, [r7, #244]	; 0xf4
 8003af0:	681a      	ldr	r2, [r3, #0]
 8003af2:	ea40 0301 	orr.w	r3, r0, r1
 8003af6:	6153      	str	r3, [r2, #20]
    if ((huart->Instance == USART1) || (huart->Instance == USART6) || (huart->Instance == UART9) || (huart->Instance == UART10))
    {
      pclk = HAL_RCC_GetPCLK2Freq();
    }
#elif defined(USART6)
    if ((huart->Instance == USART1) || (huart->Instance == USART6))
 8003af8:	f8d7 30f4 	ldr.w	r3, [r7, #244]	; 0xf4
 8003afc:	681a      	ldr	r2, [r3, #0]
 8003afe:	4b8f      	ldr	r3, [pc, #572]	; (8003d3c <UART_SetConfig+0x2cc>)
 8003b00:	429a      	cmp	r2, r3
 8003b02:	d005      	beq.n	8003b10 <UART_SetConfig+0xa0>
 8003b04:	f8d7 30f4 	ldr.w	r3, [r7, #244]	; 0xf4
 8003b08:	681a      	ldr	r2, [r3, #0]
 8003b0a:	4b8d      	ldr	r3, [pc, #564]	; (8003d40 <UART_SetConfig+0x2d0>)
 8003b0c:	429a      	cmp	r2, r3
 8003b0e:	d104      	bne.n	8003b1a <UART_SetConfig+0xaa>
    {
      pclk = HAL_RCC_GetPCLK2Freq();
 8003b10:	f7fe ff0c 	bl	800292c <HAL_RCC_GetPCLK2Freq>
 8003b14:	f8c7 00fc 	str.w	r0, [r7, #252]	; 0xfc
 8003b18:	e003      	b.n	8003b22 <UART_SetConfig+0xb2>
      pclk = HAL_RCC_GetPCLK2Freq();
    }
#endif /* USART6 */
    else
    {
      pclk = HAL_RCC_GetPCLK1Freq();
 8003b1a:	f7fe fef3 	bl	8002904 <HAL_RCC_GetPCLK1Freq>
 8003b1e:	f8c7 00fc 	str.w	r0, [r7, #252]	; 0xfc
    }
  /*-------------------------- USART BRR Configuration ---------------------*/
  if (huart->Init.OverSampling == UART_OVERSAMPLING_8)
 8003b22:	f8d7 30f4 	ldr.w	r3, [r7, #244]	; 0xf4
 8003b26:	69db      	ldr	r3, [r3, #28]
 8003b28:	f5b3 4f00 	cmp.w	r3, #32768	; 0x8000
 8003b2c:	f040 810c 	bne.w	8003d48 <UART_SetConfig+0x2d8>
  {
    huart->Instance->BRR = UART_BRR_SAMPLING8(pclk, huart->Init.BaudRate);
 8003b30:	f8d7 30fc 	ldr.w	r3, [r7, #252]	; 0xfc
 8003b34:	2200      	movs	r2, #0
 8003b36:	f8c7 30e8 	str.w	r3, [r7, #232]	; 0xe8
 8003b3a:	f8c7 20ec 	str.w	r2, [r7, #236]	; 0xec
 8003b3e:	e9d7 453a 	ldrd	r4, r5, [r7, #232]	; 0xe8
 8003b42:	4622      	mov	r2, r4
 8003b44:	462b      	mov	r3, r5
 8003b46:	1891      	adds	r1, r2, r2
 8003b48:	65b9      	str	r1, [r7, #88]	; 0x58
 8003b4a:	415b      	adcs	r3, r3
 8003b4c:	65fb      	str	r3, [r7, #92]	; 0x5c
 8003b4e:	e9d7 2316 	ldrd	r2, r3, [r7, #88]	; 0x58
 8003b52:	4621      	mov	r1, r4
 8003b54:	eb12 0801 	adds.w	r8, r2, r1
 8003b58:	4629      	mov	r1, r5
 8003b5a:	eb43 0901 	adc.w	r9, r3, r1
 8003b5e:	f04f 0200 	mov.w	r2, #0
 8003b62:	f04f 0300 	mov.w	r3, #0
 8003b66:	ea4f 03c9 	mov.w	r3, r9, lsl #3
 8003b6a:	ea43 7358 	orr.w	r3, r3, r8, lsr #29
 8003b6e:	ea4f 02c8 	mov.w	r2, r8, lsl #3
 8003b72:	4690      	mov	r8, r2
 8003b74:	4699      	mov	r9, r3
 8003b76:	4623      	mov	r3, r4
 8003b78:	eb18 0303 	adds.w	r3, r8, r3
 8003b7c:	f8c7 30e0 	str.w	r3, [r7, #224]	; 0xe0
 8003b80:	462b      	mov	r3, r5
 8003b82:	eb49 0303 	adc.w	r3, r9, r3
 8003b86:	f8c7 30e4 	str.w	r3, [r7, #228]	; 0xe4
 8003b8a:	f8d7 30f4 	ldr.w	r3, [r7, #244]	; 0xf4
 8003b8e:	685b      	ldr	r3, [r3, #4]
 8003b90:	2200      	movs	r2, #0
 8003b92:	f8c7 30d8 	str.w	r3, [r7, #216]	; 0xd8
 8003b96:	f8c7 20dc 	str.w	r2, [r7, #220]	; 0xdc
 8003b9a:	e9d7 1236 	ldrd	r1, r2, [r7, #216]	; 0xd8
 8003b9e:	460b      	mov	r3, r1
 8003ba0:	18db      	adds	r3, r3, r3
 8003ba2:	653b      	str	r3, [r7, #80]	; 0x50
 8003ba4:	4613      	mov	r3, r2
 8003ba6:	eb42 0303 	adc.w	r3, r2, r3
 8003baa:	657b      	str	r3, [r7, #84]	; 0x54
 8003bac:	e9d7 2314 	ldrd	r2, r3, [r7, #80]	; 0x50
 8003bb0:	e9d7 0138 	ldrd	r0, r1, [r7, #224]	; 0xe0
 8003bb4:	f7fd f888 	bl	8000cc8 <__aeabi_uldivmod>
 8003bb8:	4602      	mov	r2, r0
 8003bba:	460b      	mov	r3, r1
 8003bbc:	4b61      	ldr	r3, [pc, #388]	; (8003d44 <UART_SetConfig+0x2d4>)
 8003bbe:	fba3 2302 	umull	r2, r3, r3, r2
 8003bc2:	095b      	lsrs	r3, r3, #5
 8003bc4:	011c      	lsls	r4, r3, #4
 8003bc6:	f8d7 30fc 	ldr.w	r3, [r7, #252]	; 0xfc
 8003bca:	2200      	movs	r2, #0
 8003bcc:	f8c7 30d0 	str.w	r3, [r7, #208]	; 0xd0
 8003bd0:	f8c7 20d4 	str.w	r2, [r7, #212]	; 0xd4
 8003bd4:	e9d7 8934 	ldrd	r8, r9, [r7, #208]	; 0xd0
 8003bd8:	4642      	mov	r2, r8
 8003bda:	464b      	mov	r3, r9
 8003bdc:	1891      	adds	r1, r2, r2
 8003bde:	64b9      	str	r1, [r7, #72]	; 0x48
 8003be0:	415b      	adcs	r3, r3
 8003be2:	64fb      	str	r3, [r7, #76]	; 0x4c
 8003be4:	e9d7 2312 	ldrd	r2, r3, [r7, #72]	; 0x48
 8003be8:	4641      	mov	r1, r8
 8003bea:	eb12 0a01 	adds.w	sl, r2, r1
 8003bee:	4649      	mov	r1, r9
 8003bf0:	eb43 0b01 	adc.w	fp, r3, r1
 8003bf4:	f04f 0200 	mov.w	r2, #0
 8003bf8:	f04f 0300 	mov.w	r3, #0
 8003bfc:	ea4f 03cb 	mov.w	r3, fp, lsl #3
 8003c00:	ea43 735a 	orr.w	r3, r3, sl, lsr #29
 8003c04:	ea4f 02ca 	mov.w	r2, sl, lsl #3
 8003c08:	4692      	mov	sl, r2
 8003c0a:	469b      	mov	fp, r3
 8003c0c:	4643      	mov	r3, r8
 8003c0e:	eb1a 0303 	adds.w	r3, sl, r3
 8003c12:	f8c7 30c8 	str.w	r3, [r7, #200]	; 0xc8
 8003c16:	464b      	mov	r3, r9
 8003c18:	eb4b 0303 	adc.w	r3, fp, r3
 8003c1c:	f8c7 30cc 	str.w	r3, [r7, #204]	; 0xcc
 8003c20:	f8d7 30f4 	ldr.w	r3, [r7, #244]	; 0xf4
 8003c24:	685b      	ldr	r3, [r3, #4]
 8003c26:	2200      	movs	r2, #0
 8003c28:	f8c7 30c0 	str.w	r3, [r7, #192]	; 0xc0
 8003c2c:	f8c7 20c4 	str.w	r2, [r7, #196]	; 0xc4
 8003c30:	e9d7 1230 	ldrd	r1, r2, [r7, #192]	; 0xc0
 8003c34:	460b      	mov	r3, r1
 8003c36:	18db      	adds	r3, r3, r3
 8003c38:	643b      	str	r3, [r7, #64]	; 0x40
 8003c3a:	4613      	mov	r3, r2
 8003c3c:	eb42 0303 	adc.w	r3, r2, r3
 8003c40:	647b      	str	r3, [r7, #68]	; 0x44
 8003c42:	e9d7 2310 	ldrd	r2, r3, [r7, #64]	; 0x40
 8003c46:	e9d7 0132 	ldrd	r0, r1, [r7, #200]	; 0xc8
 8003c4a:	f7fd f83d 	bl	8000cc8 <__aeabi_uldivmod>
 8003c4e:	4602      	mov	r2, r0
 8003c50:	460b      	mov	r3, r1
 8003c52:	4611      	mov	r1, r2
 8003c54:	4b3b      	ldr	r3, [pc, #236]	; (8003d44 <UART_SetConfig+0x2d4>)
 8003c56:	fba3 2301 	umull	r2, r3, r3, r1
 8003c5a:	095b      	lsrs	r3, r3, #5
 8003c5c:	2264      	movs	r2, #100	; 0x64
 8003c5e:	fb02 f303 	mul.w	r3, r2, r3
 8003c62:	1acb      	subs	r3, r1, r3
 8003c64:	00db      	lsls	r3, r3, #3
 8003c66:	f103 0232 	add.w	r2, r3, #50	; 0x32
 8003c6a:	4b36      	ldr	r3, [pc, #216]	; (8003d44 <UART_SetConfig+0x2d4>)
 8003c6c:	fba3 2302 	umull	r2, r3, r3, r2
 8003c70:	095b      	lsrs	r3, r3, #5
 8003c72:	005b      	lsls	r3, r3, #1
 8003c74:	f403 73f8 	and.w	r3, r3, #496	; 0x1f0
 8003c78:	441c      	add	r4, r3
 8003c7a:	f8d7 30fc 	ldr.w	r3, [r7, #252]	; 0xfc
 8003c7e:	2200      	movs	r2, #0
 8003c80:	f8c7 30b8 	str.w	r3, [r7, #184]	; 0xb8
 8003c84:	f8c7 20bc 	str.w	r2, [r7, #188]	; 0xbc
 8003c88:	e9d7 892e 	ldrd	r8, r9, [r7, #184]	; 0xb8
 8003c8c:	4642      	mov	r2, r8
 8003c8e:	464b      	mov	r3, r9
 8003c90:	1891      	adds	r1, r2, r2
 8003c92:	63b9      	str	r1, [r7, #56]	; 0x38
 8003c94:	415b      	adcs	r3, r3
 8003c96:	63fb      	str	r3, [r7, #60]	; 0x3c
 8003c98:	e9d7 230e 	ldrd	r2, r3, [r7, #56]	; 0x38
 8003c9c:	4641      	mov	r1, r8
 8003c9e:	1851      	adds	r1, r2, r1
 8003ca0:	6339      	str	r1, [r7, #48]	; 0x30
 8003ca2:	4649      	mov	r1, r9
 8003ca4:	414b      	adcs	r3, r1
 8003ca6:	637b      	str	r3, [r7, #52]	; 0x34
 8003ca8:	f04f 0200 	mov.w	r2, #0
 8003cac:	f04f 0300 	mov.w	r3, #0
 8003cb0:	e9d7 ab0c 	ldrd	sl, fp, [r7, #48]	; 0x30
 8003cb4:	4659      	mov	r1, fp
 8003cb6:	00cb      	lsls	r3, r1, #3
 8003cb8:	4651      	mov	r1, sl
 8003cba:	ea43 7351 	orr.w	r3, r3, r1, lsr #29
 8003cbe:	4651      	mov	r1, sl
 8003cc0:	00ca      	lsls	r2, r1, #3
 8003cc2:	4610      	mov	r0, r2
 8003cc4:	4619      	mov	r1, r3
 8003cc6:	4603      	mov	r3, r0
 8003cc8:	4642      	mov	r2, r8
 8003cca:	189b      	adds	r3, r3, r2
 8003ccc:	f8c7 30b0 	str.w	r3, [r7, #176]	; 0xb0
 8003cd0:	464b      	mov	r3, r9
 8003cd2:	460a      	mov	r2, r1
 8003cd4:	eb42 0303 	adc.w	r3, r2, r3
 8003cd8:	f8c7 30b4 	str.w	r3, [r7, #180]	; 0xb4
 8003cdc:	f8d7 30f4 	ldr.w	r3, [r7, #244]	; 0xf4
 8003ce0:	685b      	ldr	r3, [r3, #4]
 8003ce2:	2200      	movs	r2, #0
 8003ce4:	f8c7 30a8 	str.w	r3, [r7, #168]	; 0xa8
 8003ce8:	f8c7 20ac 	str.w	r2, [r7, #172]	; 0xac
 8003cec:	e9d7 122a 	ldrd	r1, r2, [r7, #168]	; 0xa8
 8003cf0:	460b      	mov	r3, r1
 8003cf2:	18db      	adds	r3, r3, r3
 8003cf4:	62bb      	str	r3, [r7, #40]	; 0x28
 8003cf6:	4613      	mov	r3, r2
 8003cf8:	eb42 0303 	adc.w	r3, r2, r3
 8003cfc:	62fb      	str	r3, [r7, #44]	; 0x2c
 8003cfe:	e9d7 230a 	ldrd	r2, r3, [r7, #40]	; 0x28
 8003d02:	e9d7 012c 	ldrd	r0, r1, [r7, #176]	; 0xb0
 8003d06:	f7fc ffdf 	bl	8000cc8 <__aeabi_uldivmod>
 8003d0a:	4602      	mov	r2, r0
 8003d0c:	460b      	mov	r3, r1
 8003d0e:	4b0d      	ldr	r3, [pc, #52]	; (8003d44 <UART_SetConfig+0x2d4>)
 8003d10:	fba3 1302 	umull	r1, r3, r3, r2
 8003d14:	095b      	lsrs	r3, r3, #5
 8003d16:	2164      	movs	r1, #100	; 0x64
 8003d18:	fb01 f303 	mul.w	r3, r1, r3
 8003d1c:	1ad3      	subs	r3, r2, r3
 8003d1e:	00db      	lsls	r3, r3, #3
 8003d20:	3332      	adds	r3, #50	; 0x32
 8003d22:	4a08      	ldr	r2, [pc, #32]	; (8003d44 <UART_SetConfig+0x2d4>)
 8003d24:	fba2 2303 	umull	r2, r3, r2, r3
 8003d28:	095b      	lsrs	r3, r3, #5
 8003d2a:	f003 0207 	and.w	r2, r3, #7
 8003d2e:	f8d7 30f4 	ldr.w	r3, [r7, #244]	; 0xf4
 8003d32:	681b      	ldr	r3, [r3, #0]
 8003d34:	4422      	add	r2, r4
 8003d36:	609a      	str	r2, [r3, #8]
  }
  else
  {
    huart->Instance->BRR = UART_BRR_SAMPLING16(pclk, huart->Init.BaudRate);
  }
}
 8003d38:	e105      	b.n	8003f46 <UART_SetConfig+0x4d6>
 8003d3a:	bf00      	nop
 8003d3c:	40011000 	.word	0x40011000
 8003d40:	40011400 	.word	0x40011400
 8003d44:	51eb851f 	.word	0x51eb851f
    huart->Instance->BRR = UART_BRR_SAMPLING16(pclk, huart->Init.BaudRate);
 8003d48:	f8d7 30fc 	ldr.w	r3, [r7, #252]	; 0xfc
 8003d4c:	2200      	movs	r2, #0
 8003d4e:	f8c7 30a0 	str.w	r3, [r7, #160]	; 0xa0
 8003d52:	f8c7 20a4 	str.w	r2, [r7, #164]	; 0xa4
 8003d56:	e9d7 8928 	ldrd	r8, r9, [r7, #160]	; 0xa0
 8003d5a:	4642      	mov	r2, r8
 8003d5c:	464b      	mov	r3, r9
 8003d5e:	1891      	adds	r1, r2, r2
 8003d60:	6239      	str	r1, [r7, #32]
 8003d62:	415b      	adcs	r3, r3
 8003d64:	627b      	str	r3, [r7, #36]	; 0x24
 8003d66:	e9d7 2308 	ldrd	r2, r3, [r7, #32]
 8003d6a:	4641      	mov	r1, r8
 8003d6c:	1854      	adds	r4, r2, r1
 8003d6e:	4649      	mov	r1, r9
 8003d70:	eb43 0501 	adc.w	r5, r3, r1
 8003d74:	f04f 0200 	mov.w	r2, #0
 8003d78:	f04f 0300 	mov.w	r3, #0
 8003d7c:	00eb      	lsls	r3, r5, #3
 8003d7e:	ea43 7354 	orr.w	r3, r3, r4, lsr #29
 8003d82:	00e2      	lsls	r2, r4, #3
 8003d84:	4614      	mov	r4, r2
 8003d86:	461d      	mov	r5, r3
 8003d88:	4643      	mov	r3, r8
 8003d8a:	18e3      	adds	r3, r4, r3
 8003d8c:	f8c7 3098 	str.w	r3, [r7, #152]	; 0x98
 8003d90:	464b      	mov	r3, r9
 8003d92:	eb45 0303 	adc.w	r3, r5, r3
 8003d96:	f8c7 309c 	str.w	r3, [r7, #156]	; 0x9c
 8003d9a:	f8d7 30f4 	ldr.w	r3, [r7, #244]	; 0xf4
 8003d9e:	685b      	ldr	r3, [r3, #4]
 8003da0:	2200      	movs	r2, #0
 8003da2:	f8c7 3090 	str.w	r3, [r7, #144]	; 0x90
 8003da6:	f8c7 2094 	str.w	r2, [r7, #148]	; 0x94
 8003daa:	f04f 0200 	mov.w	r2, #0
 8003dae:	f04f 0300 	mov.w	r3, #0
 8003db2:	e9d7 4524 	ldrd	r4, r5, [r7, #144]	; 0x90
 8003db6:	4629      	mov	r1, r5
 8003db8:	008b      	lsls	r3, r1, #2
 8003dba:	4621      	mov	r1, r4
 8003dbc:	ea43 7391 	orr.w	r3, r3, r1, lsr #30
 8003dc0:	4621      	mov	r1, r4
 8003dc2:	008a      	lsls	r2, r1, #2
 8003dc4:	e9d7 0126 	ldrd	r0, r1, [r7, #152]	; 0x98
 8003dc8:	f7fc ff7e 	bl	8000cc8 <__aeabi_uldivmod>
 8003dcc:	4602      	mov	r2, r0
 8003dce:	460b      	mov	r3, r1
 8003dd0:	4b60      	ldr	r3, [pc, #384]	; (8003f54 <UART_SetConfig+0x4e4>)
 8003dd2:	fba3 2302 	umull	r2, r3, r3, r2
 8003dd6:	095b      	lsrs	r3, r3, #5
 8003dd8:	011c      	lsls	r4, r3, #4
 8003dda:	f8d7 30fc 	ldr.w	r3, [r7, #252]	; 0xfc
 8003dde:	2200      	movs	r2, #0
 8003de0:	f8c7 3088 	str.w	r3, [r7, #136]	; 0x88
 8003de4:	f8c7 208c 	str.w	r2, [r7, #140]	; 0x8c
 8003de8:	e9d7 8922 	ldrd	r8, r9, [r7, #136]	; 0x88
 8003dec:	4642      	mov	r2, r8
 8003dee:	464b      	mov	r3, r9
 8003df0:	1891      	adds	r1, r2, r2
 8003df2:	61b9      	str	r1, [r7, #24]
 8003df4:	415b      	adcs	r3, r3
 8003df6:	61fb      	str	r3, [r7, #28]
 8003df8:	e9d7 2306 	ldrd	r2, r3, [r7, #24]
 8003dfc:	4641      	mov	r1, r8
 8003dfe:	1851      	adds	r1, r2, r1
 8003e00:	6139      	str	r1, [r7, #16]
 8003e02:	4649      	mov	r1, r9
 8003e04:	414b      	adcs	r3, r1
 8003e06:	617b      	str	r3, [r7, #20]
 8003e08:	f04f 0200 	mov.w	r2, #0
 8003e0c:	f04f 0300 	mov.w	r3, #0
 8003e10:	e9d7 ab04 	ldrd	sl, fp, [r7, #16]
 8003e14:	4659      	mov	r1, fp
 8003e16:	00cb      	lsls	r3, r1, #3
 8003e18:	4651      	mov	r1, sl
 8003e1a:	ea43 7351 	orr.w	r3, r3, r1, lsr #29
 8003e1e:	4651      	mov	r1, sl
 8003e20:	00ca      	lsls	r2, r1, #3
 8003e22:	4610      	mov	r0, r2
 8003e24:	4619      	mov	r1, r3
 8003e26:	4603      	mov	r3, r0
 8003e28:	4642      	mov	r2, r8
 8003e2a:	189b      	adds	r3, r3, r2
 8003e2c:	f8c7 3080 	str.w	r3, [r7, #128]	; 0x80
 8003e30:	464b      	mov	r3, r9
 8003e32:	460a      	mov	r2, r1
 8003e34:	eb42 0303 	adc.w	r3, r2, r3
 8003e38:	f8c7 3084 	str.w	r3, [r7, #132]	; 0x84
 8003e3c:	f8d7 30f4 	ldr.w	r3, [r7, #244]	; 0xf4
 8003e40:	685b      	ldr	r3, [r3, #4]
 8003e42:	2200      	movs	r2, #0
 8003e44:	67bb      	str	r3, [r7, #120]	; 0x78
 8003e46:	67fa      	str	r2, [r7, #124]	; 0x7c
 8003e48:	f04f 0200 	mov.w	r2, #0
 8003e4c:	f04f 0300 	mov.w	r3, #0
 8003e50:	e9d7 891e 	ldrd	r8, r9, [r7, #120]	; 0x78
 8003e54:	4649      	mov	r1, r9
 8003e56:	008b      	lsls	r3, r1, #2
 8003e58:	4641      	mov	r1, r8
 8003e5a:	ea43 7391 	orr.w	r3, r3, r1, lsr #30
 8003e5e:	4641      	mov	r1, r8
 8003e60:	008a      	lsls	r2, r1, #2
 8003e62:	e9d7 0120 	ldrd	r0, r1, [r7, #128]	; 0x80
 8003e66:	f7fc ff2f 	bl	8000cc8 <__aeabi_uldivmod>
 8003e6a:	4602      	mov	r2, r0
 8003e6c:	460b      	mov	r3, r1
 8003e6e:	4b39      	ldr	r3, [pc, #228]	; (8003f54 <UART_SetConfig+0x4e4>)
 8003e70:	fba3 1302 	umull	r1, r3, r3, r2
 8003e74:	095b      	lsrs	r3, r3, #5
 8003e76:	2164      	movs	r1, #100	; 0x64
 8003e78:	fb01 f303 	mul.w	r3, r1, r3
 8003e7c:	1ad3      	subs	r3, r2, r3
 8003e7e:	011b      	lsls	r3, r3, #4
 8003e80:	3332      	adds	r3, #50	; 0x32
 8003e82:	4a34      	ldr	r2, [pc, #208]	; (8003f54 <UART_SetConfig+0x4e4>)
 8003e84:	fba2 2303 	umull	r2, r3, r2, r3
 8003e88:	095b      	lsrs	r3, r3, #5
 8003e8a:	f003 03f0 	and.w	r3, r3, #240	; 0xf0
 8003e8e:	441c      	add	r4, r3
 8003e90:	f8d7 30fc 	ldr.w	r3, [r7, #252]	; 0xfc
 8003e94:	2200      	movs	r2, #0
 8003e96:	673b      	str	r3, [r7, #112]	; 0x70
 8003e98:	677a      	str	r2, [r7, #116]	; 0x74
 8003e9a:	e9d7 891c 	ldrd	r8, r9, [r7, #112]	; 0x70
 8003e9e:	4642      	mov	r2, r8
 8003ea0:	464b      	mov	r3, r9
 8003ea2:	1891      	adds	r1, r2, r2
 8003ea4:	60b9      	str	r1, [r7, #8]
 8003ea6:	415b      	adcs	r3, r3
 8003ea8:	60fb      	str	r3, [r7, #12]
 8003eaa:	e9d7 2302 	ldrd	r2, r3, [r7, #8]
 8003eae:	4641      	mov	r1, r8
 8003eb0:	1851      	adds	r1, r2, r1
 8003eb2:	6039      	str	r1, [r7, #0]
 8003eb4:	4649      	mov	r1, r9
 8003eb6:	414b      	adcs	r3, r1
 8003eb8:	607b      	str	r3, [r7, #4]
 8003eba:	f04f 0200 	mov.w	r2, #0
 8003ebe:	f04f 0300 	mov.w	r3, #0
 8003ec2:	e9d7 ab00 	ldrd	sl, fp, [r7]
 8003ec6:	4659      	mov	r1, fp
 8003ec8:	00cb      	lsls	r3, r1, #3
 8003eca:	4651      	mov	r1, sl
 8003ecc:	ea43 7351 	orr.w	r3, r3, r1, lsr #29
 8003ed0:	4651      	mov	r1, sl
 8003ed2:	00ca      	lsls	r2, r1, #3
 8003ed4:	4610      	mov	r0, r2
 8003ed6:	4619      	mov	r1, r3
 8003ed8:	4603      	mov	r3, r0
 8003eda:	4642      	mov	r2, r8
 8003edc:	189b      	adds	r3, r3, r2
 8003ede:	66bb      	str	r3, [r7, #104]	; 0x68
 8003ee0:	464b      	mov	r3, r9
 8003ee2:	460a      	mov	r2, r1
 8003ee4:	eb42 0303 	adc.w	r3, r2, r3
 8003ee8:	66fb      	str	r3, [r7, #108]	; 0x6c
 8003eea:	f8d7 30f4 	ldr.w	r3, [r7, #244]	; 0xf4
 8003eee:	685b      	ldr	r3, [r3, #4]
 8003ef0:	2200      	movs	r2, #0
 8003ef2:	663b      	str	r3, [r7, #96]	; 0x60
 8003ef4:	667a      	str	r2, [r7, #100]	; 0x64
 8003ef6:	f04f 0200 	mov.w	r2, #0
 8003efa:	f04f 0300 	mov.w	r3, #0
 8003efe:	e9d7 8918 	ldrd	r8, r9, [r7, #96]	; 0x60
 8003f02:	4649      	mov	r1, r9
 8003f04:	008b      	lsls	r3, r1, #2
 8003f06:	4641      	mov	r1, r8
 8003f08:	ea43 7391 	orr.w	r3, r3, r1, lsr #30
 8003f0c:	4641      	mov	r1, r8
 8003f0e:	008a      	lsls	r2, r1, #2
 8003f10:	e9d7 011a 	ldrd	r0, r1, [r7, #104]	; 0x68
 8003f14:	f7fc fed8 	bl	8000cc8 <__aeabi_uldivmod>
 8003f18:	4602      	mov	r2, r0
 8003f1a:	460b      	mov	r3, r1
 8003f1c:	4b0d      	ldr	r3, [pc, #52]	; (8003f54 <UART_SetConfig+0x4e4>)
 8003f1e:	fba3 1302 	umull	r1, r3, r3, r2
 8003f22:	095b      	lsrs	r3, r3, #5
 8003f24:	2164      	movs	r1, #100	; 0x64
 8003f26:	fb01 f303 	mul.w	r3, r1, r3
 8003f2a:	1ad3      	subs	r3, r2, r3
 8003f2c:	011b      	lsls	r3, r3, #4
 8003f2e:	3332      	adds	r3, #50	; 0x32
 8003f30:	4a08      	ldr	r2, [pc, #32]	; (8003f54 <UART_SetConfig+0x4e4>)
 8003f32:	fba2 2303 	umull	r2, r3, r2, r3
 8003f36:	095b      	lsrs	r3, r3, #5
 8003f38:	f003 020f 	and.w	r2, r3, #15
 8003f3c:	f8d7 30f4 	ldr.w	r3, [r7, #244]	; 0xf4
 8003f40:	681b      	ldr	r3, [r3, #0]
 8003f42:	4422      	add	r2, r4
 8003f44:	609a      	str	r2, [r3, #8]
}
 8003f46:	bf00      	nop
 8003f48:	f507 7780 	add.w	r7, r7, #256	; 0x100
 8003f4c:	46bd      	mov	sp, r7
 8003f4e:	e8bd 8fb0 	ldmia.w	sp!, {r4, r5, r7, r8, r9, sl, fp, pc}
 8003f52:	bf00      	nop
 8003f54:	51eb851f 	.word	0x51eb851f

08003f58 <__errno>:
 8003f58:	4b01      	ldr	r3, [pc, #4]	; (8003f60 <__errno+0x8>)
 8003f5a:	6818      	ldr	r0, [r3, #0]
 8003f5c:	4770      	bx	lr
 8003f5e:	bf00      	nop
 8003f60:	2000000c 	.word	0x2000000c

08003f64 <__libc_init_array>:
 8003f64:	b570      	push	{r4, r5, r6, lr}
 8003f66:	4d0d      	ldr	r5, [pc, #52]	; (8003f9c <__libc_init_array+0x38>)
 8003f68:	4c0d      	ldr	r4, [pc, #52]	; (8003fa0 <__libc_init_array+0x3c>)
 8003f6a:	1b64      	subs	r4, r4, r5
 8003f6c:	10a4      	asrs	r4, r4, #2
 8003f6e:	2600      	movs	r6, #0
 8003f70:	42a6      	cmp	r6, r4
 8003f72:	d109      	bne.n	8003f88 <__libc_init_array+0x24>
 8003f74:	4d0b      	ldr	r5, [pc, #44]	; (8003fa4 <__libc_init_array+0x40>)
 8003f76:	4c0c      	ldr	r4, [pc, #48]	; (8003fa8 <__libc_init_array+0x44>)
 8003f78:	f005 f8e8 	bl	800914c <_init>
 8003f7c:	1b64      	subs	r4, r4, r5
 8003f7e:	10a4      	asrs	r4, r4, #2
 8003f80:	2600      	movs	r6, #0
 8003f82:	42a6      	cmp	r6, r4
 8003f84:	d105      	bne.n	8003f92 <__libc_init_array+0x2e>
 8003f86:	bd70      	pop	{r4, r5, r6, pc}
 8003f88:	f855 3b04 	ldr.w	r3, [r5], #4
 8003f8c:	4798      	blx	r3
 8003f8e:	3601      	adds	r6, #1
 8003f90:	e7ee      	b.n	8003f70 <__libc_init_array+0xc>
 8003f92:	f855 3b04 	ldr.w	r3, [r5], #4
 8003f96:	4798      	blx	r3
 8003f98:	3601      	adds	r6, #1
 8003f9a:	e7f2      	b.n	8003f82 <__libc_init_array+0x1e>
 8003f9c:	080096ac 	.word	0x080096ac
 8003fa0:	080096ac 	.word	0x080096ac
 8003fa4:	080096ac 	.word	0x080096ac
 8003fa8:	080096b0 	.word	0x080096b0

08003fac <memset>:
 8003fac:	4402      	add	r2, r0
 8003fae:	4603      	mov	r3, r0
 8003fb0:	4293      	cmp	r3, r2
 8003fb2:	d100      	bne.n	8003fb6 <memset+0xa>
 8003fb4:	4770      	bx	lr
 8003fb6:	f803 1b01 	strb.w	r1, [r3], #1
 8003fba:	e7f9      	b.n	8003fb0 <memset+0x4>

08003fbc <__cvt>:
 8003fbc:	e92d 47ff 	stmdb	sp!, {r0, r1, r2, r3, r4, r5, r6, r7, r8, r9, sl, lr}
 8003fc0:	ec55 4b10 	vmov	r4, r5, d0
 8003fc4:	2d00      	cmp	r5, #0
 8003fc6:	460e      	mov	r6, r1
 8003fc8:	4619      	mov	r1, r3
 8003fca:	462b      	mov	r3, r5
 8003fcc:	bfbb      	ittet	lt
 8003fce:	f105 4300 	addlt.w	r3, r5, #2147483648	; 0x80000000
 8003fd2:	461d      	movlt	r5, r3
 8003fd4:	2300      	movge	r3, #0
 8003fd6:	232d      	movlt	r3, #45	; 0x2d
 8003fd8:	700b      	strb	r3, [r1, #0]
 8003fda:	9b0d      	ldr	r3, [sp, #52]	; 0x34
 8003fdc:	f8dd a030 	ldr.w	sl, [sp, #48]	; 0x30
 8003fe0:	4691      	mov	r9, r2
 8003fe2:	f023 0820 	bic.w	r8, r3, #32
 8003fe6:	bfbc      	itt	lt
 8003fe8:	4622      	movlt	r2, r4
 8003fea:	4614      	movlt	r4, r2
 8003fec:	f1b8 0f46 	cmp.w	r8, #70	; 0x46
 8003ff0:	d005      	beq.n	8003ffe <__cvt+0x42>
 8003ff2:	f1b8 0f45 	cmp.w	r8, #69	; 0x45
 8003ff6:	d100      	bne.n	8003ffa <__cvt+0x3e>
 8003ff8:	3601      	adds	r6, #1
 8003ffa:	2102      	movs	r1, #2
 8003ffc:	e000      	b.n	8004000 <__cvt+0x44>
 8003ffe:	2103      	movs	r1, #3
 8004000:	ab03      	add	r3, sp, #12
 8004002:	9301      	str	r3, [sp, #4]
 8004004:	ab02      	add	r3, sp, #8
 8004006:	9300      	str	r3, [sp, #0]
 8004008:	ec45 4b10 	vmov	d0, r4, r5
 800400c:	4653      	mov	r3, sl
 800400e:	4632      	mov	r2, r6
 8004010:	f001 fe62 	bl	8005cd8 <_dtoa_r>
 8004014:	f1b8 0f47 	cmp.w	r8, #71	; 0x47
 8004018:	4607      	mov	r7, r0
 800401a:	d102      	bne.n	8004022 <__cvt+0x66>
 800401c:	f019 0f01 	tst.w	r9, #1
 8004020:	d022      	beq.n	8004068 <__cvt+0xac>
 8004022:	f1b8 0f46 	cmp.w	r8, #70	; 0x46
 8004026:	eb07 0906 	add.w	r9, r7, r6
 800402a:	d110      	bne.n	800404e <__cvt+0x92>
 800402c:	783b      	ldrb	r3, [r7, #0]
 800402e:	2b30      	cmp	r3, #48	; 0x30
 8004030:	d10a      	bne.n	8004048 <__cvt+0x8c>
 8004032:	2200      	movs	r2, #0
 8004034:	2300      	movs	r3, #0
 8004036:	4620      	mov	r0, r4
 8004038:	4629      	mov	r1, r5
 800403a:	f7fc fd65 	bl	8000b08 <__aeabi_dcmpeq>
 800403e:	b918      	cbnz	r0, 8004048 <__cvt+0x8c>
 8004040:	f1c6 0601 	rsb	r6, r6, #1
 8004044:	f8ca 6000 	str.w	r6, [sl]
 8004048:	f8da 3000 	ldr.w	r3, [sl]
 800404c:	4499      	add	r9, r3
 800404e:	2200      	movs	r2, #0
 8004050:	2300      	movs	r3, #0
 8004052:	4620      	mov	r0, r4
 8004054:	4629      	mov	r1, r5
 8004056:	f7fc fd57 	bl	8000b08 <__aeabi_dcmpeq>
 800405a:	b108      	cbz	r0, 8004060 <__cvt+0xa4>
 800405c:	f8cd 900c 	str.w	r9, [sp, #12]
 8004060:	2230      	movs	r2, #48	; 0x30
 8004062:	9b03      	ldr	r3, [sp, #12]
 8004064:	454b      	cmp	r3, r9
 8004066:	d307      	bcc.n	8004078 <__cvt+0xbc>
 8004068:	9b03      	ldr	r3, [sp, #12]
 800406a:	9a0e      	ldr	r2, [sp, #56]	; 0x38
 800406c:	1bdb      	subs	r3, r3, r7
 800406e:	4638      	mov	r0, r7
 8004070:	6013      	str	r3, [r2, #0]
 8004072:	b004      	add	sp, #16
 8004074:	e8bd 87f0 	ldmia.w	sp!, {r4, r5, r6, r7, r8, r9, sl, pc}
 8004078:	1c59      	adds	r1, r3, #1
 800407a:	9103      	str	r1, [sp, #12]
 800407c:	701a      	strb	r2, [r3, #0]
 800407e:	e7f0      	b.n	8004062 <__cvt+0xa6>

08004080 <__exponent>:
 8004080:	b5f7      	push	{r0, r1, r2, r4, r5, r6, r7, lr}
 8004082:	4603      	mov	r3, r0
 8004084:	2900      	cmp	r1, #0
 8004086:	bfb8      	it	lt
 8004088:	4249      	neglt	r1, r1
 800408a:	f803 2b02 	strb.w	r2, [r3], #2
 800408e:	bfb4      	ite	lt
 8004090:	222d      	movlt	r2, #45	; 0x2d
 8004092:	222b      	movge	r2, #43	; 0x2b
 8004094:	2909      	cmp	r1, #9
 8004096:	7042      	strb	r2, [r0, #1]
 8004098:	dd2a      	ble.n	80040f0 <__exponent+0x70>
 800409a:	f10d 0407 	add.w	r4, sp, #7
 800409e:	46a4      	mov	ip, r4
 80040a0:	270a      	movs	r7, #10
 80040a2:	46a6      	mov	lr, r4
 80040a4:	460a      	mov	r2, r1
 80040a6:	fb91 f6f7 	sdiv	r6, r1, r7
 80040aa:	fb07 1516 	mls	r5, r7, r6, r1
 80040ae:	3530      	adds	r5, #48	; 0x30
 80040b0:	2a63      	cmp	r2, #99	; 0x63
 80040b2:	f104 34ff 	add.w	r4, r4, #4294967295
 80040b6:	f80e 5c01 	strb.w	r5, [lr, #-1]
 80040ba:	4631      	mov	r1, r6
 80040bc:	dcf1      	bgt.n	80040a2 <__exponent+0x22>
 80040be:	3130      	adds	r1, #48	; 0x30
 80040c0:	f1ae 0502 	sub.w	r5, lr, #2
 80040c4:	f804 1c01 	strb.w	r1, [r4, #-1]
 80040c8:	1c44      	adds	r4, r0, #1
 80040ca:	4629      	mov	r1, r5
 80040cc:	4561      	cmp	r1, ip
 80040ce:	d30a      	bcc.n	80040e6 <__exponent+0x66>
 80040d0:	f10d 0209 	add.w	r2, sp, #9
 80040d4:	eba2 020e 	sub.w	r2, r2, lr
 80040d8:	4565      	cmp	r5, ip
 80040da:	bf88      	it	hi
 80040dc:	2200      	movhi	r2, #0
 80040de:	4413      	add	r3, r2
 80040e0:	1a18      	subs	r0, r3, r0
 80040e2:	b003      	add	sp, #12
 80040e4:	bdf0      	pop	{r4, r5, r6, r7, pc}
 80040e6:	f811 2b01 	ldrb.w	r2, [r1], #1
 80040ea:	f804 2f01 	strb.w	r2, [r4, #1]!
 80040ee:	e7ed      	b.n	80040cc <__exponent+0x4c>
 80040f0:	2330      	movs	r3, #48	; 0x30
 80040f2:	3130      	adds	r1, #48	; 0x30
 80040f4:	7083      	strb	r3, [r0, #2]
 80040f6:	70c1      	strb	r1, [r0, #3]
 80040f8:	1d03      	adds	r3, r0, #4
 80040fa:	e7f1      	b.n	80040e0 <__exponent+0x60>

080040fc <_printf_float>:
 80040fc:	e92d 4ff0 	stmdb	sp!, {r4, r5, r6, r7, r8, r9, sl, fp, lr}
 8004100:	ed2d 8b02 	vpush	{d8}
 8004104:	b08d      	sub	sp, #52	; 0x34
 8004106:	460c      	mov	r4, r1
 8004108:	f8dd 8060 	ldr.w	r8, [sp, #96]	; 0x60
 800410c:	4616      	mov	r6, r2
 800410e:	461f      	mov	r7, r3
 8004110:	4605      	mov	r5, r0
 8004112:	f002 ff3f 	bl	8006f94 <_localeconv_r>
 8004116:	f8d0 a000 	ldr.w	sl, [r0]
 800411a:	4650      	mov	r0, sl
 800411c:	f7fc f878 	bl	8000210 <strlen>
 8004120:	2300      	movs	r3, #0
 8004122:	930a      	str	r3, [sp, #40]	; 0x28
 8004124:	6823      	ldr	r3, [r4, #0]
 8004126:	9305      	str	r3, [sp, #20]
 8004128:	f8d8 3000 	ldr.w	r3, [r8]
 800412c:	f894 b018 	ldrb.w	fp, [r4, #24]
 8004130:	3307      	adds	r3, #7
 8004132:	f023 0307 	bic.w	r3, r3, #7
 8004136:	f103 0208 	add.w	r2, r3, #8
 800413a:	f8c8 2000 	str.w	r2, [r8]
 800413e:	e9d3 2300 	ldrd	r2, r3, [r3]
 8004142:	e9c4 2312 	strd	r2, r3, [r4, #72]	; 0x48
 8004146:	e9d4 8912 	ldrd	r8, r9, [r4, #72]	; 0x48
 800414a:	f029 4300 	bic.w	r3, r9, #2147483648	; 0x80000000
 800414e:	9307      	str	r3, [sp, #28]
 8004150:	f8cd 8018 	str.w	r8, [sp, #24]
 8004154:	ee08 0a10 	vmov	s16, r0
 8004158:	4b9f      	ldr	r3, [pc, #636]	; (80043d8 <_printf_float+0x2dc>)
 800415a:	e9dd 0106 	ldrd	r0, r1, [sp, #24]
 800415e:	f04f 32ff 	mov.w	r2, #4294967295
 8004162:	f7fc fd03 	bl	8000b6c <__aeabi_dcmpun>
 8004166:	bb88      	cbnz	r0, 80041cc <_printf_float+0xd0>
 8004168:	e9dd 0106 	ldrd	r0, r1, [sp, #24]
 800416c:	4b9a      	ldr	r3, [pc, #616]	; (80043d8 <_printf_float+0x2dc>)
 800416e:	f04f 32ff 	mov.w	r2, #4294967295
 8004172:	f7fc fcdd 	bl	8000b30 <__aeabi_dcmple>
 8004176:	bb48      	cbnz	r0, 80041cc <_printf_float+0xd0>
 8004178:	2200      	movs	r2, #0
 800417a:	2300      	movs	r3, #0
 800417c:	4640      	mov	r0, r8
 800417e:	4649      	mov	r1, r9
 8004180:	f7fc fccc 	bl	8000b1c <__aeabi_dcmplt>
 8004184:	b110      	cbz	r0, 800418c <_printf_float+0x90>
 8004186:	232d      	movs	r3, #45	; 0x2d
 8004188:	f884 3043 	strb.w	r3, [r4, #67]	; 0x43
 800418c:	4b93      	ldr	r3, [pc, #588]	; (80043dc <_printf_float+0x2e0>)
 800418e:	4894      	ldr	r0, [pc, #592]	; (80043e0 <_printf_float+0x2e4>)
 8004190:	f1bb 0f47 	cmp.w	fp, #71	; 0x47
 8004194:	bf94      	ite	ls
 8004196:	4698      	movls	r8, r3
 8004198:	4680      	movhi	r8, r0
 800419a:	2303      	movs	r3, #3
 800419c:	6123      	str	r3, [r4, #16]
 800419e:	9b05      	ldr	r3, [sp, #20]
 80041a0:	f023 0204 	bic.w	r2, r3, #4
 80041a4:	6022      	str	r2, [r4, #0]
 80041a6:	f04f 0900 	mov.w	r9, #0
 80041aa:	9700      	str	r7, [sp, #0]
 80041ac:	4633      	mov	r3, r6
 80041ae:	aa0b      	add	r2, sp, #44	; 0x2c
 80041b0:	4621      	mov	r1, r4
 80041b2:	4628      	mov	r0, r5
 80041b4:	f000 f9d8 	bl	8004568 <_printf_common>
 80041b8:	3001      	adds	r0, #1
 80041ba:	f040 8090 	bne.w	80042de <_printf_float+0x1e2>
 80041be:	f04f 30ff 	mov.w	r0, #4294967295
 80041c2:	b00d      	add	sp, #52	; 0x34
 80041c4:	ecbd 8b02 	vpop	{d8}
 80041c8:	e8bd 8ff0 	ldmia.w	sp!, {r4, r5, r6, r7, r8, r9, sl, fp, pc}
 80041cc:	4642      	mov	r2, r8
 80041ce:	464b      	mov	r3, r9
 80041d0:	4640      	mov	r0, r8
 80041d2:	4649      	mov	r1, r9
 80041d4:	f7fc fcca 	bl	8000b6c <__aeabi_dcmpun>
 80041d8:	b140      	cbz	r0, 80041ec <_printf_float+0xf0>
 80041da:	464b      	mov	r3, r9
 80041dc:	2b00      	cmp	r3, #0
 80041de:	bfbc      	itt	lt
 80041e0:	232d      	movlt	r3, #45	; 0x2d
 80041e2:	f884 3043 	strblt.w	r3, [r4, #67]	; 0x43
 80041e6:	487f      	ldr	r0, [pc, #508]	; (80043e4 <_printf_float+0x2e8>)
 80041e8:	4b7f      	ldr	r3, [pc, #508]	; (80043e8 <_printf_float+0x2ec>)
 80041ea:	e7d1      	b.n	8004190 <_printf_float+0x94>
 80041ec:	6863      	ldr	r3, [r4, #4]
 80041ee:	f00b 02df 	and.w	r2, fp, #223	; 0xdf
 80041f2:	9206      	str	r2, [sp, #24]
 80041f4:	1c5a      	adds	r2, r3, #1
 80041f6:	d13f      	bne.n	8004278 <_printf_float+0x17c>
 80041f8:	2306      	movs	r3, #6
 80041fa:	6063      	str	r3, [r4, #4]
 80041fc:	9b05      	ldr	r3, [sp, #20]
 80041fe:	6861      	ldr	r1, [r4, #4]
 8004200:	f443 6280 	orr.w	r2, r3, #1024	; 0x400
 8004204:	2300      	movs	r3, #0
 8004206:	9303      	str	r3, [sp, #12]
 8004208:	ab0a      	add	r3, sp, #40	; 0x28
 800420a:	e9cd b301 	strd	fp, r3, [sp, #4]
 800420e:	ab09      	add	r3, sp, #36	; 0x24
 8004210:	ec49 8b10 	vmov	d0, r8, r9
 8004214:	9300      	str	r3, [sp, #0]
 8004216:	6022      	str	r2, [r4, #0]
 8004218:	f10d 0323 	add.w	r3, sp, #35	; 0x23
 800421c:	4628      	mov	r0, r5
 800421e:	f7ff fecd 	bl	8003fbc <__cvt>
 8004222:	9b06      	ldr	r3, [sp, #24]
 8004224:	9909      	ldr	r1, [sp, #36]	; 0x24
 8004226:	2b47      	cmp	r3, #71	; 0x47
 8004228:	4680      	mov	r8, r0
 800422a:	d108      	bne.n	800423e <_printf_float+0x142>
 800422c:	1cc8      	adds	r0, r1, #3
 800422e:	db02      	blt.n	8004236 <_printf_float+0x13a>
 8004230:	6863      	ldr	r3, [r4, #4]
 8004232:	4299      	cmp	r1, r3
 8004234:	dd41      	ble.n	80042ba <_printf_float+0x1be>
 8004236:	f1ab 0b02 	sub.w	fp, fp, #2
 800423a:	fa5f fb8b 	uxtb.w	fp, fp
 800423e:	f1bb 0f65 	cmp.w	fp, #101	; 0x65
 8004242:	d820      	bhi.n	8004286 <_printf_float+0x18a>
 8004244:	3901      	subs	r1, #1
 8004246:	465a      	mov	r2, fp
 8004248:	f104 0050 	add.w	r0, r4, #80	; 0x50
 800424c:	9109      	str	r1, [sp, #36]	; 0x24
 800424e:	f7ff ff17 	bl	8004080 <__exponent>
 8004252:	9a0a      	ldr	r2, [sp, #40]	; 0x28
 8004254:	1813      	adds	r3, r2, r0
 8004256:	2a01      	cmp	r2, #1
 8004258:	4681      	mov	r9, r0
 800425a:	6123      	str	r3, [r4, #16]
 800425c:	dc02      	bgt.n	8004264 <_printf_float+0x168>
 800425e:	6822      	ldr	r2, [r4, #0]
 8004260:	07d2      	lsls	r2, r2, #31
 8004262:	d501      	bpl.n	8004268 <_printf_float+0x16c>
 8004264:	3301      	adds	r3, #1
 8004266:	6123      	str	r3, [r4, #16]
 8004268:	f89d 3023 	ldrb.w	r3, [sp, #35]	; 0x23
 800426c:	2b00      	cmp	r3, #0
 800426e:	d09c      	beq.n	80041aa <_printf_float+0xae>
 8004270:	232d      	movs	r3, #45	; 0x2d
 8004272:	f884 3043 	strb.w	r3, [r4, #67]	; 0x43
 8004276:	e798      	b.n	80041aa <_printf_float+0xae>
 8004278:	9a06      	ldr	r2, [sp, #24]
 800427a:	2a47      	cmp	r2, #71	; 0x47
 800427c:	d1be      	bne.n	80041fc <_printf_float+0x100>
 800427e:	2b00      	cmp	r3, #0
 8004280:	d1bc      	bne.n	80041fc <_printf_float+0x100>
 8004282:	2301      	movs	r3, #1
 8004284:	e7b9      	b.n	80041fa <_printf_float+0xfe>
 8004286:	f1bb 0f66 	cmp.w	fp, #102	; 0x66
 800428a:	d118      	bne.n	80042be <_printf_float+0x1c2>
 800428c:	2900      	cmp	r1, #0
 800428e:	6863      	ldr	r3, [r4, #4]
 8004290:	dd0b      	ble.n	80042aa <_printf_float+0x1ae>
 8004292:	6121      	str	r1, [r4, #16]
 8004294:	b913      	cbnz	r3, 800429c <_printf_float+0x1a0>
 8004296:	6822      	ldr	r2, [r4, #0]
 8004298:	07d0      	lsls	r0, r2, #31
 800429a:	d502      	bpl.n	80042a2 <_printf_float+0x1a6>
 800429c:	3301      	adds	r3, #1
 800429e:	440b      	add	r3, r1
 80042a0:	6123      	str	r3, [r4, #16]
 80042a2:	65a1      	str	r1, [r4, #88]	; 0x58
 80042a4:	f04f 0900 	mov.w	r9, #0
 80042a8:	e7de      	b.n	8004268 <_printf_float+0x16c>
 80042aa:	b913      	cbnz	r3, 80042b2 <_printf_float+0x1b6>
 80042ac:	6822      	ldr	r2, [r4, #0]
 80042ae:	07d2      	lsls	r2, r2, #31
 80042b0:	d501      	bpl.n	80042b6 <_printf_float+0x1ba>
 80042b2:	3302      	adds	r3, #2
 80042b4:	e7f4      	b.n	80042a0 <_printf_float+0x1a4>
 80042b6:	2301      	movs	r3, #1
 80042b8:	e7f2      	b.n	80042a0 <_printf_float+0x1a4>
 80042ba:	f04f 0b67 	mov.w	fp, #103	; 0x67
 80042be:	9b0a      	ldr	r3, [sp, #40]	; 0x28
 80042c0:	4299      	cmp	r1, r3
 80042c2:	db05      	blt.n	80042d0 <_printf_float+0x1d4>
 80042c4:	6823      	ldr	r3, [r4, #0]
 80042c6:	6121      	str	r1, [r4, #16]
 80042c8:	07d8      	lsls	r0, r3, #31
 80042ca:	d5ea      	bpl.n	80042a2 <_printf_float+0x1a6>
 80042cc:	1c4b      	adds	r3, r1, #1
 80042ce:	e7e7      	b.n	80042a0 <_printf_float+0x1a4>
 80042d0:	2900      	cmp	r1, #0
 80042d2:	bfd4      	ite	le
 80042d4:	f1c1 0202 	rsble	r2, r1, #2
 80042d8:	2201      	movgt	r2, #1
 80042da:	4413      	add	r3, r2
 80042dc:	e7e0      	b.n	80042a0 <_printf_float+0x1a4>
 80042de:	6823      	ldr	r3, [r4, #0]
 80042e0:	055a      	lsls	r2, r3, #21
 80042e2:	d407      	bmi.n	80042f4 <_printf_float+0x1f8>
 80042e4:	6923      	ldr	r3, [r4, #16]
 80042e6:	4642      	mov	r2, r8
 80042e8:	4631      	mov	r1, r6
 80042ea:	4628      	mov	r0, r5
 80042ec:	47b8      	blx	r7
 80042ee:	3001      	adds	r0, #1
 80042f0:	d12c      	bne.n	800434c <_printf_float+0x250>
 80042f2:	e764      	b.n	80041be <_printf_float+0xc2>
 80042f4:	f1bb 0f65 	cmp.w	fp, #101	; 0x65
 80042f8:	f240 80e0 	bls.w	80044bc <_printf_float+0x3c0>
 80042fc:	e9d4 0112 	ldrd	r0, r1, [r4, #72]	; 0x48
 8004300:	2200      	movs	r2, #0
 8004302:	2300      	movs	r3, #0
 8004304:	f7fc fc00 	bl	8000b08 <__aeabi_dcmpeq>
 8004308:	2800      	cmp	r0, #0
 800430a:	d034      	beq.n	8004376 <_printf_float+0x27a>
 800430c:	4a37      	ldr	r2, [pc, #220]	; (80043ec <_printf_float+0x2f0>)
 800430e:	2301      	movs	r3, #1
 8004310:	4631      	mov	r1, r6
 8004312:	4628      	mov	r0, r5
 8004314:	47b8      	blx	r7
 8004316:	3001      	adds	r0, #1
 8004318:	f43f af51 	beq.w	80041be <_printf_float+0xc2>
 800431c:	e9dd 2309 	ldrd	r2, r3, [sp, #36]	; 0x24
 8004320:	429a      	cmp	r2, r3
 8004322:	db02      	blt.n	800432a <_printf_float+0x22e>
 8004324:	6823      	ldr	r3, [r4, #0]
 8004326:	07d8      	lsls	r0, r3, #31
 8004328:	d510      	bpl.n	800434c <_printf_float+0x250>
 800432a:	ee18 3a10 	vmov	r3, s16
 800432e:	4652      	mov	r2, sl
 8004330:	4631      	mov	r1, r6
 8004332:	4628      	mov	r0, r5
 8004334:	47b8      	blx	r7
 8004336:	3001      	adds	r0, #1
 8004338:	f43f af41 	beq.w	80041be <_printf_float+0xc2>
 800433c:	f04f 0800 	mov.w	r8, #0
 8004340:	f104 091a 	add.w	r9, r4, #26
 8004344:	9b0a      	ldr	r3, [sp, #40]	; 0x28
 8004346:	3b01      	subs	r3, #1
 8004348:	4543      	cmp	r3, r8
 800434a:	dc09      	bgt.n	8004360 <_printf_float+0x264>
 800434c:	6823      	ldr	r3, [r4, #0]
 800434e:	079b      	lsls	r3, r3, #30
 8004350:	f100 8105 	bmi.w	800455e <_printf_float+0x462>
 8004354:	68e0      	ldr	r0, [r4, #12]
 8004356:	9b0b      	ldr	r3, [sp, #44]	; 0x2c
 8004358:	4298      	cmp	r0, r3
 800435a:	bfb8      	it	lt
 800435c:	4618      	movlt	r0, r3
 800435e:	e730      	b.n	80041c2 <_printf_float+0xc6>
 8004360:	2301      	movs	r3, #1
 8004362:	464a      	mov	r2, r9
 8004364:	4631      	mov	r1, r6
 8004366:	4628      	mov	r0, r5
 8004368:	47b8      	blx	r7
 800436a:	3001      	adds	r0, #1
 800436c:	f43f af27 	beq.w	80041be <_printf_float+0xc2>
 8004370:	f108 0801 	add.w	r8, r8, #1
 8004374:	e7e6      	b.n	8004344 <_printf_float+0x248>
 8004376:	9b09      	ldr	r3, [sp, #36]	; 0x24
 8004378:	2b00      	cmp	r3, #0
 800437a:	dc39      	bgt.n	80043f0 <_printf_float+0x2f4>
 800437c:	4a1b      	ldr	r2, [pc, #108]	; (80043ec <_printf_float+0x2f0>)
 800437e:	2301      	movs	r3, #1
 8004380:	4631      	mov	r1, r6
 8004382:	4628      	mov	r0, r5
 8004384:	47b8      	blx	r7
 8004386:	3001      	adds	r0, #1
 8004388:	f43f af19 	beq.w	80041be <_printf_float+0xc2>
 800438c:	e9dd 2309 	ldrd	r2, r3, [sp, #36]	; 0x24
 8004390:	4313      	orrs	r3, r2
 8004392:	d102      	bne.n	800439a <_printf_float+0x29e>
 8004394:	6823      	ldr	r3, [r4, #0]
 8004396:	07d9      	lsls	r1, r3, #31
 8004398:	d5d8      	bpl.n	800434c <_printf_float+0x250>
 800439a:	ee18 3a10 	vmov	r3, s16
 800439e:	4652      	mov	r2, sl
 80043a0:	4631      	mov	r1, r6
 80043a2:	4628      	mov	r0, r5
 80043a4:	47b8      	blx	r7
 80043a6:	3001      	adds	r0, #1
 80043a8:	f43f af09 	beq.w	80041be <_printf_float+0xc2>
 80043ac:	f04f 0900 	mov.w	r9, #0
 80043b0:	f104 0a1a 	add.w	sl, r4, #26
 80043b4:	9b09      	ldr	r3, [sp, #36]	; 0x24
 80043b6:	425b      	negs	r3, r3
 80043b8:	454b      	cmp	r3, r9
 80043ba:	dc01      	bgt.n	80043c0 <_printf_float+0x2c4>
 80043bc:	9b0a      	ldr	r3, [sp, #40]	; 0x28
 80043be:	e792      	b.n	80042e6 <_printf_float+0x1ea>
 80043c0:	2301      	movs	r3, #1
 80043c2:	4652      	mov	r2, sl
 80043c4:	4631      	mov	r1, r6
 80043c6:	4628      	mov	r0, r5
 80043c8:	47b8      	blx	r7
 80043ca:	3001      	adds	r0, #1
 80043cc:	f43f aef7 	beq.w	80041be <_printf_float+0xc2>
 80043d0:	f109 0901 	add.w	r9, r9, #1
 80043d4:	e7ee      	b.n	80043b4 <_printf_float+0x2b8>
 80043d6:	bf00      	nop
 80043d8:	7fefffff 	.word	0x7fefffff
 80043dc:	080091ec 	.word	0x080091ec
 80043e0:	080091f0 	.word	0x080091f0
 80043e4:	080091f8 	.word	0x080091f8
 80043e8:	080091f4 	.word	0x080091f4
 80043ec:	080095f1 	.word	0x080095f1
 80043f0:	9a0a      	ldr	r2, [sp, #40]	; 0x28
 80043f2:	6da3      	ldr	r3, [r4, #88]	; 0x58
 80043f4:	429a      	cmp	r2, r3
 80043f6:	bfa8      	it	ge
 80043f8:	461a      	movge	r2, r3
 80043fa:	2a00      	cmp	r2, #0
 80043fc:	4691      	mov	r9, r2
 80043fe:	dc37      	bgt.n	8004470 <_printf_float+0x374>
 8004400:	f04f 0b00 	mov.w	fp, #0
 8004404:	ea29 79e9 	bic.w	r9, r9, r9, asr #31
 8004408:	f104 021a 	add.w	r2, r4, #26
 800440c:	6da3      	ldr	r3, [r4, #88]	; 0x58
 800440e:	9305      	str	r3, [sp, #20]
 8004410:	eba3 0309 	sub.w	r3, r3, r9
 8004414:	455b      	cmp	r3, fp
 8004416:	dc33      	bgt.n	8004480 <_printf_float+0x384>
 8004418:	e9dd 2309 	ldrd	r2, r3, [sp, #36]	; 0x24
 800441c:	429a      	cmp	r2, r3
 800441e:	db3b      	blt.n	8004498 <_printf_float+0x39c>
 8004420:	6823      	ldr	r3, [r4, #0]
 8004422:	07da      	lsls	r2, r3, #31
 8004424:	d438      	bmi.n	8004498 <_printf_float+0x39c>
 8004426:	9b0a      	ldr	r3, [sp, #40]	; 0x28
 8004428:	9a05      	ldr	r2, [sp, #20]
 800442a:	9909      	ldr	r1, [sp, #36]	; 0x24
 800442c:	1a9a      	subs	r2, r3, r2
 800442e:	eba3 0901 	sub.w	r9, r3, r1
 8004432:	4591      	cmp	r9, r2
 8004434:	bfa8      	it	ge
 8004436:	4691      	movge	r9, r2
 8004438:	f1b9 0f00 	cmp.w	r9, #0
 800443c:	dc35      	bgt.n	80044aa <_printf_float+0x3ae>
 800443e:	f04f 0800 	mov.w	r8, #0
 8004442:	ea29 79e9 	bic.w	r9, r9, r9, asr #31
 8004446:	f104 0a1a 	add.w	sl, r4, #26
 800444a:	e9dd 2309 	ldrd	r2, r3, [sp, #36]	; 0x24
 800444e:	1a9b      	subs	r3, r3, r2
 8004450:	eba3 0309 	sub.w	r3, r3, r9
 8004454:	4543      	cmp	r3, r8
 8004456:	f77f af79 	ble.w	800434c <_printf_float+0x250>
 800445a:	2301      	movs	r3, #1
 800445c:	4652      	mov	r2, sl
 800445e:	4631      	mov	r1, r6
 8004460:	4628      	mov	r0, r5
 8004462:	47b8      	blx	r7
 8004464:	3001      	adds	r0, #1
 8004466:	f43f aeaa 	beq.w	80041be <_printf_float+0xc2>
 800446a:	f108 0801 	add.w	r8, r8, #1
 800446e:	e7ec      	b.n	800444a <_printf_float+0x34e>
 8004470:	4613      	mov	r3, r2
 8004472:	4631      	mov	r1, r6
 8004474:	4642      	mov	r2, r8
 8004476:	4628      	mov	r0, r5
 8004478:	47b8      	blx	r7
 800447a:	3001      	adds	r0, #1
 800447c:	d1c0      	bne.n	8004400 <_printf_float+0x304>
 800447e:	e69e      	b.n	80041be <_printf_float+0xc2>
 8004480:	2301      	movs	r3, #1
 8004482:	4631      	mov	r1, r6
 8004484:	4628      	mov	r0, r5
 8004486:	9205      	str	r2, [sp, #20]
 8004488:	47b8      	blx	r7
 800448a:	3001      	adds	r0, #1
 800448c:	f43f ae97 	beq.w	80041be <_printf_float+0xc2>
 8004490:	9a05      	ldr	r2, [sp, #20]
 8004492:	f10b 0b01 	add.w	fp, fp, #1
 8004496:	e7b9      	b.n	800440c <_printf_float+0x310>
 8004498:	ee18 3a10 	vmov	r3, s16
 800449c:	4652      	mov	r2, sl
 800449e:	4631      	mov	r1, r6
 80044a0:	4628      	mov	r0, r5
 80044a2:	47b8      	blx	r7
 80044a4:	3001      	adds	r0, #1
 80044a6:	d1be      	bne.n	8004426 <_printf_float+0x32a>
 80044a8:	e689      	b.n	80041be <_printf_float+0xc2>
 80044aa:	9a05      	ldr	r2, [sp, #20]
 80044ac:	464b      	mov	r3, r9
 80044ae:	4442      	add	r2, r8
 80044b0:	4631      	mov	r1, r6
 80044b2:	4628      	mov	r0, r5
 80044b4:	47b8      	blx	r7
 80044b6:	3001      	adds	r0, #1
 80044b8:	d1c1      	bne.n	800443e <_printf_float+0x342>
 80044ba:	e680      	b.n	80041be <_printf_float+0xc2>
 80044bc:	9a0a      	ldr	r2, [sp, #40]	; 0x28
 80044be:	2a01      	cmp	r2, #1
 80044c0:	dc01      	bgt.n	80044c6 <_printf_float+0x3ca>
 80044c2:	07db      	lsls	r3, r3, #31
 80044c4:	d538      	bpl.n	8004538 <_printf_float+0x43c>
 80044c6:	2301      	movs	r3, #1
 80044c8:	4642      	mov	r2, r8
 80044ca:	4631      	mov	r1, r6
 80044cc:	4628      	mov	r0, r5
 80044ce:	47b8      	blx	r7
 80044d0:	3001      	adds	r0, #1
 80044d2:	f43f ae74 	beq.w	80041be <_printf_float+0xc2>
 80044d6:	ee18 3a10 	vmov	r3, s16
 80044da:	4652      	mov	r2, sl
 80044dc:	4631      	mov	r1, r6
 80044de:	4628      	mov	r0, r5
 80044e0:	47b8      	blx	r7
 80044e2:	3001      	adds	r0, #1
 80044e4:	f43f ae6b 	beq.w	80041be <_printf_float+0xc2>
 80044e8:	e9d4 0112 	ldrd	r0, r1, [r4, #72]	; 0x48
 80044ec:	2200      	movs	r2, #0
 80044ee:	2300      	movs	r3, #0
 80044f0:	f7fc fb0a 	bl	8000b08 <__aeabi_dcmpeq>
 80044f4:	b9d8      	cbnz	r0, 800452e <_printf_float+0x432>
 80044f6:	9b0a      	ldr	r3, [sp, #40]	; 0x28
 80044f8:	f108 0201 	add.w	r2, r8, #1
 80044fc:	3b01      	subs	r3, #1
 80044fe:	4631      	mov	r1, r6
 8004500:	4628      	mov	r0, r5
 8004502:	47b8      	blx	r7
 8004504:	3001      	adds	r0, #1
 8004506:	d10e      	bne.n	8004526 <_printf_float+0x42a>
 8004508:	e659      	b.n	80041be <_printf_float+0xc2>
 800450a:	2301      	movs	r3, #1
 800450c:	4652      	mov	r2, sl
 800450e:	4631      	mov	r1, r6
 8004510:	4628      	mov	r0, r5
 8004512:	47b8      	blx	r7
 8004514:	3001      	adds	r0, #1
 8004516:	f43f ae52 	beq.w	80041be <_printf_float+0xc2>
 800451a:	f108 0801 	add.w	r8, r8, #1
 800451e:	9b0a      	ldr	r3, [sp, #40]	; 0x28
 8004520:	3b01      	subs	r3, #1
 8004522:	4543      	cmp	r3, r8
 8004524:	dcf1      	bgt.n	800450a <_printf_float+0x40e>
 8004526:	464b      	mov	r3, r9
 8004528:	f104 0250 	add.w	r2, r4, #80	; 0x50
 800452c:	e6dc      	b.n	80042e8 <_printf_float+0x1ec>
 800452e:	f04f 0800 	mov.w	r8, #0
 8004532:	f104 0a1a 	add.w	sl, r4, #26
 8004536:	e7f2      	b.n	800451e <_printf_float+0x422>
 8004538:	2301      	movs	r3, #1
 800453a:	4642      	mov	r2, r8
 800453c:	e7df      	b.n	80044fe <_printf_float+0x402>
 800453e:	2301      	movs	r3, #1
 8004540:	464a      	mov	r2, r9
 8004542:	4631      	mov	r1, r6
 8004544:	4628      	mov	r0, r5
 8004546:	47b8      	blx	r7
 8004548:	3001      	adds	r0, #1
 800454a:	f43f ae38 	beq.w	80041be <_printf_float+0xc2>
 800454e:	f108 0801 	add.w	r8, r8, #1
 8004552:	68e3      	ldr	r3, [r4, #12]
 8004554:	990b      	ldr	r1, [sp, #44]	; 0x2c
 8004556:	1a5b      	subs	r3, r3, r1
 8004558:	4543      	cmp	r3, r8
 800455a:	dcf0      	bgt.n	800453e <_printf_float+0x442>
 800455c:	e6fa      	b.n	8004354 <_printf_float+0x258>
 800455e:	f04f 0800 	mov.w	r8, #0
 8004562:	f104 0919 	add.w	r9, r4, #25
 8004566:	e7f4      	b.n	8004552 <_printf_float+0x456>

08004568 <_printf_common>:
 8004568:	e92d 47f0 	stmdb	sp!, {r4, r5, r6, r7, r8, r9, sl, lr}
 800456c:	4616      	mov	r6, r2
 800456e:	4699      	mov	r9, r3
 8004570:	688a      	ldr	r2, [r1, #8]
 8004572:	690b      	ldr	r3, [r1, #16]
 8004574:	f8dd 8020 	ldr.w	r8, [sp, #32]
 8004578:	4293      	cmp	r3, r2
 800457a:	bfb8      	it	lt
 800457c:	4613      	movlt	r3, r2
 800457e:	6033      	str	r3, [r6, #0]
 8004580:	f891 2043 	ldrb.w	r2, [r1, #67]	; 0x43
 8004584:	4607      	mov	r7, r0
 8004586:	460c      	mov	r4, r1
 8004588:	b10a      	cbz	r2, 800458e <_printf_common+0x26>
 800458a:	3301      	adds	r3, #1
 800458c:	6033      	str	r3, [r6, #0]
 800458e:	6823      	ldr	r3, [r4, #0]
 8004590:	0699      	lsls	r1, r3, #26
 8004592:	bf42      	ittt	mi
 8004594:	6833      	ldrmi	r3, [r6, #0]
 8004596:	3302      	addmi	r3, #2
 8004598:	6033      	strmi	r3, [r6, #0]
 800459a:	6825      	ldr	r5, [r4, #0]
 800459c:	f015 0506 	ands.w	r5, r5, #6
 80045a0:	d106      	bne.n	80045b0 <_printf_common+0x48>
 80045a2:	f104 0a19 	add.w	sl, r4, #25
 80045a6:	68e3      	ldr	r3, [r4, #12]
 80045a8:	6832      	ldr	r2, [r6, #0]
 80045aa:	1a9b      	subs	r3, r3, r2
 80045ac:	42ab      	cmp	r3, r5
 80045ae:	dc26      	bgt.n	80045fe <_printf_common+0x96>
 80045b0:	f894 2043 	ldrb.w	r2, [r4, #67]	; 0x43
 80045b4:	1e13      	subs	r3, r2, #0
 80045b6:	6822      	ldr	r2, [r4, #0]
 80045b8:	bf18      	it	ne
 80045ba:	2301      	movne	r3, #1
 80045bc:	0692      	lsls	r2, r2, #26
 80045be:	d42b      	bmi.n	8004618 <_printf_common+0xb0>
 80045c0:	f104 0243 	add.w	r2, r4, #67	; 0x43
 80045c4:	4649      	mov	r1, r9
 80045c6:	4638      	mov	r0, r7
 80045c8:	47c0      	blx	r8
 80045ca:	3001      	adds	r0, #1
 80045cc:	d01e      	beq.n	800460c <_printf_common+0xa4>
 80045ce:	6823      	ldr	r3, [r4, #0]
 80045d0:	68e5      	ldr	r5, [r4, #12]
 80045d2:	6832      	ldr	r2, [r6, #0]
 80045d4:	f003 0306 	and.w	r3, r3, #6
 80045d8:	2b04      	cmp	r3, #4
 80045da:	bf08      	it	eq
 80045dc:	1aad      	subeq	r5, r5, r2
 80045de:	68a3      	ldr	r3, [r4, #8]
 80045e0:	6922      	ldr	r2, [r4, #16]
 80045e2:	bf0c      	ite	eq
 80045e4:	ea25 75e5 	biceq.w	r5, r5, r5, asr #31
 80045e8:	2500      	movne	r5, #0
 80045ea:	4293      	cmp	r3, r2
 80045ec:	bfc4      	itt	gt
 80045ee:	1a9b      	subgt	r3, r3, r2
 80045f0:	18ed      	addgt	r5, r5, r3
 80045f2:	2600      	movs	r6, #0
 80045f4:	341a      	adds	r4, #26
 80045f6:	42b5      	cmp	r5, r6
 80045f8:	d11a      	bne.n	8004630 <_printf_common+0xc8>
 80045fa:	2000      	movs	r0, #0
 80045fc:	e008      	b.n	8004610 <_printf_common+0xa8>
 80045fe:	2301      	movs	r3, #1
 8004600:	4652      	mov	r2, sl
 8004602:	4649      	mov	r1, r9
 8004604:	4638      	mov	r0, r7
 8004606:	47c0      	blx	r8
 8004608:	3001      	adds	r0, #1
 800460a:	d103      	bne.n	8004614 <_printf_common+0xac>
 800460c:	f04f 30ff 	mov.w	r0, #4294967295
 8004610:	e8bd 87f0 	ldmia.w	sp!, {r4, r5, r6, r7, r8, r9, sl, pc}
 8004614:	3501      	adds	r5, #1
 8004616:	e7c6      	b.n	80045a6 <_printf_common+0x3e>
 8004618:	18e1      	adds	r1, r4, r3
 800461a:	1c5a      	adds	r2, r3, #1
 800461c:	2030      	movs	r0, #48	; 0x30
 800461e:	f881 0043 	strb.w	r0, [r1, #67]	; 0x43
 8004622:	4422      	add	r2, r4
 8004624:	f894 1045 	ldrb.w	r1, [r4, #69]	; 0x45
 8004628:	f882 1043 	strb.w	r1, [r2, #67]	; 0x43
 800462c:	3302      	adds	r3, #2
 800462e:	e7c7      	b.n	80045c0 <_printf_common+0x58>
 8004630:	2301      	movs	r3, #1
 8004632:	4622      	mov	r2, r4
 8004634:	4649      	mov	r1, r9
 8004636:	4638      	mov	r0, r7
 8004638:	47c0      	blx	r8
 800463a:	3001      	adds	r0, #1
 800463c:	d0e6      	beq.n	800460c <_printf_common+0xa4>
 800463e:	3601      	adds	r6, #1
 8004640:	e7d9      	b.n	80045f6 <_printf_common+0x8e>
	...

08004644 <_printf_i>:
 8004644:	e92d 47ff 	stmdb	sp!, {r0, r1, r2, r3, r4, r5, r6, r7, r8, r9, sl, lr}
 8004648:	7e0f      	ldrb	r7, [r1, #24]
 800464a:	9d0c      	ldr	r5, [sp, #48]	; 0x30
 800464c:	2f78      	cmp	r7, #120	; 0x78
 800464e:	4691      	mov	r9, r2
 8004650:	4680      	mov	r8, r0
 8004652:	460c      	mov	r4, r1
 8004654:	469a      	mov	sl, r3
 8004656:	f101 0243 	add.w	r2, r1, #67	; 0x43
 800465a:	d807      	bhi.n	800466c <_printf_i+0x28>
 800465c:	2f62      	cmp	r7, #98	; 0x62
 800465e:	d80a      	bhi.n	8004676 <_printf_i+0x32>
 8004660:	2f00      	cmp	r7, #0
 8004662:	f000 80d8 	beq.w	8004816 <_printf_i+0x1d2>
 8004666:	2f58      	cmp	r7, #88	; 0x58
 8004668:	f000 80a3 	beq.w	80047b2 <_printf_i+0x16e>
 800466c:	f104 0542 	add.w	r5, r4, #66	; 0x42
 8004670:	f884 7042 	strb.w	r7, [r4, #66]	; 0x42
 8004674:	e03a      	b.n	80046ec <_printf_i+0xa8>
 8004676:	f1a7 0363 	sub.w	r3, r7, #99	; 0x63
 800467a:	2b15      	cmp	r3, #21
 800467c:	d8f6      	bhi.n	800466c <_printf_i+0x28>
 800467e:	a101      	add	r1, pc, #4	; (adr r1, 8004684 <_printf_i+0x40>)
 8004680:	f851 f023 	ldr.w	pc, [r1, r3, lsl #2]
 8004684:	080046dd 	.word	0x080046dd
 8004688:	080046f1 	.word	0x080046f1
 800468c:	0800466d 	.word	0x0800466d
 8004690:	0800466d 	.word	0x0800466d
 8004694:	0800466d 	.word	0x0800466d
 8004698:	0800466d 	.word	0x0800466d
 800469c:	080046f1 	.word	0x080046f1
 80046a0:	0800466d 	.word	0x0800466d
 80046a4:	0800466d 	.word	0x0800466d
 80046a8:	0800466d 	.word	0x0800466d
 80046ac:	0800466d 	.word	0x0800466d
 80046b0:	080047fd 	.word	0x080047fd
 80046b4:	08004721 	.word	0x08004721
 80046b8:	080047df 	.word	0x080047df
 80046bc:	0800466d 	.word	0x0800466d
 80046c0:	0800466d 	.word	0x0800466d
 80046c4:	0800481f 	.word	0x0800481f
 80046c8:	0800466d 	.word	0x0800466d
 80046cc:	08004721 	.word	0x08004721
 80046d0:	0800466d 	.word	0x0800466d
 80046d4:	0800466d 	.word	0x0800466d
 80046d8:	080047e7 	.word	0x080047e7
 80046dc:	682b      	ldr	r3, [r5, #0]
 80046de:	1d1a      	adds	r2, r3, #4
 80046e0:	681b      	ldr	r3, [r3, #0]
 80046e2:	602a      	str	r2, [r5, #0]
 80046e4:	f104 0542 	add.w	r5, r4, #66	; 0x42
 80046e8:	f884 3042 	strb.w	r3, [r4, #66]	; 0x42
 80046ec:	2301      	movs	r3, #1
 80046ee:	e0a3      	b.n	8004838 <_printf_i+0x1f4>
 80046f0:	6820      	ldr	r0, [r4, #0]
 80046f2:	6829      	ldr	r1, [r5, #0]
 80046f4:	0606      	lsls	r6, r0, #24
 80046f6:	f101 0304 	add.w	r3, r1, #4
 80046fa:	d50a      	bpl.n	8004712 <_printf_i+0xce>
 80046fc:	680e      	ldr	r6, [r1, #0]
 80046fe:	602b      	str	r3, [r5, #0]
 8004700:	2e00      	cmp	r6, #0
 8004702:	da03      	bge.n	800470c <_printf_i+0xc8>
 8004704:	232d      	movs	r3, #45	; 0x2d
 8004706:	4276      	negs	r6, r6
 8004708:	f884 3043 	strb.w	r3, [r4, #67]	; 0x43
 800470c:	485e      	ldr	r0, [pc, #376]	; (8004888 <_printf_i+0x244>)
 800470e:	230a      	movs	r3, #10
 8004710:	e019      	b.n	8004746 <_printf_i+0x102>
 8004712:	680e      	ldr	r6, [r1, #0]
 8004714:	602b      	str	r3, [r5, #0]
 8004716:	f010 0f40 	tst.w	r0, #64	; 0x40
 800471a:	bf18      	it	ne
 800471c:	b236      	sxthne	r6, r6
 800471e:	e7ef      	b.n	8004700 <_printf_i+0xbc>
 8004720:	682b      	ldr	r3, [r5, #0]
 8004722:	6820      	ldr	r0, [r4, #0]
 8004724:	1d19      	adds	r1, r3, #4
 8004726:	6029      	str	r1, [r5, #0]
 8004728:	0601      	lsls	r1, r0, #24
 800472a:	d501      	bpl.n	8004730 <_printf_i+0xec>
 800472c:	681e      	ldr	r6, [r3, #0]
 800472e:	e002      	b.n	8004736 <_printf_i+0xf2>
 8004730:	0646      	lsls	r6, r0, #25
 8004732:	d5fb      	bpl.n	800472c <_printf_i+0xe8>
 8004734:	881e      	ldrh	r6, [r3, #0]
 8004736:	4854      	ldr	r0, [pc, #336]	; (8004888 <_printf_i+0x244>)
 8004738:	2f6f      	cmp	r7, #111	; 0x6f
 800473a:	bf0c      	ite	eq
 800473c:	2308      	moveq	r3, #8
 800473e:	230a      	movne	r3, #10
 8004740:	2100      	movs	r1, #0
 8004742:	f884 1043 	strb.w	r1, [r4, #67]	; 0x43
 8004746:	6865      	ldr	r5, [r4, #4]
 8004748:	60a5      	str	r5, [r4, #8]
 800474a:	2d00      	cmp	r5, #0
 800474c:	bfa2      	ittt	ge
 800474e:	6821      	ldrge	r1, [r4, #0]
 8004750:	f021 0104 	bicge.w	r1, r1, #4
 8004754:	6021      	strge	r1, [r4, #0]
 8004756:	b90e      	cbnz	r6, 800475c <_printf_i+0x118>
 8004758:	2d00      	cmp	r5, #0
 800475a:	d04d      	beq.n	80047f8 <_printf_i+0x1b4>
 800475c:	4615      	mov	r5, r2
 800475e:	fbb6 f1f3 	udiv	r1, r6, r3
 8004762:	fb03 6711 	mls	r7, r3, r1, r6
 8004766:	5dc7      	ldrb	r7, [r0, r7]
 8004768:	f805 7d01 	strb.w	r7, [r5, #-1]!
 800476c:	4637      	mov	r7, r6
 800476e:	42bb      	cmp	r3, r7
 8004770:	460e      	mov	r6, r1
 8004772:	d9f4      	bls.n	800475e <_printf_i+0x11a>
 8004774:	2b08      	cmp	r3, #8
 8004776:	d10b      	bne.n	8004790 <_printf_i+0x14c>
 8004778:	6823      	ldr	r3, [r4, #0]
 800477a:	07de      	lsls	r6, r3, #31
 800477c:	d508      	bpl.n	8004790 <_printf_i+0x14c>
 800477e:	6923      	ldr	r3, [r4, #16]
 8004780:	6861      	ldr	r1, [r4, #4]
 8004782:	4299      	cmp	r1, r3
 8004784:	bfde      	ittt	le
 8004786:	2330      	movle	r3, #48	; 0x30
 8004788:	f805 3c01 	strble.w	r3, [r5, #-1]
 800478c:	f105 35ff 	addle.w	r5, r5, #4294967295
 8004790:	1b52      	subs	r2, r2, r5
 8004792:	6122      	str	r2, [r4, #16]
 8004794:	f8cd a000 	str.w	sl, [sp]
 8004798:	464b      	mov	r3, r9
 800479a:	aa03      	add	r2, sp, #12
 800479c:	4621      	mov	r1, r4
 800479e:	4640      	mov	r0, r8
 80047a0:	f7ff fee2 	bl	8004568 <_printf_common>
 80047a4:	3001      	adds	r0, #1
 80047a6:	d14c      	bne.n	8004842 <_printf_i+0x1fe>
 80047a8:	f04f 30ff 	mov.w	r0, #4294967295
 80047ac:	b004      	add	sp, #16
 80047ae:	e8bd 87f0 	ldmia.w	sp!, {r4, r5, r6, r7, r8, r9, sl, pc}
 80047b2:	4835      	ldr	r0, [pc, #212]	; (8004888 <_printf_i+0x244>)
 80047b4:	f881 7045 	strb.w	r7, [r1, #69]	; 0x45
 80047b8:	6829      	ldr	r1, [r5, #0]
 80047ba:	6823      	ldr	r3, [r4, #0]
 80047bc:	f851 6b04 	ldr.w	r6, [r1], #4
 80047c0:	6029      	str	r1, [r5, #0]
 80047c2:	061d      	lsls	r5, r3, #24
 80047c4:	d514      	bpl.n	80047f0 <_printf_i+0x1ac>
 80047c6:	07df      	lsls	r7, r3, #31
 80047c8:	bf44      	itt	mi
 80047ca:	f043 0320 	orrmi.w	r3, r3, #32
 80047ce:	6023      	strmi	r3, [r4, #0]
 80047d0:	b91e      	cbnz	r6, 80047da <_printf_i+0x196>
 80047d2:	6823      	ldr	r3, [r4, #0]
 80047d4:	f023 0320 	bic.w	r3, r3, #32
 80047d8:	6023      	str	r3, [r4, #0]
 80047da:	2310      	movs	r3, #16
 80047dc:	e7b0      	b.n	8004740 <_printf_i+0xfc>
 80047de:	6823      	ldr	r3, [r4, #0]
 80047e0:	f043 0320 	orr.w	r3, r3, #32
 80047e4:	6023      	str	r3, [r4, #0]
 80047e6:	2378      	movs	r3, #120	; 0x78
 80047e8:	4828      	ldr	r0, [pc, #160]	; (800488c <_printf_i+0x248>)
 80047ea:	f884 3045 	strb.w	r3, [r4, #69]	; 0x45
 80047ee:	e7e3      	b.n	80047b8 <_printf_i+0x174>
 80047f0:	0659      	lsls	r1, r3, #25
 80047f2:	bf48      	it	mi
 80047f4:	b2b6      	uxthmi	r6, r6
 80047f6:	e7e6      	b.n	80047c6 <_printf_i+0x182>
 80047f8:	4615      	mov	r5, r2
 80047fa:	e7bb      	b.n	8004774 <_printf_i+0x130>
 80047fc:	682b      	ldr	r3, [r5, #0]
 80047fe:	6826      	ldr	r6, [r4, #0]
 8004800:	6961      	ldr	r1, [r4, #20]
 8004802:	1d18      	adds	r0, r3, #4
 8004804:	6028      	str	r0, [r5, #0]
 8004806:	0635      	lsls	r5, r6, #24
 8004808:	681b      	ldr	r3, [r3, #0]
 800480a:	d501      	bpl.n	8004810 <_printf_i+0x1cc>
 800480c:	6019      	str	r1, [r3, #0]
 800480e:	e002      	b.n	8004816 <_printf_i+0x1d2>
 8004810:	0670      	lsls	r0, r6, #25
 8004812:	d5fb      	bpl.n	800480c <_printf_i+0x1c8>
 8004814:	8019      	strh	r1, [r3, #0]
 8004816:	2300      	movs	r3, #0
 8004818:	6123      	str	r3, [r4, #16]
 800481a:	4615      	mov	r5, r2
 800481c:	e7ba      	b.n	8004794 <_printf_i+0x150>
 800481e:	682b      	ldr	r3, [r5, #0]
 8004820:	1d1a      	adds	r2, r3, #4
 8004822:	602a      	str	r2, [r5, #0]
 8004824:	681d      	ldr	r5, [r3, #0]
 8004826:	6862      	ldr	r2, [r4, #4]
 8004828:	2100      	movs	r1, #0
 800482a:	4628      	mov	r0, r5
 800482c:	f7fb fcf8 	bl	8000220 <memchr>
 8004830:	b108      	cbz	r0, 8004836 <_printf_i+0x1f2>
 8004832:	1b40      	subs	r0, r0, r5
 8004834:	6060      	str	r0, [r4, #4]
 8004836:	6863      	ldr	r3, [r4, #4]
 8004838:	6123      	str	r3, [r4, #16]
 800483a:	2300      	movs	r3, #0
 800483c:	f884 3043 	strb.w	r3, [r4, #67]	; 0x43
 8004840:	e7a8      	b.n	8004794 <_printf_i+0x150>
 8004842:	6923      	ldr	r3, [r4, #16]
 8004844:	462a      	mov	r2, r5
 8004846:	4649      	mov	r1, r9
 8004848:	4640      	mov	r0, r8
 800484a:	47d0      	blx	sl
 800484c:	3001      	adds	r0, #1
 800484e:	d0ab      	beq.n	80047a8 <_printf_i+0x164>
 8004850:	6823      	ldr	r3, [r4, #0]
 8004852:	079b      	lsls	r3, r3, #30
 8004854:	d413      	bmi.n	800487e <_printf_i+0x23a>
 8004856:	68e0      	ldr	r0, [r4, #12]
 8004858:	9b03      	ldr	r3, [sp, #12]
 800485a:	4298      	cmp	r0, r3
 800485c:	bfb8      	it	lt
 800485e:	4618      	movlt	r0, r3
 8004860:	e7a4      	b.n	80047ac <_printf_i+0x168>
 8004862:	2301      	movs	r3, #1
 8004864:	4632      	mov	r2, r6
 8004866:	4649      	mov	r1, r9
 8004868:	4640      	mov	r0, r8
 800486a:	47d0      	blx	sl
 800486c:	3001      	adds	r0, #1
 800486e:	d09b      	beq.n	80047a8 <_printf_i+0x164>
 8004870:	3501      	adds	r5, #1
 8004872:	68e3      	ldr	r3, [r4, #12]
 8004874:	9903      	ldr	r1, [sp, #12]
 8004876:	1a5b      	subs	r3, r3, r1
 8004878:	42ab      	cmp	r3, r5
 800487a:	dcf2      	bgt.n	8004862 <_printf_i+0x21e>
 800487c:	e7eb      	b.n	8004856 <_printf_i+0x212>
 800487e:	2500      	movs	r5, #0
 8004880:	f104 0619 	add.w	r6, r4, #25
 8004884:	e7f5      	b.n	8004872 <_printf_i+0x22e>
 8004886:	bf00      	nop
 8004888:	080091fc 	.word	0x080091fc
 800488c:	0800920d 	.word	0x0800920d

08004890 <_scanf_float>:
 8004890:	e92d 4ff0 	stmdb	sp!, {r4, r5, r6, r7, r8, r9, sl, fp, lr}
 8004894:	b087      	sub	sp, #28
 8004896:	4617      	mov	r7, r2
 8004898:	9303      	str	r3, [sp, #12]
 800489a:	688b      	ldr	r3, [r1, #8]
 800489c:	1e5a      	subs	r2, r3, #1
 800489e:	f5b2 7fae 	cmp.w	r2, #348	; 0x15c
 80048a2:	bf83      	ittte	hi
 80048a4:	f46f 75ae 	mvnhi.w	r5, #348	; 0x15c
 80048a8:	195b      	addhi	r3, r3, r5
 80048aa:	9302      	strhi	r3, [sp, #8]
 80048ac:	2300      	movls	r3, #0
 80048ae:	bf86      	itte	hi
 80048b0:	f240 135d 	movwhi	r3, #349	; 0x15d
 80048b4:	608b      	strhi	r3, [r1, #8]
 80048b6:	9302      	strls	r3, [sp, #8]
 80048b8:	680b      	ldr	r3, [r1, #0]
 80048ba:	468b      	mov	fp, r1
 80048bc:	2500      	movs	r5, #0
 80048be:	f443 63f0 	orr.w	r3, r3, #1920	; 0x780
 80048c2:	f84b 3b1c 	str.w	r3, [fp], #28
 80048c6:	e9cd 5504 	strd	r5, r5, [sp, #16]
 80048ca:	4680      	mov	r8, r0
 80048cc:	460c      	mov	r4, r1
 80048ce:	465e      	mov	r6, fp
 80048d0:	46aa      	mov	sl, r5
 80048d2:	46a9      	mov	r9, r5
 80048d4:	9501      	str	r5, [sp, #4]
 80048d6:	68a2      	ldr	r2, [r4, #8]
 80048d8:	b152      	cbz	r2, 80048f0 <_scanf_float+0x60>
 80048da:	683b      	ldr	r3, [r7, #0]
 80048dc:	781b      	ldrb	r3, [r3, #0]
 80048de:	2b4e      	cmp	r3, #78	; 0x4e
 80048e0:	d864      	bhi.n	80049ac <_scanf_float+0x11c>
 80048e2:	2b40      	cmp	r3, #64	; 0x40
 80048e4:	d83c      	bhi.n	8004960 <_scanf_float+0xd0>
 80048e6:	f1a3 012b 	sub.w	r1, r3, #43	; 0x2b
 80048ea:	b2c8      	uxtb	r0, r1
 80048ec:	280e      	cmp	r0, #14
 80048ee:	d93a      	bls.n	8004966 <_scanf_float+0xd6>
 80048f0:	f1b9 0f00 	cmp.w	r9, #0
 80048f4:	d003      	beq.n	80048fe <_scanf_float+0x6e>
 80048f6:	6823      	ldr	r3, [r4, #0]
 80048f8:	f423 7380 	bic.w	r3, r3, #256	; 0x100
 80048fc:	6023      	str	r3, [r4, #0]
 80048fe:	f10a 3aff 	add.w	sl, sl, #4294967295
 8004902:	f1ba 0f01 	cmp.w	sl, #1
 8004906:	f200 8113 	bhi.w	8004b30 <_scanf_float+0x2a0>
 800490a:	455e      	cmp	r6, fp
 800490c:	f200 8105 	bhi.w	8004b1a <_scanf_float+0x28a>
 8004910:	2501      	movs	r5, #1
 8004912:	4628      	mov	r0, r5
 8004914:	b007      	add	sp, #28
 8004916:	e8bd 8ff0 	ldmia.w	sp!, {r4, r5, r6, r7, r8, r9, sl, fp, pc}
 800491a:	f1a3 0261 	sub.w	r2, r3, #97	; 0x61
 800491e:	2a0d      	cmp	r2, #13
 8004920:	d8e6      	bhi.n	80048f0 <_scanf_float+0x60>
 8004922:	a101      	add	r1, pc, #4	; (adr r1, 8004928 <_scanf_float+0x98>)
 8004924:	f851 f022 	ldr.w	pc, [r1, r2, lsl #2]
 8004928:	08004a67 	.word	0x08004a67
 800492c:	080048f1 	.word	0x080048f1
 8004930:	080048f1 	.word	0x080048f1
 8004934:	080048f1 	.word	0x080048f1
 8004938:	08004ac7 	.word	0x08004ac7
 800493c:	08004a9f 	.word	0x08004a9f
 8004940:	080048f1 	.word	0x080048f1
 8004944:	080048f1 	.word	0x080048f1
 8004948:	08004a75 	.word	0x08004a75
 800494c:	080048f1 	.word	0x080048f1
 8004950:	080048f1 	.word	0x080048f1
 8004954:	080048f1 	.word	0x080048f1
 8004958:	080048f1 	.word	0x080048f1
 800495c:	08004a2d 	.word	0x08004a2d
 8004960:	f1a3 0241 	sub.w	r2, r3, #65	; 0x41
 8004964:	e7db      	b.n	800491e <_scanf_float+0x8e>
 8004966:	290e      	cmp	r1, #14
 8004968:	d8c2      	bhi.n	80048f0 <_scanf_float+0x60>
 800496a:	a001      	add	r0, pc, #4	; (adr r0, 8004970 <_scanf_float+0xe0>)
 800496c:	f850 f021 	ldr.w	pc, [r0, r1, lsl #2]
 8004970:	08004a1f 	.word	0x08004a1f
 8004974:	080048f1 	.word	0x080048f1
 8004978:	08004a1f 	.word	0x08004a1f
 800497c:	08004ab3 	.word	0x08004ab3
 8004980:	080048f1 	.word	0x080048f1
 8004984:	080049cd 	.word	0x080049cd
 8004988:	08004a09 	.word	0x08004a09
 800498c:	08004a09 	.word	0x08004a09
 8004990:	08004a09 	.word	0x08004a09
 8004994:	08004a09 	.word	0x08004a09
 8004998:	08004a09 	.word	0x08004a09
 800499c:	08004a09 	.word	0x08004a09
 80049a0:	08004a09 	.word	0x08004a09
 80049a4:	08004a09 	.word	0x08004a09
 80049a8:	08004a09 	.word	0x08004a09
 80049ac:	2b6e      	cmp	r3, #110	; 0x6e
 80049ae:	d809      	bhi.n	80049c4 <_scanf_float+0x134>
 80049b0:	2b60      	cmp	r3, #96	; 0x60
 80049b2:	d8b2      	bhi.n	800491a <_scanf_float+0x8a>
 80049b4:	2b54      	cmp	r3, #84	; 0x54
 80049b6:	d077      	beq.n	8004aa8 <_scanf_float+0x218>
 80049b8:	2b59      	cmp	r3, #89	; 0x59
 80049ba:	d199      	bne.n	80048f0 <_scanf_float+0x60>
 80049bc:	2d07      	cmp	r5, #7
 80049be:	d197      	bne.n	80048f0 <_scanf_float+0x60>
 80049c0:	2508      	movs	r5, #8
 80049c2:	e029      	b.n	8004a18 <_scanf_float+0x188>
 80049c4:	2b74      	cmp	r3, #116	; 0x74
 80049c6:	d06f      	beq.n	8004aa8 <_scanf_float+0x218>
 80049c8:	2b79      	cmp	r3, #121	; 0x79
 80049ca:	e7f6      	b.n	80049ba <_scanf_float+0x12a>
 80049cc:	6821      	ldr	r1, [r4, #0]
 80049ce:	05c8      	lsls	r0, r1, #23
 80049d0:	d51a      	bpl.n	8004a08 <_scanf_float+0x178>
 80049d2:	9b02      	ldr	r3, [sp, #8]
 80049d4:	f021 0180 	bic.w	r1, r1, #128	; 0x80
 80049d8:	6021      	str	r1, [r4, #0]
 80049da:	f109 0901 	add.w	r9, r9, #1
 80049de:	b11b      	cbz	r3, 80049e8 <_scanf_float+0x158>
 80049e0:	3b01      	subs	r3, #1
 80049e2:	3201      	adds	r2, #1
 80049e4:	9302      	str	r3, [sp, #8]
 80049e6:	60a2      	str	r2, [r4, #8]
 80049e8:	68a3      	ldr	r3, [r4, #8]
 80049ea:	3b01      	subs	r3, #1
 80049ec:	60a3      	str	r3, [r4, #8]
 80049ee:	6923      	ldr	r3, [r4, #16]
 80049f0:	3301      	adds	r3, #1
 80049f2:	6123      	str	r3, [r4, #16]
 80049f4:	687b      	ldr	r3, [r7, #4]
 80049f6:	3b01      	subs	r3, #1
 80049f8:	2b00      	cmp	r3, #0
 80049fa:	607b      	str	r3, [r7, #4]
 80049fc:	f340 8084 	ble.w	8004b08 <_scanf_float+0x278>
 8004a00:	683b      	ldr	r3, [r7, #0]
 8004a02:	3301      	adds	r3, #1
 8004a04:	603b      	str	r3, [r7, #0]
 8004a06:	e766      	b.n	80048d6 <_scanf_float+0x46>
 8004a08:	eb1a 0f05 	cmn.w	sl, r5
 8004a0c:	f47f af70 	bne.w	80048f0 <_scanf_float+0x60>
 8004a10:	6822      	ldr	r2, [r4, #0]
 8004a12:	f422 72c0 	bic.w	r2, r2, #384	; 0x180
 8004a16:	6022      	str	r2, [r4, #0]
 8004a18:	f806 3b01 	strb.w	r3, [r6], #1
 8004a1c:	e7e4      	b.n	80049e8 <_scanf_float+0x158>
 8004a1e:	6822      	ldr	r2, [r4, #0]
 8004a20:	0610      	lsls	r0, r2, #24
 8004a22:	f57f af65 	bpl.w	80048f0 <_scanf_float+0x60>
 8004a26:	f022 0280 	bic.w	r2, r2, #128	; 0x80
 8004a2a:	e7f4      	b.n	8004a16 <_scanf_float+0x186>
 8004a2c:	f1ba 0f00 	cmp.w	sl, #0
 8004a30:	d10e      	bne.n	8004a50 <_scanf_float+0x1c0>
 8004a32:	f1b9 0f00 	cmp.w	r9, #0
 8004a36:	d10e      	bne.n	8004a56 <_scanf_float+0x1c6>
 8004a38:	6822      	ldr	r2, [r4, #0]
 8004a3a:	f402 61e0 	and.w	r1, r2, #1792	; 0x700
 8004a3e:	f5b1 6fe0 	cmp.w	r1, #1792	; 0x700
 8004a42:	d108      	bne.n	8004a56 <_scanf_float+0x1c6>
 8004a44:	f422 62f0 	bic.w	r2, r2, #1920	; 0x780
 8004a48:	6022      	str	r2, [r4, #0]
 8004a4a:	f04f 0a01 	mov.w	sl, #1
 8004a4e:	e7e3      	b.n	8004a18 <_scanf_float+0x188>
 8004a50:	f1ba 0f02 	cmp.w	sl, #2
 8004a54:	d055      	beq.n	8004b02 <_scanf_float+0x272>
 8004a56:	2d01      	cmp	r5, #1
 8004a58:	d002      	beq.n	8004a60 <_scanf_float+0x1d0>
 8004a5a:	2d04      	cmp	r5, #4
 8004a5c:	f47f af48 	bne.w	80048f0 <_scanf_float+0x60>
 8004a60:	3501      	adds	r5, #1
 8004a62:	b2ed      	uxtb	r5, r5
 8004a64:	e7d8      	b.n	8004a18 <_scanf_float+0x188>
 8004a66:	f1ba 0f01 	cmp.w	sl, #1
 8004a6a:	f47f af41 	bne.w	80048f0 <_scanf_float+0x60>
 8004a6e:	f04f 0a02 	mov.w	sl, #2
 8004a72:	e7d1      	b.n	8004a18 <_scanf_float+0x188>
 8004a74:	b97d      	cbnz	r5, 8004a96 <_scanf_float+0x206>
 8004a76:	f1b9 0f00 	cmp.w	r9, #0
 8004a7a:	f47f af3c 	bne.w	80048f6 <_scanf_float+0x66>
 8004a7e:	6822      	ldr	r2, [r4, #0]
 8004a80:	f402 61e0 	and.w	r1, r2, #1792	; 0x700
 8004a84:	f5b1 6fe0 	cmp.w	r1, #1792	; 0x700
 8004a88:	f47f af39 	bne.w	80048fe <_scanf_float+0x6e>
 8004a8c:	f422 62f0 	bic.w	r2, r2, #1920	; 0x780
 8004a90:	6022      	str	r2, [r4, #0]
 8004a92:	2501      	movs	r5, #1
 8004a94:	e7c0      	b.n	8004a18 <_scanf_float+0x188>
 8004a96:	2d03      	cmp	r5, #3
 8004a98:	d0e2      	beq.n	8004a60 <_scanf_float+0x1d0>
 8004a9a:	2d05      	cmp	r5, #5
 8004a9c:	e7de      	b.n	8004a5c <_scanf_float+0x1cc>
 8004a9e:	2d02      	cmp	r5, #2
 8004aa0:	f47f af26 	bne.w	80048f0 <_scanf_float+0x60>
 8004aa4:	2503      	movs	r5, #3
 8004aa6:	e7b7      	b.n	8004a18 <_scanf_float+0x188>
 8004aa8:	2d06      	cmp	r5, #6
 8004aaa:	f47f af21 	bne.w	80048f0 <_scanf_float+0x60>
 8004aae:	2507      	movs	r5, #7
 8004ab0:	e7b2      	b.n	8004a18 <_scanf_float+0x188>
 8004ab2:	6822      	ldr	r2, [r4, #0]
 8004ab4:	0591      	lsls	r1, r2, #22
 8004ab6:	f57f af1b 	bpl.w	80048f0 <_scanf_float+0x60>
 8004aba:	f422 7220 	bic.w	r2, r2, #640	; 0x280
 8004abe:	6022      	str	r2, [r4, #0]
 8004ac0:	f8cd 9004 	str.w	r9, [sp, #4]
 8004ac4:	e7a8      	b.n	8004a18 <_scanf_float+0x188>
 8004ac6:	6822      	ldr	r2, [r4, #0]
 8004ac8:	f402 61a0 	and.w	r1, r2, #1280	; 0x500
 8004acc:	f5b1 6f80 	cmp.w	r1, #1024	; 0x400
 8004ad0:	d006      	beq.n	8004ae0 <_scanf_float+0x250>
 8004ad2:	0550      	lsls	r0, r2, #21
 8004ad4:	f57f af0c 	bpl.w	80048f0 <_scanf_float+0x60>
 8004ad8:	f1b9 0f00 	cmp.w	r9, #0
 8004adc:	f43f af0f 	beq.w	80048fe <_scanf_float+0x6e>
 8004ae0:	0591      	lsls	r1, r2, #22
 8004ae2:	bf58      	it	pl
 8004ae4:	9901      	ldrpl	r1, [sp, #4]
 8004ae6:	f422 62f0 	bic.w	r2, r2, #1920	; 0x780
 8004aea:	bf58      	it	pl
 8004aec:	eba9 0101 	subpl.w	r1, r9, r1
 8004af0:	f442 72c0 	orr.w	r2, r2, #384	; 0x180
 8004af4:	bf58      	it	pl
 8004af6:	e9cd 1604 	strdpl	r1, r6, [sp, #16]
 8004afa:	6022      	str	r2, [r4, #0]
 8004afc:	f04f 0900 	mov.w	r9, #0
 8004b00:	e78a      	b.n	8004a18 <_scanf_float+0x188>
 8004b02:	f04f 0a03 	mov.w	sl, #3
 8004b06:	e787      	b.n	8004a18 <_scanf_float+0x188>
 8004b08:	f8d4 3180 	ldr.w	r3, [r4, #384]	; 0x180
 8004b0c:	4639      	mov	r1, r7
 8004b0e:	4640      	mov	r0, r8
 8004b10:	4798      	blx	r3
 8004b12:	2800      	cmp	r0, #0
 8004b14:	f43f aedf 	beq.w	80048d6 <_scanf_float+0x46>
 8004b18:	e6ea      	b.n	80048f0 <_scanf_float+0x60>
 8004b1a:	f8d4 317c 	ldr.w	r3, [r4, #380]	; 0x17c
 8004b1e:	f816 1d01 	ldrb.w	r1, [r6, #-1]!
 8004b22:	463a      	mov	r2, r7
 8004b24:	4640      	mov	r0, r8
 8004b26:	4798      	blx	r3
 8004b28:	6923      	ldr	r3, [r4, #16]
 8004b2a:	3b01      	subs	r3, #1
 8004b2c:	6123      	str	r3, [r4, #16]
 8004b2e:	e6ec      	b.n	800490a <_scanf_float+0x7a>
 8004b30:	1e6b      	subs	r3, r5, #1
 8004b32:	2b06      	cmp	r3, #6
 8004b34:	d825      	bhi.n	8004b82 <_scanf_float+0x2f2>
 8004b36:	2d02      	cmp	r5, #2
 8004b38:	d836      	bhi.n	8004ba8 <_scanf_float+0x318>
 8004b3a:	455e      	cmp	r6, fp
 8004b3c:	f67f aee8 	bls.w	8004910 <_scanf_float+0x80>
 8004b40:	f8d4 317c 	ldr.w	r3, [r4, #380]	; 0x17c
 8004b44:	f816 1d01 	ldrb.w	r1, [r6, #-1]!
 8004b48:	463a      	mov	r2, r7
 8004b4a:	4640      	mov	r0, r8
 8004b4c:	4798      	blx	r3
 8004b4e:	6923      	ldr	r3, [r4, #16]
 8004b50:	3b01      	subs	r3, #1
 8004b52:	6123      	str	r3, [r4, #16]
 8004b54:	e7f1      	b.n	8004b3a <_scanf_float+0x2aa>
 8004b56:	9802      	ldr	r0, [sp, #8]
 8004b58:	f8d4 317c 	ldr.w	r3, [r4, #380]	; 0x17c
 8004b5c:	f810 1d01 	ldrb.w	r1, [r0, #-1]!
 8004b60:	9002      	str	r0, [sp, #8]
 8004b62:	463a      	mov	r2, r7
 8004b64:	4640      	mov	r0, r8
 8004b66:	4798      	blx	r3
 8004b68:	6923      	ldr	r3, [r4, #16]
 8004b6a:	3b01      	subs	r3, #1
 8004b6c:	6123      	str	r3, [r4, #16]
 8004b6e:	f10a 3aff 	add.w	sl, sl, #4294967295
 8004b72:	fa5f fa8a 	uxtb.w	sl, sl
 8004b76:	f1ba 0f02 	cmp.w	sl, #2
 8004b7a:	d1ec      	bne.n	8004b56 <_scanf_float+0x2c6>
 8004b7c:	3d03      	subs	r5, #3
 8004b7e:	b2ed      	uxtb	r5, r5
 8004b80:	1b76      	subs	r6, r6, r5
 8004b82:	6823      	ldr	r3, [r4, #0]
 8004b84:	05da      	lsls	r2, r3, #23
 8004b86:	d52f      	bpl.n	8004be8 <_scanf_float+0x358>
 8004b88:	055b      	lsls	r3, r3, #21
 8004b8a:	d510      	bpl.n	8004bae <_scanf_float+0x31e>
 8004b8c:	455e      	cmp	r6, fp
 8004b8e:	f67f aebf 	bls.w	8004910 <_scanf_float+0x80>
 8004b92:	f8d4 317c 	ldr.w	r3, [r4, #380]	; 0x17c
 8004b96:	f816 1d01 	ldrb.w	r1, [r6, #-1]!
 8004b9a:	463a      	mov	r2, r7
 8004b9c:	4640      	mov	r0, r8
 8004b9e:	4798      	blx	r3
 8004ba0:	6923      	ldr	r3, [r4, #16]
 8004ba2:	3b01      	subs	r3, #1
 8004ba4:	6123      	str	r3, [r4, #16]
 8004ba6:	e7f1      	b.n	8004b8c <_scanf_float+0x2fc>
 8004ba8:	46aa      	mov	sl, r5
 8004baa:	9602      	str	r6, [sp, #8]
 8004bac:	e7df      	b.n	8004b6e <_scanf_float+0x2de>
 8004bae:	f816 1c01 	ldrb.w	r1, [r6, #-1]
 8004bb2:	6923      	ldr	r3, [r4, #16]
 8004bb4:	2965      	cmp	r1, #101	; 0x65
 8004bb6:	f103 33ff 	add.w	r3, r3, #4294967295
 8004bba:	f106 35ff 	add.w	r5, r6, #4294967295
 8004bbe:	6123      	str	r3, [r4, #16]
 8004bc0:	d00c      	beq.n	8004bdc <_scanf_float+0x34c>
 8004bc2:	2945      	cmp	r1, #69	; 0x45
 8004bc4:	d00a      	beq.n	8004bdc <_scanf_float+0x34c>
 8004bc6:	f8d4 317c 	ldr.w	r3, [r4, #380]	; 0x17c
 8004bca:	463a      	mov	r2, r7
 8004bcc:	4640      	mov	r0, r8
 8004bce:	4798      	blx	r3
 8004bd0:	6923      	ldr	r3, [r4, #16]
 8004bd2:	f816 1c02 	ldrb.w	r1, [r6, #-2]
 8004bd6:	3b01      	subs	r3, #1
 8004bd8:	1eb5      	subs	r5, r6, #2
 8004bda:	6123      	str	r3, [r4, #16]
 8004bdc:	f8d4 317c 	ldr.w	r3, [r4, #380]	; 0x17c
 8004be0:	463a      	mov	r2, r7
 8004be2:	4640      	mov	r0, r8
 8004be4:	4798      	blx	r3
 8004be6:	462e      	mov	r6, r5
 8004be8:	6825      	ldr	r5, [r4, #0]
 8004bea:	f015 0510 	ands.w	r5, r5, #16
 8004bee:	d159      	bne.n	8004ca4 <_scanf_float+0x414>
 8004bf0:	7035      	strb	r5, [r6, #0]
 8004bf2:	6823      	ldr	r3, [r4, #0]
 8004bf4:	f403 63c0 	and.w	r3, r3, #1536	; 0x600
 8004bf8:	f5b3 6f80 	cmp.w	r3, #1024	; 0x400
 8004bfc:	d11b      	bne.n	8004c36 <_scanf_float+0x3a6>
 8004bfe:	9b01      	ldr	r3, [sp, #4]
 8004c00:	454b      	cmp	r3, r9
 8004c02:	eba3 0209 	sub.w	r2, r3, r9
 8004c06:	d123      	bne.n	8004c50 <_scanf_float+0x3c0>
 8004c08:	2200      	movs	r2, #0
 8004c0a:	4659      	mov	r1, fp
 8004c0c:	4640      	mov	r0, r8
 8004c0e:	f000 ff29 	bl	8005a64 <_strtod_r>
 8004c12:	6822      	ldr	r2, [r4, #0]
 8004c14:	9b03      	ldr	r3, [sp, #12]
 8004c16:	f012 0f02 	tst.w	r2, #2
 8004c1a:	ec57 6b10 	vmov	r6, r7, d0
 8004c1e:	681b      	ldr	r3, [r3, #0]
 8004c20:	d021      	beq.n	8004c66 <_scanf_float+0x3d6>
 8004c22:	9903      	ldr	r1, [sp, #12]
 8004c24:	1d1a      	adds	r2, r3, #4
 8004c26:	600a      	str	r2, [r1, #0]
 8004c28:	681b      	ldr	r3, [r3, #0]
 8004c2a:	e9c3 6700 	strd	r6, r7, [r3]
 8004c2e:	68e3      	ldr	r3, [r4, #12]
 8004c30:	3301      	adds	r3, #1
 8004c32:	60e3      	str	r3, [r4, #12]
 8004c34:	e66d      	b.n	8004912 <_scanf_float+0x82>
 8004c36:	9b04      	ldr	r3, [sp, #16]
 8004c38:	2b00      	cmp	r3, #0
 8004c3a:	d0e5      	beq.n	8004c08 <_scanf_float+0x378>
 8004c3c:	9905      	ldr	r1, [sp, #20]
 8004c3e:	230a      	movs	r3, #10
 8004c40:	462a      	mov	r2, r5
 8004c42:	3101      	adds	r1, #1
 8004c44:	4640      	mov	r0, r8
 8004c46:	f000 ff95 	bl	8005b74 <_strtol_r>
 8004c4a:	9b04      	ldr	r3, [sp, #16]
 8004c4c:	9e05      	ldr	r6, [sp, #20]
 8004c4e:	1ac2      	subs	r2, r0, r3
 8004c50:	f204 136f 	addw	r3, r4, #367	; 0x16f
 8004c54:	429e      	cmp	r6, r3
 8004c56:	bf28      	it	cs
 8004c58:	f504 76b7 	addcs.w	r6, r4, #366	; 0x16e
 8004c5c:	4912      	ldr	r1, [pc, #72]	; (8004ca8 <_scanf_float+0x418>)
 8004c5e:	4630      	mov	r0, r6
 8004c60:	f000 f82c 	bl	8004cbc <siprintf>
 8004c64:	e7d0      	b.n	8004c08 <_scanf_float+0x378>
 8004c66:	9903      	ldr	r1, [sp, #12]
 8004c68:	f012 0f04 	tst.w	r2, #4
 8004c6c:	f103 0204 	add.w	r2, r3, #4
 8004c70:	600a      	str	r2, [r1, #0]
 8004c72:	d1d9      	bne.n	8004c28 <_scanf_float+0x398>
 8004c74:	f8d3 8000 	ldr.w	r8, [r3]
 8004c78:	ee10 2a10 	vmov	r2, s0
 8004c7c:	ee10 0a10 	vmov	r0, s0
 8004c80:	463b      	mov	r3, r7
 8004c82:	4639      	mov	r1, r7
 8004c84:	f7fb ff72 	bl	8000b6c <__aeabi_dcmpun>
 8004c88:	b128      	cbz	r0, 8004c96 <_scanf_float+0x406>
 8004c8a:	4808      	ldr	r0, [pc, #32]	; (8004cac <_scanf_float+0x41c>)
 8004c8c:	f000 f810 	bl	8004cb0 <nanf>
 8004c90:	ed88 0a00 	vstr	s0, [r8]
 8004c94:	e7cb      	b.n	8004c2e <_scanf_float+0x39e>
 8004c96:	4630      	mov	r0, r6
 8004c98:	4639      	mov	r1, r7
 8004c9a:	f7fb ffc5 	bl	8000c28 <__aeabi_d2f>
 8004c9e:	f8c8 0000 	str.w	r0, [r8]
 8004ca2:	e7c4      	b.n	8004c2e <_scanf_float+0x39e>
 8004ca4:	2500      	movs	r5, #0
 8004ca6:	e634      	b.n	8004912 <_scanf_float+0x82>
 8004ca8:	0800921e 	.word	0x0800921e
 8004cac:	08009643 	.word	0x08009643

08004cb0 <nanf>:
 8004cb0:	ed9f 0a01 	vldr	s0, [pc, #4]	; 8004cb8 <nanf+0x8>
 8004cb4:	4770      	bx	lr
 8004cb6:	bf00      	nop
 8004cb8:	7fc00000 	.word	0x7fc00000

08004cbc <siprintf>:
 8004cbc:	b40e      	push	{r1, r2, r3}
 8004cbe:	b500      	push	{lr}
 8004cc0:	b09c      	sub	sp, #112	; 0x70
 8004cc2:	ab1d      	add	r3, sp, #116	; 0x74
 8004cc4:	9002      	str	r0, [sp, #8]
 8004cc6:	9006      	str	r0, [sp, #24]
 8004cc8:	f06f 4100 	mvn.w	r1, #2147483648	; 0x80000000
 8004ccc:	4809      	ldr	r0, [pc, #36]	; (8004cf4 <siprintf+0x38>)
 8004cce:	9107      	str	r1, [sp, #28]
 8004cd0:	9104      	str	r1, [sp, #16]
 8004cd2:	4909      	ldr	r1, [pc, #36]	; (8004cf8 <siprintf+0x3c>)
 8004cd4:	f853 2b04 	ldr.w	r2, [r3], #4
 8004cd8:	9105      	str	r1, [sp, #20]
 8004cda:	6800      	ldr	r0, [r0, #0]
 8004cdc:	9301      	str	r3, [sp, #4]
 8004cde:	a902      	add	r1, sp, #8
 8004ce0:	f002 ffaa 	bl	8007c38 <_svfiprintf_r>
 8004ce4:	9b02      	ldr	r3, [sp, #8]
 8004ce6:	2200      	movs	r2, #0
 8004ce8:	701a      	strb	r2, [r3, #0]
 8004cea:	b01c      	add	sp, #112	; 0x70
 8004cec:	f85d eb04 	ldr.w	lr, [sp], #4
 8004cf0:	b003      	add	sp, #12
 8004cf2:	4770      	bx	lr
 8004cf4:	2000000c 	.word	0x2000000c
 8004cf8:	ffff0208 	.word	0xffff0208

08004cfc <siscanf>:
 8004cfc:	b40e      	push	{r1, r2, r3}
 8004cfe:	b510      	push	{r4, lr}
 8004d00:	b09f      	sub	sp, #124	; 0x7c
 8004d02:	ac21      	add	r4, sp, #132	; 0x84
 8004d04:	f44f 7101 	mov.w	r1, #516	; 0x204
 8004d08:	f854 2b04 	ldr.w	r2, [r4], #4
 8004d0c:	9201      	str	r2, [sp, #4]
 8004d0e:	f8ad 101c 	strh.w	r1, [sp, #28]
 8004d12:	9004      	str	r0, [sp, #16]
 8004d14:	9008      	str	r0, [sp, #32]
 8004d16:	f7fb fa7b 	bl	8000210 <strlen>
 8004d1a:	4b0c      	ldr	r3, [pc, #48]	; (8004d4c <siscanf+0x50>)
 8004d1c:	9005      	str	r0, [sp, #20]
 8004d1e:	9009      	str	r0, [sp, #36]	; 0x24
 8004d20:	930d      	str	r3, [sp, #52]	; 0x34
 8004d22:	480b      	ldr	r0, [pc, #44]	; (8004d50 <siscanf+0x54>)
 8004d24:	9a01      	ldr	r2, [sp, #4]
 8004d26:	6800      	ldr	r0, [r0, #0]
 8004d28:	9403      	str	r4, [sp, #12]
 8004d2a:	2300      	movs	r3, #0
 8004d2c:	9311      	str	r3, [sp, #68]	; 0x44
 8004d2e:	9316      	str	r3, [sp, #88]	; 0x58
 8004d30:	f64f 73ff 	movw	r3, #65535	; 0xffff
 8004d34:	f8ad 301e 	strh.w	r3, [sp, #30]
 8004d38:	a904      	add	r1, sp, #16
 8004d3a:	4623      	mov	r3, r4
 8004d3c:	f003 f8d6 	bl	8007eec <__ssvfiscanf_r>
 8004d40:	b01f      	add	sp, #124	; 0x7c
 8004d42:	e8bd 4010 	ldmia.w	sp!, {r4, lr}
 8004d46:	b003      	add	sp, #12
 8004d48:	4770      	bx	lr
 8004d4a:	bf00      	nop
 8004d4c:	08004d77 	.word	0x08004d77
 8004d50:	2000000c 	.word	0x2000000c

08004d54 <__sread>:
 8004d54:	b510      	push	{r4, lr}
 8004d56:	460c      	mov	r4, r1
 8004d58:	f9b1 100e 	ldrsh.w	r1, [r1, #14]
 8004d5c:	f003 fb90 	bl	8008480 <_read_r>
 8004d60:	2800      	cmp	r0, #0
 8004d62:	bfab      	itete	ge
 8004d64:	6d63      	ldrge	r3, [r4, #84]	; 0x54
 8004d66:	89a3      	ldrhlt	r3, [r4, #12]
 8004d68:	181b      	addge	r3, r3, r0
 8004d6a:	f423 5380 	biclt.w	r3, r3, #4096	; 0x1000
 8004d6e:	bfac      	ite	ge
 8004d70:	6563      	strge	r3, [r4, #84]	; 0x54
 8004d72:	81a3      	strhlt	r3, [r4, #12]
 8004d74:	bd10      	pop	{r4, pc}

08004d76 <__seofread>:
 8004d76:	2000      	movs	r0, #0
 8004d78:	4770      	bx	lr

08004d7a <__swrite>:
 8004d7a:	e92d 41f0 	stmdb	sp!, {r4, r5, r6, r7, r8, lr}
 8004d7e:	461f      	mov	r7, r3
 8004d80:	898b      	ldrh	r3, [r1, #12]
 8004d82:	05db      	lsls	r3, r3, #23
 8004d84:	4605      	mov	r5, r0
 8004d86:	460c      	mov	r4, r1
 8004d88:	4616      	mov	r6, r2
 8004d8a:	d505      	bpl.n	8004d98 <__swrite+0x1e>
 8004d8c:	f9b1 100e 	ldrsh.w	r1, [r1, #14]
 8004d90:	2302      	movs	r3, #2
 8004d92:	2200      	movs	r2, #0
 8004d94:	f002 f902 	bl	8006f9c <_lseek_r>
 8004d98:	89a3      	ldrh	r3, [r4, #12]
 8004d9a:	f9b4 100e 	ldrsh.w	r1, [r4, #14]
 8004d9e:	f423 5380 	bic.w	r3, r3, #4096	; 0x1000
 8004da2:	81a3      	strh	r3, [r4, #12]
 8004da4:	4632      	mov	r2, r6
 8004da6:	463b      	mov	r3, r7
 8004da8:	4628      	mov	r0, r5
 8004daa:	e8bd 41f0 	ldmia.w	sp!, {r4, r5, r6, r7, r8, lr}
 8004dae:	f000 bee3 	b.w	8005b78 <_write_r>

08004db2 <__sseek>:
 8004db2:	b510      	push	{r4, lr}
 8004db4:	460c      	mov	r4, r1
 8004db6:	f9b1 100e 	ldrsh.w	r1, [r1, #14]
 8004dba:	f002 f8ef 	bl	8006f9c <_lseek_r>
 8004dbe:	1c43      	adds	r3, r0, #1
 8004dc0:	89a3      	ldrh	r3, [r4, #12]
 8004dc2:	bf15      	itete	ne
 8004dc4:	6560      	strne	r0, [r4, #84]	; 0x54
 8004dc6:	f423 5380 	biceq.w	r3, r3, #4096	; 0x1000
 8004dca:	f443 5380 	orrne.w	r3, r3, #4096	; 0x1000
 8004dce:	81a3      	strheq	r3, [r4, #12]
 8004dd0:	bf18      	it	ne
 8004dd2:	81a3      	strhne	r3, [r4, #12]
 8004dd4:	bd10      	pop	{r4, pc}

08004dd6 <__sclose>:
 8004dd6:	f9b1 100e 	ldrsh.w	r1, [r1, #14]
 8004dda:	f000 bedf 	b.w	8005b9c <_close_r>

08004dde <strcpy>:
 8004dde:	4603      	mov	r3, r0
 8004de0:	f811 2b01 	ldrb.w	r2, [r1], #1
 8004de4:	f803 2b01 	strb.w	r2, [r3], #1
 8004de8:	2a00      	cmp	r2, #0
 8004dea:	d1f9      	bne.n	8004de0 <strcpy+0x2>
 8004dec:	4770      	bx	lr

08004dee <strstr>:
 8004dee:	780a      	ldrb	r2, [r1, #0]
 8004df0:	b570      	push	{r4, r5, r6, lr}
 8004df2:	b96a      	cbnz	r2, 8004e10 <strstr+0x22>
 8004df4:	bd70      	pop	{r4, r5, r6, pc}
 8004df6:	429a      	cmp	r2, r3
 8004df8:	d109      	bne.n	8004e0e <strstr+0x20>
 8004dfa:	460c      	mov	r4, r1
 8004dfc:	4605      	mov	r5, r0
 8004dfe:	f814 3f01 	ldrb.w	r3, [r4, #1]!
 8004e02:	2b00      	cmp	r3, #0
 8004e04:	d0f6      	beq.n	8004df4 <strstr+0x6>
 8004e06:	f815 6f01 	ldrb.w	r6, [r5, #1]!
 8004e0a:	429e      	cmp	r6, r3
 8004e0c:	d0f7      	beq.n	8004dfe <strstr+0x10>
 8004e0e:	3001      	adds	r0, #1
 8004e10:	7803      	ldrb	r3, [r0, #0]
 8004e12:	2b00      	cmp	r3, #0
 8004e14:	d1ef      	bne.n	8004df6 <strstr+0x8>
 8004e16:	4618      	mov	r0, r3
 8004e18:	e7ec      	b.n	8004df4 <strstr+0x6>

08004e1a <sulp>:
 8004e1a:	b570      	push	{r4, r5, r6, lr}
 8004e1c:	4604      	mov	r4, r0
 8004e1e:	460d      	mov	r5, r1
 8004e20:	ec45 4b10 	vmov	d0, r4, r5
 8004e24:	4616      	mov	r6, r2
 8004e26:	f002 fc65 	bl	80076f4 <__ulp>
 8004e2a:	ec51 0b10 	vmov	r0, r1, d0
 8004e2e:	b17e      	cbz	r6, 8004e50 <sulp+0x36>
 8004e30:	f3c5 530a 	ubfx	r3, r5, #20, #11
 8004e34:	f1c3 036b 	rsb	r3, r3, #107	; 0x6b
 8004e38:	2b00      	cmp	r3, #0
 8004e3a:	dd09      	ble.n	8004e50 <sulp+0x36>
 8004e3c:	051b      	lsls	r3, r3, #20
 8004e3e:	f103 557f 	add.w	r5, r3, #1069547520	; 0x3fc00000
 8004e42:	2400      	movs	r4, #0
 8004e44:	f505 1540 	add.w	r5, r5, #3145728	; 0x300000
 8004e48:	4622      	mov	r2, r4
 8004e4a:	462b      	mov	r3, r5
 8004e4c:	f7fb fbf4 	bl	8000638 <__aeabi_dmul>
 8004e50:	bd70      	pop	{r4, r5, r6, pc}
 8004e52:	0000      	movs	r0, r0
 8004e54:	0000      	movs	r0, r0
	...

08004e58 <_strtod_l>:
 8004e58:	e92d 4ff0 	stmdb	sp!, {r4, r5, r6, r7, r8, r9, sl, fp, lr}
 8004e5c:	ed2d 8b02 	vpush	{d8}
 8004e60:	b09d      	sub	sp, #116	; 0x74
 8004e62:	461f      	mov	r7, r3
 8004e64:	2300      	movs	r3, #0
 8004e66:	9318      	str	r3, [sp, #96]	; 0x60
 8004e68:	4ba2      	ldr	r3, [pc, #648]	; (80050f4 <_strtod_l+0x29c>)
 8004e6a:	9213      	str	r2, [sp, #76]	; 0x4c
 8004e6c:	681b      	ldr	r3, [r3, #0]
 8004e6e:	9305      	str	r3, [sp, #20]
 8004e70:	4604      	mov	r4, r0
 8004e72:	4618      	mov	r0, r3
 8004e74:	4688      	mov	r8, r1
 8004e76:	f7fb f9cb 	bl	8000210 <strlen>
 8004e7a:	f04f 0a00 	mov.w	sl, #0
 8004e7e:	4605      	mov	r5, r0
 8004e80:	f04f 0b00 	mov.w	fp, #0
 8004e84:	f8cd 805c 	str.w	r8, [sp, #92]	; 0x5c
 8004e88:	9b17      	ldr	r3, [sp, #92]	; 0x5c
 8004e8a:	781a      	ldrb	r2, [r3, #0]
 8004e8c:	2a2b      	cmp	r2, #43	; 0x2b
 8004e8e:	d04e      	beq.n	8004f2e <_strtod_l+0xd6>
 8004e90:	d83b      	bhi.n	8004f0a <_strtod_l+0xb2>
 8004e92:	2a0d      	cmp	r2, #13
 8004e94:	d834      	bhi.n	8004f00 <_strtod_l+0xa8>
 8004e96:	2a08      	cmp	r2, #8
 8004e98:	d834      	bhi.n	8004f04 <_strtod_l+0xac>
 8004e9a:	2a00      	cmp	r2, #0
 8004e9c:	d03e      	beq.n	8004f1c <_strtod_l+0xc4>
 8004e9e:	2300      	movs	r3, #0
 8004ea0:	930a      	str	r3, [sp, #40]	; 0x28
 8004ea2:	9e17      	ldr	r6, [sp, #92]	; 0x5c
 8004ea4:	7833      	ldrb	r3, [r6, #0]
 8004ea6:	2b30      	cmp	r3, #48	; 0x30
 8004ea8:	f040 80b0 	bne.w	800500c <_strtod_l+0x1b4>
 8004eac:	7873      	ldrb	r3, [r6, #1]
 8004eae:	f003 03df 	and.w	r3, r3, #223	; 0xdf
 8004eb2:	2b58      	cmp	r3, #88	; 0x58
 8004eb4:	d168      	bne.n	8004f88 <_strtod_l+0x130>
 8004eb6:	9b0a      	ldr	r3, [sp, #40]	; 0x28
 8004eb8:	9301      	str	r3, [sp, #4]
 8004eba:	ab18      	add	r3, sp, #96	; 0x60
 8004ebc:	9702      	str	r7, [sp, #8]
 8004ebe:	9300      	str	r3, [sp, #0]
 8004ec0:	4a8d      	ldr	r2, [pc, #564]	; (80050f8 <_strtod_l+0x2a0>)
 8004ec2:	ab19      	add	r3, sp, #100	; 0x64
 8004ec4:	a917      	add	r1, sp, #92	; 0x5c
 8004ec6:	4620      	mov	r0, r4
 8004ec8:	f001 fd5c 	bl	8006984 <__gethex>
 8004ecc:	f010 0707 	ands.w	r7, r0, #7
 8004ed0:	4605      	mov	r5, r0
 8004ed2:	d005      	beq.n	8004ee0 <_strtod_l+0x88>
 8004ed4:	2f06      	cmp	r7, #6
 8004ed6:	d12c      	bne.n	8004f32 <_strtod_l+0xda>
 8004ed8:	3601      	adds	r6, #1
 8004eda:	2300      	movs	r3, #0
 8004edc:	9617      	str	r6, [sp, #92]	; 0x5c
 8004ede:	930a      	str	r3, [sp, #40]	; 0x28
 8004ee0:	9b13      	ldr	r3, [sp, #76]	; 0x4c
 8004ee2:	2b00      	cmp	r3, #0
 8004ee4:	f040 8590 	bne.w	8005a08 <_strtod_l+0xbb0>
 8004ee8:	9b0a      	ldr	r3, [sp, #40]	; 0x28
 8004eea:	b1eb      	cbz	r3, 8004f28 <_strtod_l+0xd0>
 8004eec:	4652      	mov	r2, sl
 8004eee:	f10b 4300 	add.w	r3, fp, #2147483648	; 0x80000000
 8004ef2:	ec43 2b10 	vmov	d0, r2, r3
 8004ef6:	b01d      	add	sp, #116	; 0x74
 8004ef8:	ecbd 8b02 	vpop	{d8}
 8004efc:	e8bd 8ff0 	ldmia.w	sp!, {r4, r5, r6, r7, r8, r9, sl, fp, pc}
 8004f00:	2a20      	cmp	r2, #32
 8004f02:	d1cc      	bne.n	8004e9e <_strtod_l+0x46>
 8004f04:	3301      	adds	r3, #1
 8004f06:	9317      	str	r3, [sp, #92]	; 0x5c
 8004f08:	e7be      	b.n	8004e88 <_strtod_l+0x30>
 8004f0a:	2a2d      	cmp	r2, #45	; 0x2d
 8004f0c:	d1c7      	bne.n	8004e9e <_strtod_l+0x46>
 8004f0e:	2201      	movs	r2, #1
 8004f10:	920a      	str	r2, [sp, #40]	; 0x28
 8004f12:	1c5a      	adds	r2, r3, #1
 8004f14:	9217      	str	r2, [sp, #92]	; 0x5c
 8004f16:	785b      	ldrb	r3, [r3, #1]
 8004f18:	2b00      	cmp	r3, #0
 8004f1a:	d1c2      	bne.n	8004ea2 <_strtod_l+0x4a>
 8004f1c:	9b13      	ldr	r3, [sp, #76]	; 0x4c
 8004f1e:	f8cd 805c 	str.w	r8, [sp, #92]	; 0x5c
 8004f22:	2b00      	cmp	r3, #0
 8004f24:	f040 856e 	bne.w	8005a04 <_strtod_l+0xbac>
 8004f28:	4652      	mov	r2, sl
 8004f2a:	465b      	mov	r3, fp
 8004f2c:	e7e1      	b.n	8004ef2 <_strtod_l+0x9a>
 8004f2e:	2200      	movs	r2, #0
 8004f30:	e7ee      	b.n	8004f10 <_strtod_l+0xb8>
 8004f32:	9a18      	ldr	r2, [sp, #96]	; 0x60
 8004f34:	b13a      	cbz	r2, 8004f46 <_strtod_l+0xee>
 8004f36:	2135      	movs	r1, #53	; 0x35
 8004f38:	a81a      	add	r0, sp, #104	; 0x68
 8004f3a:	f002 fce6 	bl	800790a <__copybits>
 8004f3e:	9918      	ldr	r1, [sp, #96]	; 0x60
 8004f40:	4620      	mov	r0, r4
 8004f42:	f002 f8a5 	bl	8007090 <_Bfree>
 8004f46:	3f01      	subs	r7, #1
 8004f48:	2f04      	cmp	r7, #4
 8004f4a:	d806      	bhi.n	8004f5a <_strtod_l+0x102>
 8004f4c:	e8df f007 	tbb	[pc, r7]
 8004f50:	1714030a 	.word	0x1714030a
 8004f54:	0a          	.byte	0x0a
 8004f55:	00          	.byte	0x00
 8004f56:	e9dd ab1a 	ldrd	sl, fp, [sp, #104]	; 0x68
 8004f5a:	0728      	lsls	r0, r5, #28
 8004f5c:	d5c0      	bpl.n	8004ee0 <_strtod_l+0x88>
 8004f5e:	f04b 4b00 	orr.w	fp, fp, #2147483648	; 0x80000000
 8004f62:	e7bd      	b.n	8004ee0 <_strtod_l+0x88>
 8004f64:	e9dd a31a 	ldrd	sl, r3, [sp, #104]	; 0x68
 8004f68:	9a19      	ldr	r2, [sp, #100]	; 0x64
 8004f6a:	f423 1380 	bic.w	r3, r3, #1048576	; 0x100000
 8004f6e:	f202 4233 	addw	r2, r2, #1075	; 0x433
 8004f72:	ea43 5b02 	orr.w	fp, r3, r2, lsl #20
 8004f76:	e7f0      	b.n	8004f5a <_strtod_l+0x102>
 8004f78:	f8df b180 	ldr.w	fp, [pc, #384]	; 80050fc <_strtod_l+0x2a4>
 8004f7c:	e7ed      	b.n	8004f5a <_strtod_l+0x102>
 8004f7e:	f06f 4b00 	mvn.w	fp, #2147483648	; 0x80000000
 8004f82:	f04f 3aff 	mov.w	sl, #4294967295
 8004f86:	e7e8      	b.n	8004f5a <_strtod_l+0x102>
 8004f88:	9b17      	ldr	r3, [sp, #92]	; 0x5c
 8004f8a:	1c5a      	adds	r2, r3, #1
 8004f8c:	9217      	str	r2, [sp, #92]	; 0x5c
 8004f8e:	785b      	ldrb	r3, [r3, #1]
 8004f90:	2b30      	cmp	r3, #48	; 0x30
 8004f92:	d0f9      	beq.n	8004f88 <_strtod_l+0x130>
 8004f94:	2b00      	cmp	r3, #0
 8004f96:	d0a3      	beq.n	8004ee0 <_strtod_l+0x88>
 8004f98:	2301      	movs	r3, #1
 8004f9a:	f04f 0900 	mov.w	r9, #0
 8004f9e:	9304      	str	r3, [sp, #16]
 8004fa0:	9b17      	ldr	r3, [sp, #92]	; 0x5c
 8004fa2:	9308      	str	r3, [sp, #32]
 8004fa4:	f8cd 901c 	str.w	r9, [sp, #28]
 8004fa8:	464f      	mov	r7, r9
 8004faa:	220a      	movs	r2, #10
 8004fac:	9817      	ldr	r0, [sp, #92]	; 0x5c
 8004fae:	7806      	ldrb	r6, [r0, #0]
 8004fb0:	f1a6 0330 	sub.w	r3, r6, #48	; 0x30
 8004fb4:	b2d9      	uxtb	r1, r3
 8004fb6:	2909      	cmp	r1, #9
 8004fb8:	d92a      	bls.n	8005010 <_strtod_l+0x1b8>
 8004fba:	9905      	ldr	r1, [sp, #20]
 8004fbc:	462a      	mov	r2, r5
 8004fbe:	f003 fac3 	bl	8008548 <strncmp>
 8004fc2:	b398      	cbz	r0, 800502c <_strtod_l+0x1d4>
 8004fc4:	2000      	movs	r0, #0
 8004fc6:	4632      	mov	r2, r6
 8004fc8:	463d      	mov	r5, r7
 8004fca:	9005      	str	r0, [sp, #20]
 8004fcc:	4603      	mov	r3, r0
 8004fce:	2a65      	cmp	r2, #101	; 0x65
 8004fd0:	d001      	beq.n	8004fd6 <_strtod_l+0x17e>
 8004fd2:	2a45      	cmp	r2, #69	; 0x45
 8004fd4:	d118      	bne.n	8005008 <_strtod_l+0x1b0>
 8004fd6:	b91d      	cbnz	r5, 8004fe0 <_strtod_l+0x188>
 8004fd8:	9a04      	ldr	r2, [sp, #16]
 8004fda:	4302      	orrs	r2, r0
 8004fdc:	d09e      	beq.n	8004f1c <_strtod_l+0xc4>
 8004fde:	2500      	movs	r5, #0
 8004fe0:	f8dd 805c 	ldr.w	r8, [sp, #92]	; 0x5c
 8004fe4:	f108 0201 	add.w	r2, r8, #1
 8004fe8:	9217      	str	r2, [sp, #92]	; 0x5c
 8004fea:	f898 2001 	ldrb.w	r2, [r8, #1]
 8004fee:	2a2b      	cmp	r2, #43	; 0x2b
 8004ff0:	d075      	beq.n	80050de <_strtod_l+0x286>
 8004ff2:	2a2d      	cmp	r2, #45	; 0x2d
 8004ff4:	d07b      	beq.n	80050ee <_strtod_l+0x296>
 8004ff6:	f04f 0c00 	mov.w	ip, #0
 8004ffa:	f1a2 0130 	sub.w	r1, r2, #48	; 0x30
 8004ffe:	2909      	cmp	r1, #9
 8005000:	f240 8082 	bls.w	8005108 <_strtod_l+0x2b0>
 8005004:	f8cd 805c 	str.w	r8, [sp, #92]	; 0x5c
 8005008:	2600      	movs	r6, #0
 800500a:	e09d      	b.n	8005148 <_strtod_l+0x2f0>
 800500c:	2300      	movs	r3, #0
 800500e:	e7c4      	b.n	8004f9a <_strtod_l+0x142>
 8005010:	2f08      	cmp	r7, #8
 8005012:	bfd8      	it	le
 8005014:	9907      	ldrle	r1, [sp, #28]
 8005016:	f100 0001 	add.w	r0, r0, #1
 800501a:	bfda      	itte	le
 800501c:	fb02 3301 	mlale	r3, r2, r1, r3
 8005020:	9307      	strle	r3, [sp, #28]
 8005022:	fb02 3909 	mlagt	r9, r2, r9, r3
 8005026:	3701      	adds	r7, #1
 8005028:	9017      	str	r0, [sp, #92]	; 0x5c
 800502a:	e7bf      	b.n	8004fac <_strtod_l+0x154>
 800502c:	9b17      	ldr	r3, [sp, #92]	; 0x5c
 800502e:	195a      	adds	r2, r3, r5
 8005030:	9217      	str	r2, [sp, #92]	; 0x5c
 8005032:	5d5a      	ldrb	r2, [r3, r5]
 8005034:	2f00      	cmp	r7, #0
 8005036:	d037      	beq.n	80050a8 <_strtod_l+0x250>
 8005038:	9005      	str	r0, [sp, #20]
 800503a:	463d      	mov	r5, r7
 800503c:	f1a2 0330 	sub.w	r3, r2, #48	; 0x30
 8005040:	2b09      	cmp	r3, #9
 8005042:	d912      	bls.n	800506a <_strtod_l+0x212>
 8005044:	2301      	movs	r3, #1
 8005046:	e7c2      	b.n	8004fce <_strtod_l+0x176>
 8005048:	9b17      	ldr	r3, [sp, #92]	; 0x5c
 800504a:	1c5a      	adds	r2, r3, #1
 800504c:	9217      	str	r2, [sp, #92]	; 0x5c
 800504e:	785a      	ldrb	r2, [r3, #1]
 8005050:	3001      	adds	r0, #1
 8005052:	2a30      	cmp	r2, #48	; 0x30
 8005054:	d0f8      	beq.n	8005048 <_strtod_l+0x1f0>
 8005056:	f1a2 0331 	sub.w	r3, r2, #49	; 0x31
 800505a:	2b08      	cmp	r3, #8
 800505c:	f200 84d9 	bhi.w	8005a12 <_strtod_l+0xbba>
 8005060:	9b17      	ldr	r3, [sp, #92]	; 0x5c
 8005062:	9005      	str	r0, [sp, #20]
 8005064:	2000      	movs	r0, #0
 8005066:	9308      	str	r3, [sp, #32]
 8005068:	4605      	mov	r5, r0
 800506a:	3a30      	subs	r2, #48	; 0x30
 800506c:	f100 0301 	add.w	r3, r0, #1
 8005070:	d014      	beq.n	800509c <_strtod_l+0x244>
 8005072:	9905      	ldr	r1, [sp, #20]
 8005074:	4419      	add	r1, r3
 8005076:	9105      	str	r1, [sp, #20]
 8005078:	462b      	mov	r3, r5
 800507a:	eb00 0e05 	add.w	lr, r0, r5
 800507e:	210a      	movs	r1, #10
 8005080:	4573      	cmp	r3, lr
 8005082:	d113      	bne.n	80050ac <_strtod_l+0x254>
 8005084:	182b      	adds	r3, r5, r0
 8005086:	2b08      	cmp	r3, #8
 8005088:	f105 0501 	add.w	r5, r5, #1
 800508c:	4405      	add	r5, r0
 800508e:	dc1c      	bgt.n	80050ca <_strtod_l+0x272>
 8005090:	9907      	ldr	r1, [sp, #28]
 8005092:	230a      	movs	r3, #10
 8005094:	fb03 2301 	mla	r3, r3, r1, r2
 8005098:	9307      	str	r3, [sp, #28]
 800509a:	2300      	movs	r3, #0
 800509c:	9a17      	ldr	r2, [sp, #92]	; 0x5c
 800509e:	1c51      	adds	r1, r2, #1
 80050a0:	9117      	str	r1, [sp, #92]	; 0x5c
 80050a2:	7852      	ldrb	r2, [r2, #1]
 80050a4:	4618      	mov	r0, r3
 80050a6:	e7c9      	b.n	800503c <_strtod_l+0x1e4>
 80050a8:	4638      	mov	r0, r7
 80050aa:	e7d2      	b.n	8005052 <_strtod_l+0x1fa>
 80050ac:	2b08      	cmp	r3, #8
 80050ae:	dc04      	bgt.n	80050ba <_strtod_l+0x262>
 80050b0:	9e07      	ldr	r6, [sp, #28]
 80050b2:	434e      	muls	r6, r1
 80050b4:	9607      	str	r6, [sp, #28]
 80050b6:	3301      	adds	r3, #1
 80050b8:	e7e2      	b.n	8005080 <_strtod_l+0x228>
 80050ba:	f103 0c01 	add.w	ip, r3, #1
 80050be:	f1bc 0f10 	cmp.w	ip, #16
 80050c2:	bfd8      	it	le
 80050c4:	fb01 f909 	mulle.w	r9, r1, r9
 80050c8:	e7f5      	b.n	80050b6 <_strtod_l+0x25e>
 80050ca:	2d10      	cmp	r5, #16
 80050cc:	bfdc      	itt	le
 80050ce:	230a      	movle	r3, #10
 80050d0:	fb03 2909 	mlale	r9, r3, r9, r2
 80050d4:	e7e1      	b.n	800509a <_strtod_l+0x242>
 80050d6:	2300      	movs	r3, #0
 80050d8:	9305      	str	r3, [sp, #20]
 80050da:	2301      	movs	r3, #1
 80050dc:	e77c      	b.n	8004fd8 <_strtod_l+0x180>
 80050de:	f04f 0c00 	mov.w	ip, #0
 80050e2:	f108 0202 	add.w	r2, r8, #2
 80050e6:	9217      	str	r2, [sp, #92]	; 0x5c
 80050e8:	f898 2002 	ldrb.w	r2, [r8, #2]
 80050ec:	e785      	b.n	8004ffa <_strtod_l+0x1a2>
 80050ee:	f04f 0c01 	mov.w	ip, #1
 80050f2:	e7f6      	b.n	80050e2 <_strtod_l+0x28a>
 80050f4:	08009470 	.word	0x08009470
 80050f8:	08009224 	.word	0x08009224
 80050fc:	7ff00000 	.word	0x7ff00000
 8005100:	9a17      	ldr	r2, [sp, #92]	; 0x5c
 8005102:	1c51      	adds	r1, r2, #1
 8005104:	9117      	str	r1, [sp, #92]	; 0x5c
 8005106:	7852      	ldrb	r2, [r2, #1]
 8005108:	2a30      	cmp	r2, #48	; 0x30
 800510a:	d0f9      	beq.n	8005100 <_strtod_l+0x2a8>
 800510c:	f1a2 0131 	sub.w	r1, r2, #49	; 0x31
 8005110:	2908      	cmp	r1, #8
 8005112:	f63f af79 	bhi.w	8005008 <_strtod_l+0x1b0>
 8005116:	f1a2 0e30 	sub.w	lr, r2, #48	; 0x30
 800511a:	9a17      	ldr	r2, [sp, #92]	; 0x5c
 800511c:	9206      	str	r2, [sp, #24]
 800511e:	9a17      	ldr	r2, [sp, #92]	; 0x5c
 8005120:	1c51      	adds	r1, r2, #1
 8005122:	9117      	str	r1, [sp, #92]	; 0x5c
 8005124:	7852      	ldrb	r2, [r2, #1]
 8005126:	f1a2 0630 	sub.w	r6, r2, #48	; 0x30
 800512a:	2e09      	cmp	r6, #9
 800512c:	d937      	bls.n	800519e <_strtod_l+0x346>
 800512e:	9e06      	ldr	r6, [sp, #24]
 8005130:	1b89      	subs	r1, r1, r6
 8005132:	2908      	cmp	r1, #8
 8005134:	f644 661f 	movw	r6, #19999	; 0x4e1f
 8005138:	dc02      	bgt.n	8005140 <_strtod_l+0x2e8>
 800513a:	4576      	cmp	r6, lr
 800513c:	bfa8      	it	ge
 800513e:	4676      	movge	r6, lr
 8005140:	f1bc 0f00 	cmp.w	ip, #0
 8005144:	d000      	beq.n	8005148 <_strtod_l+0x2f0>
 8005146:	4276      	negs	r6, r6
 8005148:	2d00      	cmp	r5, #0
 800514a:	d14d      	bne.n	80051e8 <_strtod_l+0x390>
 800514c:	9904      	ldr	r1, [sp, #16]
 800514e:	4301      	orrs	r1, r0
 8005150:	f47f aec6 	bne.w	8004ee0 <_strtod_l+0x88>
 8005154:	2b00      	cmp	r3, #0
 8005156:	f47f aee1 	bne.w	8004f1c <_strtod_l+0xc4>
 800515a:	2a69      	cmp	r2, #105	; 0x69
 800515c:	d027      	beq.n	80051ae <_strtod_l+0x356>
 800515e:	dc24      	bgt.n	80051aa <_strtod_l+0x352>
 8005160:	2a49      	cmp	r2, #73	; 0x49
 8005162:	d024      	beq.n	80051ae <_strtod_l+0x356>
 8005164:	2a4e      	cmp	r2, #78	; 0x4e
 8005166:	f47f aed9 	bne.w	8004f1c <_strtod_l+0xc4>
 800516a:	499f      	ldr	r1, [pc, #636]	; (80053e8 <_strtod_l+0x590>)
 800516c:	a817      	add	r0, sp, #92	; 0x5c
 800516e:	f001 fe61 	bl	8006e34 <__match>
 8005172:	2800      	cmp	r0, #0
 8005174:	f43f aed2 	beq.w	8004f1c <_strtod_l+0xc4>
 8005178:	9b17      	ldr	r3, [sp, #92]	; 0x5c
 800517a:	781b      	ldrb	r3, [r3, #0]
 800517c:	2b28      	cmp	r3, #40	; 0x28
 800517e:	d12d      	bne.n	80051dc <_strtod_l+0x384>
 8005180:	499a      	ldr	r1, [pc, #616]	; (80053ec <_strtod_l+0x594>)
 8005182:	aa1a      	add	r2, sp, #104	; 0x68
 8005184:	a817      	add	r0, sp, #92	; 0x5c
 8005186:	f001 fe69 	bl	8006e5c <__hexnan>
 800518a:	2805      	cmp	r0, #5
 800518c:	d126      	bne.n	80051dc <_strtod_l+0x384>
 800518e:	9b1b      	ldr	r3, [sp, #108]	; 0x6c
 8005190:	f8dd a068 	ldr.w	sl, [sp, #104]	; 0x68
 8005194:	f043 4bff 	orr.w	fp, r3, #2139095040	; 0x7f800000
 8005198:	f44b 0be0 	orr.w	fp, fp, #7340032	; 0x700000
 800519c:	e6a0      	b.n	8004ee0 <_strtod_l+0x88>
 800519e:	210a      	movs	r1, #10
 80051a0:	fb01 2e0e 	mla	lr, r1, lr, r2
 80051a4:	f1ae 0e30 	sub.w	lr, lr, #48	; 0x30
 80051a8:	e7b9      	b.n	800511e <_strtod_l+0x2c6>
 80051aa:	2a6e      	cmp	r2, #110	; 0x6e
 80051ac:	e7db      	b.n	8005166 <_strtod_l+0x30e>
 80051ae:	4990      	ldr	r1, [pc, #576]	; (80053f0 <_strtod_l+0x598>)
 80051b0:	a817      	add	r0, sp, #92	; 0x5c
 80051b2:	f001 fe3f 	bl	8006e34 <__match>
 80051b6:	2800      	cmp	r0, #0
 80051b8:	f43f aeb0 	beq.w	8004f1c <_strtod_l+0xc4>
 80051bc:	9b17      	ldr	r3, [sp, #92]	; 0x5c
 80051be:	498d      	ldr	r1, [pc, #564]	; (80053f4 <_strtod_l+0x59c>)
 80051c0:	3b01      	subs	r3, #1
 80051c2:	a817      	add	r0, sp, #92	; 0x5c
 80051c4:	9317      	str	r3, [sp, #92]	; 0x5c
 80051c6:	f001 fe35 	bl	8006e34 <__match>
 80051ca:	b910      	cbnz	r0, 80051d2 <_strtod_l+0x37a>
 80051cc:	9b17      	ldr	r3, [sp, #92]	; 0x5c
 80051ce:	3301      	adds	r3, #1
 80051d0:	9317      	str	r3, [sp, #92]	; 0x5c
 80051d2:	f8df b230 	ldr.w	fp, [pc, #560]	; 8005404 <_strtod_l+0x5ac>
 80051d6:	f04f 0a00 	mov.w	sl, #0
 80051da:	e681      	b.n	8004ee0 <_strtod_l+0x88>
 80051dc:	4886      	ldr	r0, [pc, #536]	; (80053f8 <_strtod_l+0x5a0>)
 80051de:	f003 f963 	bl	80084a8 <nan>
 80051e2:	ec5b ab10 	vmov	sl, fp, d0
 80051e6:	e67b      	b.n	8004ee0 <_strtod_l+0x88>
 80051e8:	9b05      	ldr	r3, [sp, #20]
 80051ea:	9807      	ldr	r0, [sp, #28]
 80051ec:	1af3      	subs	r3, r6, r3
 80051ee:	2f00      	cmp	r7, #0
 80051f0:	bf08      	it	eq
 80051f2:	462f      	moveq	r7, r5
 80051f4:	2d10      	cmp	r5, #16
 80051f6:	9306      	str	r3, [sp, #24]
 80051f8:	46a8      	mov	r8, r5
 80051fa:	bfa8      	it	ge
 80051fc:	f04f 0810 	movge.w	r8, #16
 8005200:	f7fb f9a0 	bl	8000544 <__aeabi_ui2d>
 8005204:	2d09      	cmp	r5, #9
 8005206:	4682      	mov	sl, r0
 8005208:	468b      	mov	fp, r1
 800520a:	dd13      	ble.n	8005234 <_strtod_l+0x3dc>
 800520c:	4b7b      	ldr	r3, [pc, #492]	; (80053fc <_strtod_l+0x5a4>)
 800520e:	eb03 03c8 	add.w	r3, r3, r8, lsl #3
 8005212:	e953 2312 	ldrd	r2, r3, [r3, #-72]	; 0x48
 8005216:	f7fb fa0f 	bl	8000638 <__aeabi_dmul>
 800521a:	4682      	mov	sl, r0
 800521c:	4648      	mov	r0, r9
 800521e:	468b      	mov	fp, r1
 8005220:	f7fb f990 	bl	8000544 <__aeabi_ui2d>
 8005224:	4602      	mov	r2, r0
 8005226:	460b      	mov	r3, r1
 8005228:	4650      	mov	r0, sl
 800522a:	4659      	mov	r1, fp
 800522c:	f7fb f84e 	bl	80002cc <__adddf3>
 8005230:	4682      	mov	sl, r0
 8005232:	468b      	mov	fp, r1
 8005234:	2d0f      	cmp	r5, #15
 8005236:	dc38      	bgt.n	80052aa <_strtod_l+0x452>
 8005238:	9b06      	ldr	r3, [sp, #24]
 800523a:	2b00      	cmp	r3, #0
 800523c:	f43f ae50 	beq.w	8004ee0 <_strtod_l+0x88>
 8005240:	dd24      	ble.n	800528c <_strtod_l+0x434>
 8005242:	2b16      	cmp	r3, #22
 8005244:	dc0b      	bgt.n	800525e <_strtod_l+0x406>
 8005246:	496d      	ldr	r1, [pc, #436]	; (80053fc <_strtod_l+0x5a4>)
 8005248:	eb01 01c3 	add.w	r1, r1, r3, lsl #3
 800524c:	e9d1 0100 	ldrd	r0, r1, [r1]
 8005250:	4652      	mov	r2, sl
 8005252:	465b      	mov	r3, fp
 8005254:	f7fb f9f0 	bl	8000638 <__aeabi_dmul>
 8005258:	4682      	mov	sl, r0
 800525a:	468b      	mov	fp, r1
 800525c:	e640      	b.n	8004ee0 <_strtod_l+0x88>
 800525e:	9a06      	ldr	r2, [sp, #24]
 8005260:	f1c5 0325 	rsb	r3, r5, #37	; 0x25
 8005264:	4293      	cmp	r3, r2
 8005266:	db20      	blt.n	80052aa <_strtod_l+0x452>
 8005268:	4c64      	ldr	r4, [pc, #400]	; (80053fc <_strtod_l+0x5a4>)
 800526a:	f1c5 050f 	rsb	r5, r5, #15
 800526e:	eb04 01c5 	add.w	r1, r4, r5, lsl #3
 8005272:	4652      	mov	r2, sl
 8005274:	465b      	mov	r3, fp
 8005276:	e9d1 0100 	ldrd	r0, r1, [r1]
 800527a:	f7fb f9dd 	bl	8000638 <__aeabi_dmul>
 800527e:	9b06      	ldr	r3, [sp, #24]
 8005280:	1b5d      	subs	r5, r3, r5
 8005282:	eb04 04c5 	add.w	r4, r4, r5, lsl #3
 8005286:	e9d4 2300 	ldrd	r2, r3, [r4]
 800528a:	e7e3      	b.n	8005254 <_strtod_l+0x3fc>
 800528c:	9b06      	ldr	r3, [sp, #24]
 800528e:	3316      	adds	r3, #22
 8005290:	db0b      	blt.n	80052aa <_strtod_l+0x452>
 8005292:	9b05      	ldr	r3, [sp, #20]
 8005294:	1b9e      	subs	r6, r3, r6
 8005296:	4b59      	ldr	r3, [pc, #356]	; (80053fc <_strtod_l+0x5a4>)
 8005298:	eb03 06c6 	add.w	r6, r3, r6, lsl #3
 800529c:	e9d6 2300 	ldrd	r2, r3, [r6]
 80052a0:	4650      	mov	r0, sl
 80052a2:	4659      	mov	r1, fp
 80052a4:	f7fb faf2 	bl	800088c <__aeabi_ddiv>
 80052a8:	e7d6      	b.n	8005258 <_strtod_l+0x400>
 80052aa:	9b06      	ldr	r3, [sp, #24]
 80052ac:	eba5 0808 	sub.w	r8, r5, r8
 80052b0:	4498      	add	r8, r3
 80052b2:	f1b8 0f00 	cmp.w	r8, #0
 80052b6:	dd74      	ble.n	80053a2 <_strtod_l+0x54a>
 80052b8:	f018 030f 	ands.w	r3, r8, #15
 80052bc:	d00a      	beq.n	80052d4 <_strtod_l+0x47c>
 80052be:	494f      	ldr	r1, [pc, #316]	; (80053fc <_strtod_l+0x5a4>)
 80052c0:	eb01 01c3 	add.w	r1, r1, r3, lsl #3
 80052c4:	4652      	mov	r2, sl
 80052c6:	465b      	mov	r3, fp
 80052c8:	e9d1 0100 	ldrd	r0, r1, [r1]
 80052cc:	f7fb f9b4 	bl	8000638 <__aeabi_dmul>
 80052d0:	4682      	mov	sl, r0
 80052d2:	468b      	mov	fp, r1
 80052d4:	f038 080f 	bics.w	r8, r8, #15
 80052d8:	d04f      	beq.n	800537a <_strtod_l+0x522>
 80052da:	f5b8 7f9a 	cmp.w	r8, #308	; 0x134
 80052de:	dd22      	ble.n	8005326 <_strtod_l+0x4ce>
 80052e0:	2500      	movs	r5, #0
 80052e2:	462e      	mov	r6, r5
 80052e4:	9507      	str	r5, [sp, #28]
 80052e6:	9505      	str	r5, [sp, #20]
 80052e8:	2322      	movs	r3, #34	; 0x22
 80052ea:	f8df b118 	ldr.w	fp, [pc, #280]	; 8005404 <_strtod_l+0x5ac>
 80052ee:	6023      	str	r3, [r4, #0]
 80052f0:	f04f 0a00 	mov.w	sl, #0
 80052f4:	9b07      	ldr	r3, [sp, #28]
 80052f6:	2b00      	cmp	r3, #0
 80052f8:	f43f adf2 	beq.w	8004ee0 <_strtod_l+0x88>
 80052fc:	9918      	ldr	r1, [sp, #96]	; 0x60
 80052fe:	4620      	mov	r0, r4
 8005300:	f001 fec6 	bl	8007090 <_Bfree>
 8005304:	9905      	ldr	r1, [sp, #20]
 8005306:	4620      	mov	r0, r4
 8005308:	f001 fec2 	bl	8007090 <_Bfree>
 800530c:	4631      	mov	r1, r6
 800530e:	4620      	mov	r0, r4
 8005310:	f001 febe 	bl	8007090 <_Bfree>
 8005314:	9907      	ldr	r1, [sp, #28]
 8005316:	4620      	mov	r0, r4
 8005318:	f001 feba 	bl	8007090 <_Bfree>
 800531c:	4629      	mov	r1, r5
 800531e:	4620      	mov	r0, r4
 8005320:	f001 feb6 	bl	8007090 <_Bfree>
 8005324:	e5dc      	b.n	8004ee0 <_strtod_l+0x88>
 8005326:	4b36      	ldr	r3, [pc, #216]	; (8005400 <_strtod_l+0x5a8>)
 8005328:	9304      	str	r3, [sp, #16]
 800532a:	2300      	movs	r3, #0
 800532c:	ea4f 1828 	mov.w	r8, r8, asr #4
 8005330:	4650      	mov	r0, sl
 8005332:	4659      	mov	r1, fp
 8005334:	4699      	mov	r9, r3
 8005336:	f1b8 0f01 	cmp.w	r8, #1
 800533a:	dc21      	bgt.n	8005380 <_strtod_l+0x528>
 800533c:	b10b      	cbz	r3, 8005342 <_strtod_l+0x4ea>
 800533e:	4682      	mov	sl, r0
 8005340:	468b      	mov	fp, r1
 8005342:	4b2f      	ldr	r3, [pc, #188]	; (8005400 <_strtod_l+0x5a8>)
 8005344:	f1ab 7b54 	sub.w	fp, fp, #55574528	; 0x3500000
 8005348:	eb03 09c9 	add.w	r9, r3, r9, lsl #3
 800534c:	4652      	mov	r2, sl
 800534e:	465b      	mov	r3, fp
 8005350:	e9d9 0100 	ldrd	r0, r1, [r9]
 8005354:	f7fb f970 	bl	8000638 <__aeabi_dmul>
 8005358:	4b2a      	ldr	r3, [pc, #168]	; (8005404 <_strtod_l+0x5ac>)
 800535a:	460a      	mov	r2, r1
 800535c:	400b      	ands	r3, r1
 800535e:	492a      	ldr	r1, [pc, #168]	; (8005408 <_strtod_l+0x5b0>)
 8005360:	428b      	cmp	r3, r1
 8005362:	4682      	mov	sl, r0
 8005364:	d8bc      	bhi.n	80052e0 <_strtod_l+0x488>
 8005366:	f5a1 1180 	sub.w	r1, r1, #1048576	; 0x100000
 800536a:	428b      	cmp	r3, r1
 800536c:	bf86      	itte	hi
 800536e:	f8df b09c 	ldrhi.w	fp, [pc, #156]	; 800540c <_strtod_l+0x5b4>
 8005372:	f04f 3aff 	movhi.w	sl, #4294967295
 8005376:	f102 7b54 	addls.w	fp, r2, #55574528	; 0x3500000
 800537a:	2300      	movs	r3, #0
 800537c:	9304      	str	r3, [sp, #16]
 800537e:	e084      	b.n	800548a <_strtod_l+0x632>
 8005380:	f018 0f01 	tst.w	r8, #1
 8005384:	d005      	beq.n	8005392 <_strtod_l+0x53a>
 8005386:	9b04      	ldr	r3, [sp, #16]
 8005388:	e9d3 2300 	ldrd	r2, r3, [r3]
 800538c:	f7fb f954 	bl	8000638 <__aeabi_dmul>
 8005390:	2301      	movs	r3, #1
 8005392:	9a04      	ldr	r2, [sp, #16]
 8005394:	3208      	adds	r2, #8
 8005396:	f109 0901 	add.w	r9, r9, #1
 800539a:	ea4f 0868 	mov.w	r8, r8, asr #1
 800539e:	9204      	str	r2, [sp, #16]
 80053a0:	e7c9      	b.n	8005336 <_strtod_l+0x4de>
 80053a2:	d0ea      	beq.n	800537a <_strtod_l+0x522>
 80053a4:	f1c8 0800 	rsb	r8, r8, #0
 80053a8:	f018 020f 	ands.w	r2, r8, #15
 80053ac:	d00a      	beq.n	80053c4 <_strtod_l+0x56c>
 80053ae:	4b13      	ldr	r3, [pc, #76]	; (80053fc <_strtod_l+0x5a4>)
 80053b0:	eb03 03c2 	add.w	r3, r3, r2, lsl #3
 80053b4:	4650      	mov	r0, sl
 80053b6:	4659      	mov	r1, fp
 80053b8:	e9d3 2300 	ldrd	r2, r3, [r3]
 80053bc:	f7fb fa66 	bl	800088c <__aeabi_ddiv>
 80053c0:	4682      	mov	sl, r0
 80053c2:	468b      	mov	fp, r1
 80053c4:	ea5f 1828 	movs.w	r8, r8, asr #4
 80053c8:	d0d7      	beq.n	800537a <_strtod_l+0x522>
 80053ca:	f1b8 0f1f 	cmp.w	r8, #31
 80053ce:	dd1f      	ble.n	8005410 <_strtod_l+0x5b8>
 80053d0:	2500      	movs	r5, #0
 80053d2:	462e      	mov	r6, r5
 80053d4:	9507      	str	r5, [sp, #28]
 80053d6:	9505      	str	r5, [sp, #20]
 80053d8:	2322      	movs	r3, #34	; 0x22
 80053da:	f04f 0a00 	mov.w	sl, #0
 80053de:	f04f 0b00 	mov.w	fp, #0
 80053e2:	6023      	str	r3, [r4, #0]
 80053e4:	e786      	b.n	80052f4 <_strtod_l+0x49c>
 80053e6:	bf00      	nop
 80053e8:	080091f9 	.word	0x080091f9
 80053ec:	08009238 	.word	0x08009238
 80053f0:	080091f1 	.word	0x080091f1
 80053f4:	0800937c 	.word	0x0800937c
 80053f8:	08009643 	.word	0x08009643
 80053fc:	08009508 	.word	0x08009508
 8005400:	080094e0 	.word	0x080094e0
 8005404:	7ff00000 	.word	0x7ff00000
 8005408:	7ca00000 	.word	0x7ca00000
 800540c:	7fefffff 	.word	0x7fefffff
 8005410:	f018 0310 	ands.w	r3, r8, #16
 8005414:	bf18      	it	ne
 8005416:	236a      	movne	r3, #106	; 0x6a
 8005418:	f8df 93ac 	ldr.w	r9, [pc, #940]	; 80057c8 <_strtod_l+0x970>
 800541c:	9304      	str	r3, [sp, #16]
 800541e:	4650      	mov	r0, sl
 8005420:	4659      	mov	r1, fp
 8005422:	2300      	movs	r3, #0
 8005424:	f018 0f01 	tst.w	r8, #1
 8005428:	d004      	beq.n	8005434 <_strtod_l+0x5dc>
 800542a:	e9d9 2300 	ldrd	r2, r3, [r9]
 800542e:	f7fb f903 	bl	8000638 <__aeabi_dmul>
 8005432:	2301      	movs	r3, #1
 8005434:	ea5f 0868 	movs.w	r8, r8, asr #1
 8005438:	f109 0908 	add.w	r9, r9, #8
 800543c:	d1f2      	bne.n	8005424 <_strtod_l+0x5cc>
 800543e:	b10b      	cbz	r3, 8005444 <_strtod_l+0x5ec>
 8005440:	4682      	mov	sl, r0
 8005442:	468b      	mov	fp, r1
 8005444:	9b04      	ldr	r3, [sp, #16]
 8005446:	b1c3      	cbz	r3, 800547a <_strtod_l+0x622>
 8005448:	f3cb 520a 	ubfx	r2, fp, #20, #11
 800544c:	f1c2 036b 	rsb	r3, r2, #107	; 0x6b
 8005450:	2b00      	cmp	r3, #0
 8005452:	4659      	mov	r1, fp
 8005454:	dd11      	ble.n	800547a <_strtod_l+0x622>
 8005456:	2b1f      	cmp	r3, #31
 8005458:	f340 8124 	ble.w	80056a4 <_strtod_l+0x84c>
 800545c:	2b34      	cmp	r3, #52	; 0x34
 800545e:	bfde      	ittt	le
 8005460:	f1c2 024b 	rsble	r2, r2, #75	; 0x4b
 8005464:	f04f 33ff 	movle.w	r3, #4294967295
 8005468:	fa03 f202 	lslle.w	r2, r3, r2
 800546c:	f04f 0a00 	mov.w	sl, #0
 8005470:	bfcc      	ite	gt
 8005472:	f04f 7b5c 	movgt.w	fp, #57671680	; 0x3700000
 8005476:	ea02 0b01 	andle.w	fp, r2, r1
 800547a:	2200      	movs	r2, #0
 800547c:	2300      	movs	r3, #0
 800547e:	4650      	mov	r0, sl
 8005480:	4659      	mov	r1, fp
 8005482:	f7fb fb41 	bl	8000b08 <__aeabi_dcmpeq>
 8005486:	2800      	cmp	r0, #0
 8005488:	d1a2      	bne.n	80053d0 <_strtod_l+0x578>
 800548a:	9b07      	ldr	r3, [sp, #28]
 800548c:	9300      	str	r3, [sp, #0]
 800548e:	9908      	ldr	r1, [sp, #32]
 8005490:	462b      	mov	r3, r5
 8005492:	463a      	mov	r2, r7
 8005494:	4620      	mov	r0, r4
 8005496:	f001 fe63 	bl	8007160 <__s2b>
 800549a:	9007      	str	r0, [sp, #28]
 800549c:	2800      	cmp	r0, #0
 800549e:	f43f af1f 	beq.w	80052e0 <_strtod_l+0x488>
 80054a2:	9b05      	ldr	r3, [sp, #20]
 80054a4:	1b9e      	subs	r6, r3, r6
 80054a6:	9b06      	ldr	r3, [sp, #24]
 80054a8:	2b00      	cmp	r3, #0
 80054aa:	bfb4      	ite	lt
 80054ac:	4633      	movlt	r3, r6
 80054ae:	2300      	movge	r3, #0
 80054b0:	930c      	str	r3, [sp, #48]	; 0x30
 80054b2:	9b06      	ldr	r3, [sp, #24]
 80054b4:	2500      	movs	r5, #0
 80054b6:	ea23 73e3 	bic.w	r3, r3, r3, asr #31
 80054ba:	9312      	str	r3, [sp, #72]	; 0x48
 80054bc:	462e      	mov	r6, r5
 80054be:	9b07      	ldr	r3, [sp, #28]
 80054c0:	4620      	mov	r0, r4
 80054c2:	6859      	ldr	r1, [r3, #4]
 80054c4:	f001 fda4 	bl	8007010 <_Balloc>
 80054c8:	9005      	str	r0, [sp, #20]
 80054ca:	2800      	cmp	r0, #0
 80054cc:	f43f af0c 	beq.w	80052e8 <_strtod_l+0x490>
 80054d0:	9b07      	ldr	r3, [sp, #28]
 80054d2:	691a      	ldr	r2, [r3, #16]
 80054d4:	3202      	adds	r2, #2
 80054d6:	f103 010c 	add.w	r1, r3, #12
 80054da:	0092      	lsls	r2, r2, #2
 80054dc:	300c      	adds	r0, #12
 80054de:	f001 fd89 	bl	8006ff4 <memcpy>
 80054e2:	ec4b ab10 	vmov	d0, sl, fp
 80054e6:	aa1a      	add	r2, sp, #104	; 0x68
 80054e8:	a919      	add	r1, sp, #100	; 0x64
 80054ea:	4620      	mov	r0, r4
 80054ec:	f002 f97e 	bl	80077ec <__d2b>
 80054f0:	ec4b ab18 	vmov	d8, sl, fp
 80054f4:	9018      	str	r0, [sp, #96]	; 0x60
 80054f6:	2800      	cmp	r0, #0
 80054f8:	f43f aef6 	beq.w	80052e8 <_strtod_l+0x490>
 80054fc:	2101      	movs	r1, #1
 80054fe:	4620      	mov	r0, r4
 8005500:	f001 fec8 	bl	8007294 <__i2b>
 8005504:	4606      	mov	r6, r0
 8005506:	2800      	cmp	r0, #0
 8005508:	f43f aeee 	beq.w	80052e8 <_strtod_l+0x490>
 800550c:	9b19      	ldr	r3, [sp, #100]	; 0x64
 800550e:	9904      	ldr	r1, [sp, #16]
 8005510:	2b00      	cmp	r3, #0
 8005512:	bfab      	itete	ge
 8005514:	9a0c      	ldrge	r2, [sp, #48]	; 0x30
 8005516:	9a12      	ldrlt	r2, [sp, #72]	; 0x48
 8005518:	9f12      	ldrge	r7, [sp, #72]	; 0x48
 800551a:	f8dd 9030 	ldrlt.w	r9, [sp, #48]	; 0x30
 800551e:	bfac      	ite	ge
 8005520:	eb03 0902 	addge.w	r9, r3, r2
 8005524:	1ad7      	sublt	r7, r2, r3
 8005526:	9a1a      	ldr	r2, [sp, #104]	; 0x68
 8005528:	eba3 0801 	sub.w	r8, r3, r1
 800552c:	4490      	add	r8, r2
 800552e:	4ba1      	ldr	r3, [pc, #644]	; (80057b4 <_strtod_l+0x95c>)
 8005530:	f108 38ff 	add.w	r8, r8, #4294967295
 8005534:	4598      	cmp	r8, r3
 8005536:	f1c2 0236 	rsb	r2, r2, #54	; 0x36
 800553a:	f280 80c7 	bge.w	80056cc <_strtod_l+0x874>
 800553e:	eba3 0308 	sub.w	r3, r3, r8
 8005542:	2b1f      	cmp	r3, #31
 8005544:	eba2 0203 	sub.w	r2, r2, r3
 8005548:	f04f 0101 	mov.w	r1, #1
 800554c:	f300 80b1 	bgt.w	80056b2 <_strtod_l+0x85a>
 8005550:	fa01 f303 	lsl.w	r3, r1, r3
 8005554:	930d      	str	r3, [sp, #52]	; 0x34
 8005556:	2300      	movs	r3, #0
 8005558:	9308      	str	r3, [sp, #32]
 800555a:	eb09 0802 	add.w	r8, r9, r2
 800555e:	9b04      	ldr	r3, [sp, #16]
 8005560:	45c1      	cmp	r9, r8
 8005562:	4417      	add	r7, r2
 8005564:	441f      	add	r7, r3
 8005566:	464b      	mov	r3, r9
 8005568:	bfa8      	it	ge
 800556a:	4643      	movge	r3, r8
 800556c:	42bb      	cmp	r3, r7
 800556e:	bfa8      	it	ge
 8005570:	463b      	movge	r3, r7
 8005572:	2b00      	cmp	r3, #0
 8005574:	bfc2      	ittt	gt
 8005576:	eba8 0803 	subgt.w	r8, r8, r3
 800557a:	1aff      	subgt	r7, r7, r3
 800557c:	eba9 0903 	subgt.w	r9, r9, r3
 8005580:	9b0c      	ldr	r3, [sp, #48]	; 0x30
 8005582:	2b00      	cmp	r3, #0
 8005584:	dd17      	ble.n	80055b6 <_strtod_l+0x75e>
 8005586:	4631      	mov	r1, r6
 8005588:	461a      	mov	r2, r3
 800558a:	4620      	mov	r0, r4
 800558c:	f001 ff42 	bl	8007414 <__pow5mult>
 8005590:	4606      	mov	r6, r0
 8005592:	2800      	cmp	r0, #0
 8005594:	f43f aea8 	beq.w	80052e8 <_strtod_l+0x490>
 8005598:	4601      	mov	r1, r0
 800559a:	9a18      	ldr	r2, [sp, #96]	; 0x60
 800559c:	4620      	mov	r0, r4
 800559e:	f001 fe8f 	bl	80072c0 <__multiply>
 80055a2:	900b      	str	r0, [sp, #44]	; 0x2c
 80055a4:	2800      	cmp	r0, #0
 80055a6:	f43f ae9f 	beq.w	80052e8 <_strtod_l+0x490>
 80055aa:	9918      	ldr	r1, [sp, #96]	; 0x60
 80055ac:	4620      	mov	r0, r4
 80055ae:	f001 fd6f 	bl	8007090 <_Bfree>
 80055b2:	9b0b      	ldr	r3, [sp, #44]	; 0x2c
 80055b4:	9318      	str	r3, [sp, #96]	; 0x60
 80055b6:	f1b8 0f00 	cmp.w	r8, #0
 80055ba:	f300 808c 	bgt.w	80056d6 <_strtod_l+0x87e>
 80055be:	9b06      	ldr	r3, [sp, #24]
 80055c0:	2b00      	cmp	r3, #0
 80055c2:	dd08      	ble.n	80055d6 <_strtod_l+0x77e>
 80055c4:	9a12      	ldr	r2, [sp, #72]	; 0x48
 80055c6:	9905      	ldr	r1, [sp, #20]
 80055c8:	4620      	mov	r0, r4
 80055ca:	f001 ff23 	bl	8007414 <__pow5mult>
 80055ce:	9005      	str	r0, [sp, #20]
 80055d0:	2800      	cmp	r0, #0
 80055d2:	f43f ae89 	beq.w	80052e8 <_strtod_l+0x490>
 80055d6:	2f00      	cmp	r7, #0
 80055d8:	dd08      	ble.n	80055ec <_strtod_l+0x794>
 80055da:	9905      	ldr	r1, [sp, #20]
 80055dc:	463a      	mov	r2, r7
 80055de:	4620      	mov	r0, r4
 80055e0:	f001 ff72 	bl	80074c8 <__lshift>
 80055e4:	9005      	str	r0, [sp, #20]
 80055e6:	2800      	cmp	r0, #0
 80055e8:	f43f ae7e 	beq.w	80052e8 <_strtod_l+0x490>
 80055ec:	f1b9 0f00 	cmp.w	r9, #0
 80055f0:	dd08      	ble.n	8005604 <_strtod_l+0x7ac>
 80055f2:	4631      	mov	r1, r6
 80055f4:	464a      	mov	r2, r9
 80055f6:	4620      	mov	r0, r4
 80055f8:	f001 ff66 	bl	80074c8 <__lshift>
 80055fc:	4606      	mov	r6, r0
 80055fe:	2800      	cmp	r0, #0
 8005600:	f43f ae72 	beq.w	80052e8 <_strtod_l+0x490>
 8005604:	9a05      	ldr	r2, [sp, #20]
 8005606:	9918      	ldr	r1, [sp, #96]	; 0x60
 8005608:	4620      	mov	r0, r4
 800560a:	f001 ffe9 	bl	80075e0 <__mdiff>
 800560e:	4605      	mov	r5, r0
 8005610:	2800      	cmp	r0, #0
 8005612:	f43f ae69 	beq.w	80052e8 <_strtod_l+0x490>
 8005616:	68c3      	ldr	r3, [r0, #12]
 8005618:	930b      	str	r3, [sp, #44]	; 0x2c
 800561a:	2300      	movs	r3, #0
 800561c:	60c3      	str	r3, [r0, #12]
 800561e:	4631      	mov	r1, r6
 8005620:	f001 ffc2 	bl	80075a8 <__mcmp>
 8005624:	2800      	cmp	r0, #0
 8005626:	da60      	bge.n	80056ea <_strtod_l+0x892>
 8005628:	9b0b      	ldr	r3, [sp, #44]	; 0x2c
 800562a:	ea53 030a 	orrs.w	r3, r3, sl
 800562e:	f040 8082 	bne.w	8005736 <_strtod_l+0x8de>
 8005632:	f3cb 0313 	ubfx	r3, fp, #0, #20
 8005636:	2b00      	cmp	r3, #0
 8005638:	d17d      	bne.n	8005736 <_strtod_l+0x8de>
 800563a:	f02b 4300 	bic.w	r3, fp, #2147483648	; 0x80000000
 800563e:	0d1b      	lsrs	r3, r3, #20
 8005640:	051b      	lsls	r3, r3, #20
 8005642:	f1b3 6fd6 	cmp.w	r3, #112197632	; 0x6b00000
 8005646:	d976      	bls.n	8005736 <_strtod_l+0x8de>
 8005648:	696b      	ldr	r3, [r5, #20]
 800564a:	b913      	cbnz	r3, 8005652 <_strtod_l+0x7fa>
 800564c:	692b      	ldr	r3, [r5, #16]
 800564e:	2b01      	cmp	r3, #1
 8005650:	dd71      	ble.n	8005736 <_strtod_l+0x8de>
 8005652:	4629      	mov	r1, r5
 8005654:	2201      	movs	r2, #1
 8005656:	4620      	mov	r0, r4
 8005658:	f001 ff36 	bl	80074c8 <__lshift>
 800565c:	4631      	mov	r1, r6
 800565e:	4605      	mov	r5, r0
 8005660:	f001 ffa2 	bl	80075a8 <__mcmp>
 8005664:	2800      	cmp	r0, #0
 8005666:	dd66      	ble.n	8005736 <_strtod_l+0x8de>
 8005668:	9904      	ldr	r1, [sp, #16]
 800566a:	4a53      	ldr	r2, [pc, #332]	; (80057b8 <_strtod_l+0x960>)
 800566c:	465b      	mov	r3, fp
 800566e:	2900      	cmp	r1, #0
 8005670:	f000 8081 	beq.w	8005776 <_strtod_l+0x91e>
 8005674:	ea02 010b 	and.w	r1, r2, fp
 8005678:	f1b1 6fd6 	cmp.w	r1, #112197632	; 0x6b00000
 800567c:	dc7b      	bgt.n	8005776 <_strtod_l+0x91e>
 800567e:	f1b1 7f5c 	cmp.w	r1, #57671680	; 0x3700000
 8005682:	f77f aea9 	ble.w	80053d8 <_strtod_l+0x580>
 8005686:	4b4d      	ldr	r3, [pc, #308]	; (80057bc <_strtod_l+0x964>)
 8005688:	4650      	mov	r0, sl
 800568a:	4659      	mov	r1, fp
 800568c:	2200      	movs	r2, #0
 800568e:	f7fa ffd3 	bl	8000638 <__aeabi_dmul>
 8005692:	460b      	mov	r3, r1
 8005694:	4303      	orrs	r3, r0
 8005696:	bf08      	it	eq
 8005698:	2322      	moveq	r3, #34	; 0x22
 800569a:	4682      	mov	sl, r0
 800569c:	468b      	mov	fp, r1
 800569e:	bf08      	it	eq
 80056a0:	6023      	streq	r3, [r4, #0]
 80056a2:	e62b      	b.n	80052fc <_strtod_l+0x4a4>
 80056a4:	f04f 32ff 	mov.w	r2, #4294967295
 80056a8:	fa02 f303 	lsl.w	r3, r2, r3
 80056ac:	ea03 0a0a 	and.w	sl, r3, sl
 80056b0:	e6e3      	b.n	800547a <_strtod_l+0x622>
 80056b2:	f1c8 487f 	rsb	r8, r8, #4278190080	; 0xff000000
 80056b6:	f508 087f 	add.w	r8, r8, #16711680	; 0xff0000
 80056ba:	f508 487b 	add.w	r8, r8, #64256	; 0xfb00
 80056be:	f108 08e2 	add.w	r8, r8, #226	; 0xe2
 80056c2:	fa01 f308 	lsl.w	r3, r1, r8
 80056c6:	9308      	str	r3, [sp, #32]
 80056c8:	910d      	str	r1, [sp, #52]	; 0x34
 80056ca:	e746      	b.n	800555a <_strtod_l+0x702>
 80056cc:	2300      	movs	r3, #0
 80056ce:	9308      	str	r3, [sp, #32]
 80056d0:	2301      	movs	r3, #1
 80056d2:	930d      	str	r3, [sp, #52]	; 0x34
 80056d4:	e741      	b.n	800555a <_strtod_l+0x702>
 80056d6:	9918      	ldr	r1, [sp, #96]	; 0x60
 80056d8:	4642      	mov	r2, r8
 80056da:	4620      	mov	r0, r4
 80056dc:	f001 fef4 	bl	80074c8 <__lshift>
 80056e0:	9018      	str	r0, [sp, #96]	; 0x60
 80056e2:	2800      	cmp	r0, #0
 80056e4:	f47f af6b 	bne.w	80055be <_strtod_l+0x766>
 80056e8:	e5fe      	b.n	80052e8 <_strtod_l+0x490>
 80056ea:	465f      	mov	r7, fp
 80056ec:	d16e      	bne.n	80057cc <_strtod_l+0x974>
 80056ee:	9a0b      	ldr	r2, [sp, #44]	; 0x2c
 80056f0:	f3cb 0313 	ubfx	r3, fp, #0, #20
 80056f4:	b342      	cbz	r2, 8005748 <_strtod_l+0x8f0>
 80056f6:	4a32      	ldr	r2, [pc, #200]	; (80057c0 <_strtod_l+0x968>)
 80056f8:	4293      	cmp	r3, r2
 80056fa:	d128      	bne.n	800574e <_strtod_l+0x8f6>
 80056fc:	9b04      	ldr	r3, [sp, #16]
 80056fe:	4651      	mov	r1, sl
 8005700:	b1eb      	cbz	r3, 800573e <_strtod_l+0x8e6>
 8005702:	4b2d      	ldr	r3, [pc, #180]	; (80057b8 <_strtod_l+0x960>)
 8005704:	403b      	ands	r3, r7
 8005706:	f1b3 6fd4 	cmp.w	r3, #111149056	; 0x6a00000
 800570a:	f04f 32ff 	mov.w	r2, #4294967295
 800570e:	d819      	bhi.n	8005744 <_strtod_l+0x8ec>
 8005710:	0d1b      	lsrs	r3, r3, #20
 8005712:	f1c3 036b 	rsb	r3, r3, #107	; 0x6b
 8005716:	fa02 f303 	lsl.w	r3, r2, r3
 800571a:	4299      	cmp	r1, r3
 800571c:	d117      	bne.n	800574e <_strtod_l+0x8f6>
 800571e:	4b29      	ldr	r3, [pc, #164]	; (80057c4 <_strtod_l+0x96c>)
 8005720:	429f      	cmp	r7, r3
 8005722:	d102      	bne.n	800572a <_strtod_l+0x8d2>
 8005724:	3101      	adds	r1, #1
 8005726:	f43f addf 	beq.w	80052e8 <_strtod_l+0x490>
 800572a:	4b23      	ldr	r3, [pc, #140]	; (80057b8 <_strtod_l+0x960>)
 800572c:	403b      	ands	r3, r7
 800572e:	f503 1b80 	add.w	fp, r3, #1048576	; 0x100000
 8005732:	f04f 0a00 	mov.w	sl, #0
 8005736:	9b04      	ldr	r3, [sp, #16]
 8005738:	2b00      	cmp	r3, #0
 800573a:	d1a4      	bne.n	8005686 <_strtod_l+0x82e>
 800573c:	e5de      	b.n	80052fc <_strtod_l+0x4a4>
 800573e:	f04f 33ff 	mov.w	r3, #4294967295
 8005742:	e7ea      	b.n	800571a <_strtod_l+0x8c2>
 8005744:	4613      	mov	r3, r2
 8005746:	e7e8      	b.n	800571a <_strtod_l+0x8c2>
 8005748:	ea53 030a 	orrs.w	r3, r3, sl
 800574c:	d08c      	beq.n	8005668 <_strtod_l+0x810>
 800574e:	9b08      	ldr	r3, [sp, #32]
 8005750:	b1db      	cbz	r3, 800578a <_strtod_l+0x932>
 8005752:	423b      	tst	r3, r7
 8005754:	d0ef      	beq.n	8005736 <_strtod_l+0x8de>
 8005756:	9b0b      	ldr	r3, [sp, #44]	; 0x2c
 8005758:	9a04      	ldr	r2, [sp, #16]
 800575a:	4650      	mov	r0, sl
 800575c:	4659      	mov	r1, fp
 800575e:	b1c3      	cbz	r3, 8005792 <_strtod_l+0x93a>
 8005760:	f7ff fb5b 	bl	8004e1a <sulp>
 8005764:	4602      	mov	r2, r0
 8005766:	460b      	mov	r3, r1
 8005768:	ec51 0b18 	vmov	r0, r1, d8
 800576c:	f7fa fdae 	bl	80002cc <__adddf3>
 8005770:	4682      	mov	sl, r0
 8005772:	468b      	mov	fp, r1
 8005774:	e7df      	b.n	8005736 <_strtod_l+0x8de>
 8005776:	4013      	ands	r3, r2
 8005778:	f5a3 1380 	sub.w	r3, r3, #1048576	; 0x100000
 800577c:	ea6f 5b13 	mvn.w	fp, r3, lsr #20
 8005780:	ea6f 5b0b 	mvn.w	fp, fp, lsl #20
 8005784:	f04f 3aff 	mov.w	sl, #4294967295
 8005788:	e7d5      	b.n	8005736 <_strtod_l+0x8de>
 800578a:	9b0d      	ldr	r3, [sp, #52]	; 0x34
 800578c:	ea13 0f0a 	tst.w	r3, sl
 8005790:	e7e0      	b.n	8005754 <_strtod_l+0x8fc>
 8005792:	f7ff fb42 	bl	8004e1a <sulp>
 8005796:	4602      	mov	r2, r0
 8005798:	460b      	mov	r3, r1
 800579a:	ec51 0b18 	vmov	r0, r1, d8
 800579e:	f7fa fd93 	bl	80002c8 <__aeabi_dsub>
 80057a2:	2200      	movs	r2, #0
 80057a4:	2300      	movs	r3, #0
 80057a6:	4682      	mov	sl, r0
 80057a8:	468b      	mov	fp, r1
 80057aa:	f7fb f9ad 	bl	8000b08 <__aeabi_dcmpeq>
 80057ae:	2800      	cmp	r0, #0
 80057b0:	d0c1      	beq.n	8005736 <_strtod_l+0x8de>
 80057b2:	e611      	b.n	80053d8 <_strtod_l+0x580>
 80057b4:	fffffc02 	.word	0xfffffc02
 80057b8:	7ff00000 	.word	0x7ff00000
 80057bc:	39500000 	.word	0x39500000
 80057c0:	000fffff 	.word	0x000fffff
 80057c4:	7fefffff 	.word	0x7fefffff
 80057c8:	08009250 	.word	0x08009250
 80057cc:	4631      	mov	r1, r6
 80057ce:	4628      	mov	r0, r5
 80057d0:	f002 f868 	bl	80078a4 <__ratio>
 80057d4:	ec59 8b10 	vmov	r8, r9, d0
 80057d8:	ee10 0a10 	vmov	r0, s0
 80057dc:	2200      	movs	r2, #0
 80057de:	f04f 4380 	mov.w	r3, #1073741824	; 0x40000000
 80057e2:	4649      	mov	r1, r9
 80057e4:	f7fb f9a4 	bl	8000b30 <__aeabi_dcmple>
 80057e8:	2800      	cmp	r0, #0
 80057ea:	d07a      	beq.n	80058e2 <_strtod_l+0xa8a>
 80057ec:	9b0b      	ldr	r3, [sp, #44]	; 0x2c
 80057ee:	2b00      	cmp	r3, #0
 80057f0:	d04a      	beq.n	8005888 <_strtod_l+0xa30>
 80057f2:	4b95      	ldr	r3, [pc, #596]	; (8005a48 <_strtod_l+0xbf0>)
 80057f4:	2200      	movs	r2, #0
 80057f6:	e9cd 2308 	strd	r2, r3, [sp, #32]
 80057fa:	f8df 924c 	ldr.w	r9, [pc, #588]	; 8005a48 <_strtod_l+0xbf0>
 80057fe:	f04f 0800 	mov.w	r8, #0
 8005802:	4b92      	ldr	r3, [pc, #584]	; (8005a4c <_strtod_l+0xbf4>)
 8005804:	403b      	ands	r3, r7
 8005806:	930d      	str	r3, [sp, #52]	; 0x34
 8005808:	9a0d      	ldr	r2, [sp, #52]	; 0x34
 800580a:	4b91      	ldr	r3, [pc, #580]	; (8005a50 <_strtod_l+0xbf8>)
 800580c:	429a      	cmp	r2, r3
 800580e:	f040 80b0 	bne.w	8005972 <_strtod_l+0xb1a>
 8005812:	e9dd 0108 	ldrd	r0, r1, [sp, #32]
 8005816:	f1a7 7b54 	sub.w	fp, r7, #55574528	; 0x3500000
 800581a:	ec4b ab10 	vmov	d0, sl, fp
 800581e:	e9cd 0108 	strd	r0, r1, [sp, #32]
 8005822:	f001 ff67 	bl	80076f4 <__ulp>
 8005826:	e9dd 0108 	ldrd	r0, r1, [sp, #32]
 800582a:	ec53 2b10 	vmov	r2, r3, d0
 800582e:	f7fa ff03 	bl	8000638 <__aeabi_dmul>
 8005832:	4652      	mov	r2, sl
 8005834:	465b      	mov	r3, fp
 8005836:	f7fa fd49 	bl	80002cc <__adddf3>
 800583a:	460b      	mov	r3, r1
 800583c:	4983      	ldr	r1, [pc, #524]	; (8005a4c <_strtod_l+0xbf4>)
 800583e:	4a85      	ldr	r2, [pc, #532]	; (8005a54 <_strtod_l+0xbfc>)
 8005840:	4019      	ands	r1, r3
 8005842:	4291      	cmp	r1, r2
 8005844:	4682      	mov	sl, r0
 8005846:	d960      	bls.n	800590a <_strtod_l+0xab2>
 8005848:	ee18 3a90 	vmov	r3, s17
 800584c:	f102 7254 	add.w	r2, r2, #55574528	; 0x3500000
 8005850:	4293      	cmp	r3, r2
 8005852:	d104      	bne.n	800585e <_strtod_l+0xa06>
 8005854:	ee18 3a10 	vmov	r3, s16
 8005858:	3301      	adds	r3, #1
 800585a:	f43f ad45 	beq.w	80052e8 <_strtod_l+0x490>
 800585e:	f8df b200 	ldr.w	fp, [pc, #512]	; 8005a60 <_strtod_l+0xc08>
 8005862:	f04f 3aff 	mov.w	sl, #4294967295
 8005866:	9918      	ldr	r1, [sp, #96]	; 0x60
 8005868:	4620      	mov	r0, r4
 800586a:	f001 fc11 	bl	8007090 <_Bfree>
 800586e:	9905      	ldr	r1, [sp, #20]
 8005870:	4620      	mov	r0, r4
 8005872:	f001 fc0d 	bl	8007090 <_Bfree>
 8005876:	4631      	mov	r1, r6
 8005878:	4620      	mov	r0, r4
 800587a:	f001 fc09 	bl	8007090 <_Bfree>
 800587e:	4629      	mov	r1, r5
 8005880:	4620      	mov	r0, r4
 8005882:	f001 fc05 	bl	8007090 <_Bfree>
 8005886:	e61a      	b.n	80054be <_strtod_l+0x666>
 8005888:	f1ba 0f00 	cmp.w	sl, #0
 800588c:	d11b      	bne.n	80058c6 <_strtod_l+0xa6e>
 800588e:	f3cb 0313 	ubfx	r3, fp, #0, #20
 8005892:	b9f3      	cbnz	r3, 80058d2 <_strtod_l+0xa7a>
 8005894:	4b6c      	ldr	r3, [pc, #432]	; (8005a48 <_strtod_l+0xbf0>)
 8005896:	2200      	movs	r2, #0
 8005898:	4640      	mov	r0, r8
 800589a:	4649      	mov	r1, r9
 800589c:	f7fb f93e 	bl	8000b1c <__aeabi_dcmplt>
 80058a0:	b9d0      	cbnz	r0, 80058d8 <_strtod_l+0xa80>
 80058a2:	4640      	mov	r0, r8
 80058a4:	4649      	mov	r1, r9
 80058a6:	4b6c      	ldr	r3, [pc, #432]	; (8005a58 <_strtod_l+0xc00>)
 80058a8:	2200      	movs	r2, #0
 80058aa:	f7fa fec5 	bl	8000638 <__aeabi_dmul>
 80058ae:	4680      	mov	r8, r0
 80058b0:	4689      	mov	r9, r1
 80058b2:	f109 4300 	add.w	r3, r9, #2147483648	; 0x80000000
 80058b6:	f8cd 8050 	str.w	r8, [sp, #80]	; 0x50
 80058ba:	9315      	str	r3, [sp, #84]	; 0x54
 80058bc:	e9dd 2314 	ldrd	r2, r3, [sp, #80]	; 0x50
 80058c0:	e9cd 2308 	strd	r2, r3, [sp, #32]
 80058c4:	e79d      	b.n	8005802 <_strtod_l+0x9aa>
 80058c6:	f1ba 0f01 	cmp.w	sl, #1
 80058ca:	d102      	bne.n	80058d2 <_strtod_l+0xa7a>
 80058cc:	2f00      	cmp	r7, #0
 80058ce:	f43f ad83 	beq.w	80053d8 <_strtod_l+0x580>
 80058d2:	4b62      	ldr	r3, [pc, #392]	; (8005a5c <_strtod_l+0xc04>)
 80058d4:	2200      	movs	r2, #0
 80058d6:	e78e      	b.n	80057f6 <_strtod_l+0x99e>
 80058d8:	f8df 917c 	ldr.w	r9, [pc, #380]	; 8005a58 <_strtod_l+0xc00>
 80058dc:	f04f 0800 	mov.w	r8, #0
 80058e0:	e7e7      	b.n	80058b2 <_strtod_l+0xa5a>
 80058e2:	4b5d      	ldr	r3, [pc, #372]	; (8005a58 <_strtod_l+0xc00>)
 80058e4:	4640      	mov	r0, r8
 80058e6:	4649      	mov	r1, r9
 80058e8:	2200      	movs	r2, #0
 80058ea:	f7fa fea5 	bl	8000638 <__aeabi_dmul>
 80058ee:	9b0b      	ldr	r3, [sp, #44]	; 0x2c
 80058f0:	4680      	mov	r8, r0
 80058f2:	4689      	mov	r9, r1
 80058f4:	b933      	cbnz	r3, 8005904 <_strtod_l+0xaac>
 80058f6:	f101 4300 	add.w	r3, r1, #2147483648	; 0x80000000
 80058fa:	900e      	str	r0, [sp, #56]	; 0x38
 80058fc:	930f      	str	r3, [sp, #60]	; 0x3c
 80058fe:	e9dd 230e 	ldrd	r2, r3, [sp, #56]	; 0x38
 8005902:	e7dd      	b.n	80058c0 <_strtod_l+0xa68>
 8005904:	e9cd 890e 	strd	r8, r9, [sp, #56]	; 0x38
 8005908:	e7f9      	b.n	80058fe <_strtod_l+0xaa6>
 800590a:	f103 7b54 	add.w	fp, r3, #55574528	; 0x3500000
 800590e:	9b04      	ldr	r3, [sp, #16]
 8005910:	2b00      	cmp	r3, #0
 8005912:	d1a8      	bne.n	8005866 <_strtod_l+0xa0e>
 8005914:	f02b 4300 	bic.w	r3, fp, #2147483648	; 0x80000000
 8005918:	9a0d      	ldr	r2, [sp, #52]	; 0x34
 800591a:	0d1b      	lsrs	r3, r3, #20
 800591c:	051b      	lsls	r3, r3, #20
 800591e:	429a      	cmp	r2, r3
 8005920:	d1a1      	bne.n	8005866 <_strtod_l+0xa0e>
 8005922:	4640      	mov	r0, r8
 8005924:	4649      	mov	r1, r9
 8005926:	f7fb f9e7 	bl	8000cf8 <__aeabi_d2lz>
 800592a:	f7fa fe57 	bl	80005dc <__aeabi_l2d>
 800592e:	4602      	mov	r2, r0
 8005930:	460b      	mov	r3, r1
 8005932:	4640      	mov	r0, r8
 8005934:	4649      	mov	r1, r9
 8005936:	f7fa fcc7 	bl	80002c8 <__aeabi_dsub>
 800593a:	9a0b      	ldr	r2, [sp, #44]	; 0x2c
 800593c:	f3cb 0313 	ubfx	r3, fp, #0, #20
 8005940:	ea43 030a 	orr.w	r3, r3, sl
 8005944:	4313      	orrs	r3, r2
 8005946:	4680      	mov	r8, r0
 8005948:	4689      	mov	r9, r1
 800594a:	d055      	beq.n	80059f8 <_strtod_l+0xba0>
 800594c:	a336      	add	r3, pc, #216	; (adr r3, 8005a28 <_strtod_l+0xbd0>)
 800594e:	e9d3 2300 	ldrd	r2, r3, [r3]
 8005952:	f7fb f8e3 	bl	8000b1c <__aeabi_dcmplt>
 8005956:	2800      	cmp	r0, #0
 8005958:	f47f acd0 	bne.w	80052fc <_strtod_l+0x4a4>
 800595c:	a334      	add	r3, pc, #208	; (adr r3, 8005a30 <_strtod_l+0xbd8>)
 800595e:	e9d3 2300 	ldrd	r2, r3, [r3]
 8005962:	4640      	mov	r0, r8
 8005964:	4649      	mov	r1, r9
 8005966:	f7fb f8f7 	bl	8000b58 <__aeabi_dcmpgt>
 800596a:	2800      	cmp	r0, #0
 800596c:	f43f af7b 	beq.w	8005866 <_strtod_l+0xa0e>
 8005970:	e4c4      	b.n	80052fc <_strtod_l+0x4a4>
 8005972:	9b04      	ldr	r3, [sp, #16]
 8005974:	b333      	cbz	r3, 80059c4 <_strtod_l+0xb6c>
 8005976:	9b0d      	ldr	r3, [sp, #52]	; 0x34
 8005978:	f1b3 6fd4 	cmp.w	r3, #111149056	; 0x6a00000
 800597c:	d822      	bhi.n	80059c4 <_strtod_l+0xb6c>
 800597e:	a32e      	add	r3, pc, #184	; (adr r3, 8005a38 <_strtod_l+0xbe0>)
 8005980:	e9d3 2300 	ldrd	r2, r3, [r3]
 8005984:	4640      	mov	r0, r8
 8005986:	4649      	mov	r1, r9
 8005988:	f7fb f8d2 	bl	8000b30 <__aeabi_dcmple>
 800598c:	b1a0      	cbz	r0, 80059b8 <_strtod_l+0xb60>
 800598e:	4649      	mov	r1, r9
 8005990:	4640      	mov	r0, r8
 8005992:	f7fb f929 	bl	8000be8 <__aeabi_d2uiz>
 8005996:	2801      	cmp	r0, #1
 8005998:	bf38      	it	cc
 800599a:	2001      	movcc	r0, #1
 800599c:	f7fa fdd2 	bl	8000544 <__aeabi_ui2d>
 80059a0:	9b0b      	ldr	r3, [sp, #44]	; 0x2c
 80059a2:	4680      	mov	r8, r0
 80059a4:	4689      	mov	r9, r1
 80059a6:	bb23      	cbnz	r3, 80059f2 <_strtod_l+0xb9a>
 80059a8:	f101 4300 	add.w	r3, r1, #2147483648	; 0x80000000
 80059ac:	9010      	str	r0, [sp, #64]	; 0x40
 80059ae:	9311      	str	r3, [sp, #68]	; 0x44
 80059b0:	e9dd 2310 	ldrd	r2, r3, [sp, #64]	; 0x40
 80059b4:	e9cd 2308 	strd	r2, r3, [sp, #32]
 80059b8:	9b09      	ldr	r3, [sp, #36]	; 0x24
 80059ba:	9a0d      	ldr	r2, [sp, #52]	; 0x34
 80059bc:	f103 63d6 	add.w	r3, r3, #112197632	; 0x6b00000
 80059c0:	1a9b      	subs	r3, r3, r2
 80059c2:	9309      	str	r3, [sp, #36]	; 0x24
 80059c4:	e9dd 0108 	ldrd	r0, r1, [sp, #32]
 80059c8:	eeb0 0a48 	vmov.f32	s0, s16
 80059cc:	eef0 0a68 	vmov.f32	s1, s17
 80059d0:	e9cd 0108 	strd	r0, r1, [sp, #32]
 80059d4:	f001 fe8e 	bl	80076f4 <__ulp>
 80059d8:	e9dd 0108 	ldrd	r0, r1, [sp, #32]
 80059dc:	ec53 2b10 	vmov	r2, r3, d0
 80059e0:	f7fa fe2a 	bl	8000638 <__aeabi_dmul>
 80059e4:	ec53 2b18 	vmov	r2, r3, d8
 80059e8:	f7fa fc70 	bl	80002cc <__adddf3>
 80059ec:	4682      	mov	sl, r0
 80059ee:	468b      	mov	fp, r1
 80059f0:	e78d      	b.n	800590e <_strtod_l+0xab6>
 80059f2:	e9cd 8910 	strd	r8, r9, [sp, #64]	; 0x40
 80059f6:	e7db      	b.n	80059b0 <_strtod_l+0xb58>
 80059f8:	a311      	add	r3, pc, #68	; (adr r3, 8005a40 <_strtod_l+0xbe8>)
 80059fa:	e9d3 2300 	ldrd	r2, r3, [r3]
 80059fe:	f7fb f88d 	bl	8000b1c <__aeabi_dcmplt>
 8005a02:	e7b2      	b.n	800596a <_strtod_l+0xb12>
 8005a04:	2300      	movs	r3, #0
 8005a06:	930a      	str	r3, [sp, #40]	; 0x28
 8005a08:	9a13      	ldr	r2, [sp, #76]	; 0x4c
 8005a0a:	9b17      	ldr	r3, [sp, #92]	; 0x5c
 8005a0c:	6013      	str	r3, [r2, #0]
 8005a0e:	f7ff ba6b 	b.w	8004ee8 <_strtod_l+0x90>
 8005a12:	2a65      	cmp	r2, #101	; 0x65
 8005a14:	f43f ab5f 	beq.w	80050d6 <_strtod_l+0x27e>
 8005a18:	2a45      	cmp	r2, #69	; 0x45
 8005a1a:	f43f ab5c 	beq.w	80050d6 <_strtod_l+0x27e>
 8005a1e:	2301      	movs	r3, #1
 8005a20:	f7ff bb94 	b.w	800514c <_strtod_l+0x2f4>
 8005a24:	f3af 8000 	nop.w
 8005a28:	94a03595 	.word	0x94a03595
 8005a2c:	3fdfffff 	.word	0x3fdfffff
 8005a30:	35afe535 	.word	0x35afe535
 8005a34:	3fe00000 	.word	0x3fe00000
 8005a38:	ffc00000 	.word	0xffc00000
 8005a3c:	41dfffff 	.word	0x41dfffff
 8005a40:	94a03595 	.word	0x94a03595
 8005a44:	3fcfffff 	.word	0x3fcfffff
 8005a48:	3ff00000 	.word	0x3ff00000
 8005a4c:	7ff00000 	.word	0x7ff00000
 8005a50:	7fe00000 	.word	0x7fe00000
 8005a54:	7c9fffff 	.word	0x7c9fffff
 8005a58:	3fe00000 	.word	0x3fe00000
 8005a5c:	bff00000 	.word	0xbff00000
 8005a60:	7fefffff 	.word	0x7fefffff

08005a64 <_strtod_r>:
 8005a64:	4b01      	ldr	r3, [pc, #4]	; (8005a6c <_strtod_r+0x8>)
 8005a66:	f7ff b9f7 	b.w	8004e58 <_strtod_l>
 8005a6a:	bf00      	nop
 8005a6c:	20000074 	.word	0x20000074

08005a70 <_strtol_l.constprop.0>:
 8005a70:	2b01      	cmp	r3, #1
 8005a72:	e92d 47f0 	stmdb	sp!, {r4, r5, r6, r7, r8, r9, sl, lr}
 8005a76:	d001      	beq.n	8005a7c <_strtol_l.constprop.0+0xc>
 8005a78:	2b24      	cmp	r3, #36	; 0x24
 8005a7a:	d906      	bls.n	8005a8a <_strtol_l.constprop.0+0x1a>
 8005a7c:	f7fe fa6c 	bl	8003f58 <__errno>
 8005a80:	2316      	movs	r3, #22
 8005a82:	6003      	str	r3, [r0, #0]
 8005a84:	2000      	movs	r0, #0
 8005a86:	e8bd 87f0 	ldmia.w	sp!, {r4, r5, r6, r7, r8, r9, sl, pc}
 8005a8a:	f8df c0e4 	ldr.w	ip, [pc, #228]	; 8005b70 <_strtol_l.constprop.0+0x100>
 8005a8e:	460d      	mov	r5, r1
 8005a90:	462e      	mov	r6, r5
 8005a92:	f815 4b01 	ldrb.w	r4, [r5], #1
 8005a96:	f814 700c 	ldrb.w	r7, [r4, ip]
 8005a9a:	f017 0708 	ands.w	r7, r7, #8
 8005a9e:	d1f7      	bne.n	8005a90 <_strtol_l.constprop.0+0x20>
 8005aa0:	2c2d      	cmp	r4, #45	; 0x2d
 8005aa2:	d132      	bne.n	8005b0a <_strtol_l.constprop.0+0x9a>
 8005aa4:	782c      	ldrb	r4, [r5, #0]
 8005aa6:	2701      	movs	r7, #1
 8005aa8:	1cb5      	adds	r5, r6, #2
 8005aaa:	2b00      	cmp	r3, #0
 8005aac:	d05b      	beq.n	8005b66 <_strtol_l.constprop.0+0xf6>
 8005aae:	2b10      	cmp	r3, #16
 8005ab0:	d109      	bne.n	8005ac6 <_strtol_l.constprop.0+0x56>
 8005ab2:	2c30      	cmp	r4, #48	; 0x30
 8005ab4:	d107      	bne.n	8005ac6 <_strtol_l.constprop.0+0x56>
 8005ab6:	782c      	ldrb	r4, [r5, #0]
 8005ab8:	f004 04df 	and.w	r4, r4, #223	; 0xdf
 8005abc:	2c58      	cmp	r4, #88	; 0x58
 8005abe:	d14d      	bne.n	8005b5c <_strtol_l.constprop.0+0xec>
 8005ac0:	786c      	ldrb	r4, [r5, #1]
 8005ac2:	2310      	movs	r3, #16
 8005ac4:	3502      	adds	r5, #2
 8005ac6:	f107 4800 	add.w	r8, r7, #2147483648	; 0x80000000
 8005aca:	f108 38ff 	add.w	r8, r8, #4294967295
 8005ace:	f04f 0c00 	mov.w	ip, #0
 8005ad2:	fbb8 f9f3 	udiv	r9, r8, r3
 8005ad6:	4666      	mov	r6, ip
 8005ad8:	fb03 8a19 	mls	sl, r3, r9, r8
 8005adc:	f1a4 0e30 	sub.w	lr, r4, #48	; 0x30
 8005ae0:	f1be 0f09 	cmp.w	lr, #9
 8005ae4:	d816      	bhi.n	8005b14 <_strtol_l.constprop.0+0xa4>
 8005ae6:	4674      	mov	r4, lr
 8005ae8:	42a3      	cmp	r3, r4
 8005aea:	dd24      	ble.n	8005b36 <_strtol_l.constprop.0+0xc6>
 8005aec:	f1bc 0f00 	cmp.w	ip, #0
 8005af0:	db1e      	blt.n	8005b30 <_strtol_l.constprop.0+0xc0>
 8005af2:	45b1      	cmp	r9, r6
 8005af4:	d31c      	bcc.n	8005b30 <_strtol_l.constprop.0+0xc0>
 8005af6:	d101      	bne.n	8005afc <_strtol_l.constprop.0+0x8c>
 8005af8:	45a2      	cmp	sl, r4
 8005afa:	db19      	blt.n	8005b30 <_strtol_l.constprop.0+0xc0>
 8005afc:	fb06 4603 	mla	r6, r6, r3, r4
 8005b00:	f04f 0c01 	mov.w	ip, #1
 8005b04:	f815 4b01 	ldrb.w	r4, [r5], #1
 8005b08:	e7e8      	b.n	8005adc <_strtol_l.constprop.0+0x6c>
 8005b0a:	2c2b      	cmp	r4, #43	; 0x2b
 8005b0c:	bf04      	itt	eq
 8005b0e:	782c      	ldrbeq	r4, [r5, #0]
 8005b10:	1cb5      	addeq	r5, r6, #2
 8005b12:	e7ca      	b.n	8005aaa <_strtol_l.constprop.0+0x3a>
 8005b14:	f1a4 0e41 	sub.w	lr, r4, #65	; 0x41
 8005b18:	f1be 0f19 	cmp.w	lr, #25
 8005b1c:	d801      	bhi.n	8005b22 <_strtol_l.constprop.0+0xb2>
 8005b1e:	3c37      	subs	r4, #55	; 0x37
 8005b20:	e7e2      	b.n	8005ae8 <_strtol_l.constprop.0+0x78>
 8005b22:	f1a4 0e61 	sub.w	lr, r4, #97	; 0x61
 8005b26:	f1be 0f19 	cmp.w	lr, #25
 8005b2a:	d804      	bhi.n	8005b36 <_strtol_l.constprop.0+0xc6>
 8005b2c:	3c57      	subs	r4, #87	; 0x57
 8005b2e:	e7db      	b.n	8005ae8 <_strtol_l.constprop.0+0x78>
 8005b30:	f04f 3cff 	mov.w	ip, #4294967295
 8005b34:	e7e6      	b.n	8005b04 <_strtol_l.constprop.0+0x94>
 8005b36:	f1bc 0f00 	cmp.w	ip, #0
 8005b3a:	da05      	bge.n	8005b48 <_strtol_l.constprop.0+0xd8>
 8005b3c:	2322      	movs	r3, #34	; 0x22
 8005b3e:	6003      	str	r3, [r0, #0]
 8005b40:	4646      	mov	r6, r8
 8005b42:	b942      	cbnz	r2, 8005b56 <_strtol_l.constprop.0+0xe6>
 8005b44:	4630      	mov	r0, r6
 8005b46:	e79e      	b.n	8005a86 <_strtol_l.constprop.0+0x16>
 8005b48:	b107      	cbz	r7, 8005b4c <_strtol_l.constprop.0+0xdc>
 8005b4a:	4276      	negs	r6, r6
 8005b4c:	2a00      	cmp	r2, #0
 8005b4e:	d0f9      	beq.n	8005b44 <_strtol_l.constprop.0+0xd4>
 8005b50:	f1bc 0f00 	cmp.w	ip, #0
 8005b54:	d000      	beq.n	8005b58 <_strtol_l.constprop.0+0xe8>
 8005b56:	1e69      	subs	r1, r5, #1
 8005b58:	6011      	str	r1, [r2, #0]
 8005b5a:	e7f3      	b.n	8005b44 <_strtol_l.constprop.0+0xd4>
 8005b5c:	2430      	movs	r4, #48	; 0x30
 8005b5e:	2b00      	cmp	r3, #0
 8005b60:	d1b1      	bne.n	8005ac6 <_strtol_l.constprop.0+0x56>
 8005b62:	2308      	movs	r3, #8
 8005b64:	e7af      	b.n	8005ac6 <_strtol_l.constprop.0+0x56>
 8005b66:	2c30      	cmp	r4, #48	; 0x30
 8005b68:	d0a5      	beq.n	8005ab6 <_strtol_l.constprop.0+0x46>
 8005b6a:	230a      	movs	r3, #10
 8005b6c:	e7ab      	b.n	8005ac6 <_strtol_l.constprop.0+0x56>
 8005b6e:	bf00      	nop
 8005b70:	08009279 	.word	0x08009279

08005b74 <_strtol_r>:
 8005b74:	f7ff bf7c 	b.w	8005a70 <_strtol_l.constprop.0>

08005b78 <_write_r>:
 8005b78:	b538      	push	{r3, r4, r5, lr}
 8005b7a:	4d07      	ldr	r5, [pc, #28]	; (8005b98 <_write_r+0x20>)
 8005b7c:	4604      	mov	r4, r0
 8005b7e:	4608      	mov	r0, r1
 8005b80:	4611      	mov	r1, r2
 8005b82:	2200      	movs	r2, #0
 8005b84:	602a      	str	r2, [r5, #0]
 8005b86:	461a      	mov	r2, r3
 8005b88:	f7fb fe41 	bl	800180e <_write>
 8005b8c:	1c43      	adds	r3, r0, #1
 8005b8e:	d102      	bne.n	8005b96 <_write_r+0x1e>
 8005b90:	682b      	ldr	r3, [r5, #0]
 8005b92:	b103      	cbz	r3, 8005b96 <_write_r+0x1e>
 8005b94:	6023      	str	r3, [r4, #0]
 8005b96:	bd38      	pop	{r3, r4, r5, pc}
 8005b98:	2000095c 	.word	0x2000095c

08005b9c <_close_r>:
 8005b9c:	b538      	push	{r3, r4, r5, lr}
 8005b9e:	4d06      	ldr	r5, [pc, #24]	; (8005bb8 <_close_r+0x1c>)
 8005ba0:	2300      	movs	r3, #0
 8005ba2:	4604      	mov	r4, r0
 8005ba4:	4608      	mov	r0, r1
 8005ba6:	602b      	str	r3, [r5, #0]
 8005ba8:	f7fb fe4d 	bl	8001846 <_close>
 8005bac:	1c43      	adds	r3, r0, #1
 8005bae:	d102      	bne.n	8005bb6 <_close_r+0x1a>
 8005bb0:	682b      	ldr	r3, [r5, #0]
 8005bb2:	b103      	cbz	r3, 8005bb6 <_close_r+0x1a>
 8005bb4:	6023      	str	r3, [r4, #0]
 8005bb6:	bd38      	pop	{r3, r4, r5, pc}
 8005bb8:	2000095c 	.word	0x2000095c

08005bbc <quorem>:
 8005bbc:	e92d 4ff7 	stmdb	sp!, {r0, r1, r2, r4, r5, r6, r7, r8, r9, sl, fp, lr}
 8005bc0:	6903      	ldr	r3, [r0, #16]
 8005bc2:	690c      	ldr	r4, [r1, #16]
 8005bc4:	42a3      	cmp	r3, r4
 8005bc6:	4607      	mov	r7, r0
 8005bc8:	f2c0 8081 	blt.w	8005cce <quorem+0x112>
 8005bcc:	3c01      	subs	r4, #1
 8005bce:	f101 0814 	add.w	r8, r1, #20
 8005bd2:	f100 0514 	add.w	r5, r0, #20
 8005bd6:	eb05 0384 	add.w	r3, r5, r4, lsl #2
 8005bda:	9301      	str	r3, [sp, #4]
 8005bdc:	f858 3024 	ldr.w	r3, [r8, r4, lsl #2]
 8005be0:	f855 2024 	ldr.w	r2, [r5, r4, lsl #2]
 8005be4:	3301      	adds	r3, #1
 8005be6:	429a      	cmp	r2, r3
 8005be8:	ea4f 0b84 	mov.w	fp, r4, lsl #2
 8005bec:	eb08 0984 	add.w	r9, r8, r4, lsl #2
 8005bf0:	fbb2 f6f3 	udiv	r6, r2, r3
 8005bf4:	d331      	bcc.n	8005c5a <quorem+0x9e>
 8005bf6:	f04f 0e00 	mov.w	lr, #0
 8005bfa:	4640      	mov	r0, r8
 8005bfc:	46ac      	mov	ip, r5
 8005bfe:	46f2      	mov	sl, lr
 8005c00:	f850 2b04 	ldr.w	r2, [r0], #4
 8005c04:	b293      	uxth	r3, r2
 8005c06:	fb06 e303 	mla	r3, r6, r3, lr
 8005c0a:	ea4f 4e13 	mov.w	lr, r3, lsr #16
 8005c0e:	b29b      	uxth	r3, r3
 8005c10:	ebaa 0303 	sub.w	r3, sl, r3
 8005c14:	f8dc a000 	ldr.w	sl, [ip]
 8005c18:	0c12      	lsrs	r2, r2, #16
 8005c1a:	fa13 f38a 	uxtah	r3, r3, sl
 8005c1e:	fb06 e202 	mla	r2, r6, r2, lr
 8005c22:	9300      	str	r3, [sp, #0]
 8005c24:	9b00      	ldr	r3, [sp, #0]
 8005c26:	ea4f 4e12 	mov.w	lr, r2, lsr #16
 8005c2a:	b292      	uxth	r2, r2
 8005c2c:	ebc2 421a 	rsb	r2, r2, sl, lsr #16
 8005c30:	eb02 4223 	add.w	r2, r2, r3, asr #16
 8005c34:	f8bd 3000 	ldrh.w	r3, [sp]
 8005c38:	4581      	cmp	r9, r0
 8005c3a:	ea43 4302 	orr.w	r3, r3, r2, lsl #16
 8005c3e:	f84c 3b04 	str.w	r3, [ip], #4
 8005c42:	ea4f 4a22 	mov.w	sl, r2, asr #16
 8005c46:	d2db      	bcs.n	8005c00 <quorem+0x44>
 8005c48:	f855 300b 	ldr.w	r3, [r5, fp]
 8005c4c:	b92b      	cbnz	r3, 8005c5a <quorem+0x9e>
 8005c4e:	9b01      	ldr	r3, [sp, #4]
 8005c50:	3b04      	subs	r3, #4
 8005c52:	429d      	cmp	r5, r3
 8005c54:	461a      	mov	r2, r3
 8005c56:	d32e      	bcc.n	8005cb6 <quorem+0xfa>
 8005c58:	613c      	str	r4, [r7, #16]
 8005c5a:	4638      	mov	r0, r7
 8005c5c:	f001 fca4 	bl	80075a8 <__mcmp>
 8005c60:	2800      	cmp	r0, #0
 8005c62:	db24      	blt.n	8005cae <quorem+0xf2>
 8005c64:	3601      	adds	r6, #1
 8005c66:	4628      	mov	r0, r5
 8005c68:	f04f 0c00 	mov.w	ip, #0
 8005c6c:	f858 2b04 	ldr.w	r2, [r8], #4
 8005c70:	f8d0 e000 	ldr.w	lr, [r0]
 8005c74:	b293      	uxth	r3, r2
 8005c76:	ebac 0303 	sub.w	r3, ip, r3
 8005c7a:	0c12      	lsrs	r2, r2, #16
 8005c7c:	fa13 f38e 	uxtah	r3, r3, lr
 8005c80:	ebc2 421e 	rsb	r2, r2, lr, lsr #16
 8005c84:	eb02 4223 	add.w	r2, r2, r3, asr #16
 8005c88:	b29b      	uxth	r3, r3
 8005c8a:	ea43 4302 	orr.w	r3, r3, r2, lsl #16
 8005c8e:	45c1      	cmp	r9, r8
 8005c90:	f840 3b04 	str.w	r3, [r0], #4
 8005c94:	ea4f 4c22 	mov.w	ip, r2, asr #16
 8005c98:	d2e8      	bcs.n	8005c6c <quorem+0xb0>
 8005c9a:	f855 2024 	ldr.w	r2, [r5, r4, lsl #2]
 8005c9e:	eb05 0384 	add.w	r3, r5, r4, lsl #2
 8005ca2:	b922      	cbnz	r2, 8005cae <quorem+0xf2>
 8005ca4:	3b04      	subs	r3, #4
 8005ca6:	429d      	cmp	r5, r3
 8005ca8:	461a      	mov	r2, r3
 8005caa:	d30a      	bcc.n	8005cc2 <quorem+0x106>
 8005cac:	613c      	str	r4, [r7, #16]
 8005cae:	4630      	mov	r0, r6
 8005cb0:	b003      	add	sp, #12
 8005cb2:	e8bd 8ff0 	ldmia.w	sp!, {r4, r5, r6, r7, r8, r9, sl, fp, pc}
 8005cb6:	6812      	ldr	r2, [r2, #0]
 8005cb8:	3b04      	subs	r3, #4
 8005cba:	2a00      	cmp	r2, #0
 8005cbc:	d1cc      	bne.n	8005c58 <quorem+0x9c>
 8005cbe:	3c01      	subs	r4, #1
 8005cc0:	e7c7      	b.n	8005c52 <quorem+0x96>
 8005cc2:	6812      	ldr	r2, [r2, #0]
 8005cc4:	3b04      	subs	r3, #4
 8005cc6:	2a00      	cmp	r2, #0
 8005cc8:	d1f0      	bne.n	8005cac <quorem+0xf0>
 8005cca:	3c01      	subs	r4, #1
 8005ccc:	e7eb      	b.n	8005ca6 <quorem+0xea>
 8005cce:	2000      	movs	r0, #0
 8005cd0:	e7ee      	b.n	8005cb0 <quorem+0xf4>
 8005cd2:	0000      	movs	r0, r0
 8005cd4:	0000      	movs	r0, r0
	...

08005cd8 <_dtoa_r>:
 8005cd8:	e92d 4ff0 	stmdb	sp!, {r4, r5, r6, r7, r8, r9, sl, fp, lr}
 8005cdc:	ed2d 8b04 	vpush	{d8-d9}
 8005ce0:	ec57 6b10 	vmov	r6, r7, d0
 8005ce4:	b093      	sub	sp, #76	; 0x4c
 8005ce6:	6a45      	ldr	r5, [r0, #36]	; 0x24
 8005ce8:	f8dd 8080 	ldr.w	r8, [sp, #128]	; 0x80
 8005cec:	9106      	str	r1, [sp, #24]
 8005cee:	ee10 aa10 	vmov	sl, s0
 8005cf2:	4604      	mov	r4, r0
 8005cf4:	9209      	str	r2, [sp, #36]	; 0x24
 8005cf6:	930c      	str	r3, [sp, #48]	; 0x30
 8005cf8:	46bb      	mov	fp, r7
 8005cfa:	b975      	cbnz	r5, 8005d1a <_dtoa_r+0x42>
 8005cfc:	2010      	movs	r0, #16
 8005cfe:	f001 f95f 	bl	8006fc0 <malloc>
 8005d02:	4602      	mov	r2, r0
 8005d04:	6260      	str	r0, [r4, #36]	; 0x24
 8005d06:	b920      	cbnz	r0, 8005d12 <_dtoa_r+0x3a>
 8005d08:	4ba7      	ldr	r3, [pc, #668]	; (8005fa8 <_dtoa_r+0x2d0>)
 8005d0a:	21ea      	movs	r1, #234	; 0xea
 8005d0c:	48a7      	ldr	r0, [pc, #668]	; (8005fac <_dtoa_r+0x2d4>)
 8005d0e:	f002 fceb 	bl	80086e8 <__assert_func>
 8005d12:	e9c0 5501 	strd	r5, r5, [r0, #4]
 8005d16:	6005      	str	r5, [r0, #0]
 8005d18:	60c5      	str	r5, [r0, #12]
 8005d1a:	6a63      	ldr	r3, [r4, #36]	; 0x24
 8005d1c:	6819      	ldr	r1, [r3, #0]
 8005d1e:	b151      	cbz	r1, 8005d36 <_dtoa_r+0x5e>
 8005d20:	685a      	ldr	r2, [r3, #4]
 8005d22:	604a      	str	r2, [r1, #4]
 8005d24:	2301      	movs	r3, #1
 8005d26:	4093      	lsls	r3, r2
 8005d28:	608b      	str	r3, [r1, #8]
 8005d2a:	4620      	mov	r0, r4
 8005d2c:	f001 f9b0 	bl	8007090 <_Bfree>
 8005d30:	6a63      	ldr	r3, [r4, #36]	; 0x24
 8005d32:	2200      	movs	r2, #0
 8005d34:	601a      	str	r2, [r3, #0]
 8005d36:	1e3b      	subs	r3, r7, #0
 8005d38:	bfaa      	itet	ge
 8005d3a:	2300      	movge	r3, #0
 8005d3c:	f023 4b00 	biclt.w	fp, r3, #2147483648	; 0x80000000
 8005d40:	f8c8 3000 	strge.w	r3, [r8]
 8005d44:	4b9a      	ldr	r3, [pc, #616]	; (8005fb0 <_dtoa_r+0x2d8>)
 8005d46:	bfbc      	itt	lt
 8005d48:	2201      	movlt	r2, #1
 8005d4a:	f8c8 2000 	strlt.w	r2, [r8]
 8005d4e:	ea33 030b 	bics.w	r3, r3, fp
 8005d52:	d11b      	bne.n	8005d8c <_dtoa_r+0xb4>
 8005d54:	9a0c      	ldr	r2, [sp, #48]	; 0x30
 8005d56:	f242 730f 	movw	r3, #9999	; 0x270f
 8005d5a:	6013      	str	r3, [r2, #0]
 8005d5c:	f3cb 0313 	ubfx	r3, fp, #0, #20
 8005d60:	4333      	orrs	r3, r6
 8005d62:	f000 8592 	beq.w	800688a <_dtoa_r+0xbb2>
 8005d66:	9b21      	ldr	r3, [sp, #132]	; 0x84
 8005d68:	b963      	cbnz	r3, 8005d84 <_dtoa_r+0xac>
 8005d6a:	4b92      	ldr	r3, [pc, #584]	; (8005fb4 <_dtoa_r+0x2dc>)
 8005d6c:	e022      	b.n	8005db4 <_dtoa_r+0xdc>
 8005d6e:	4b92      	ldr	r3, [pc, #584]	; (8005fb8 <_dtoa_r+0x2e0>)
 8005d70:	9301      	str	r3, [sp, #4]
 8005d72:	3308      	adds	r3, #8
 8005d74:	9a21      	ldr	r2, [sp, #132]	; 0x84
 8005d76:	6013      	str	r3, [r2, #0]
 8005d78:	9801      	ldr	r0, [sp, #4]
 8005d7a:	b013      	add	sp, #76	; 0x4c
 8005d7c:	ecbd 8b04 	vpop	{d8-d9}
 8005d80:	e8bd 8ff0 	ldmia.w	sp!, {r4, r5, r6, r7, r8, r9, sl, fp, pc}
 8005d84:	4b8b      	ldr	r3, [pc, #556]	; (8005fb4 <_dtoa_r+0x2dc>)
 8005d86:	9301      	str	r3, [sp, #4]
 8005d88:	3303      	adds	r3, #3
 8005d8a:	e7f3      	b.n	8005d74 <_dtoa_r+0x9c>
 8005d8c:	2200      	movs	r2, #0
 8005d8e:	2300      	movs	r3, #0
 8005d90:	4650      	mov	r0, sl
 8005d92:	4659      	mov	r1, fp
 8005d94:	f7fa feb8 	bl	8000b08 <__aeabi_dcmpeq>
 8005d98:	ec4b ab19 	vmov	d9, sl, fp
 8005d9c:	4680      	mov	r8, r0
 8005d9e:	b158      	cbz	r0, 8005db8 <_dtoa_r+0xe0>
 8005da0:	9a0c      	ldr	r2, [sp, #48]	; 0x30
 8005da2:	2301      	movs	r3, #1
 8005da4:	6013      	str	r3, [r2, #0]
 8005da6:	9b21      	ldr	r3, [sp, #132]	; 0x84
 8005da8:	2b00      	cmp	r3, #0
 8005daa:	f000 856b 	beq.w	8006884 <_dtoa_r+0xbac>
 8005dae:	4883      	ldr	r0, [pc, #524]	; (8005fbc <_dtoa_r+0x2e4>)
 8005db0:	6018      	str	r0, [r3, #0]
 8005db2:	1e43      	subs	r3, r0, #1
 8005db4:	9301      	str	r3, [sp, #4]
 8005db6:	e7df      	b.n	8005d78 <_dtoa_r+0xa0>
 8005db8:	ec4b ab10 	vmov	d0, sl, fp
 8005dbc:	aa10      	add	r2, sp, #64	; 0x40
 8005dbe:	a911      	add	r1, sp, #68	; 0x44
 8005dc0:	4620      	mov	r0, r4
 8005dc2:	f001 fd13 	bl	80077ec <__d2b>
 8005dc6:	f3cb 550a 	ubfx	r5, fp, #20, #11
 8005dca:	ee08 0a10 	vmov	s16, r0
 8005dce:	2d00      	cmp	r5, #0
 8005dd0:	f000 8084 	beq.w	8005edc <_dtoa_r+0x204>
 8005dd4:	ee19 3a90 	vmov	r3, s19
 8005dd8:	f3c3 0313 	ubfx	r3, r3, #0, #20
 8005ddc:	f043 577f 	orr.w	r7, r3, #1069547520	; 0x3fc00000
 8005de0:	4656      	mov	r6, sl
 8005de2:	f447 1740 	orr.w	r7, r7, #3145728	; 0x300000
 8005de6:	f2a5 35ff 	subw	r5, r5, #1023	; 0x3ff
 8005dea:	f8cd 8038 	str.w	r8, [sp, #56]	; 0x38
 8005dee:	4b74      	ldr	r3, [pc, #464]	; (8005fc0 <_dtoa_r+0x2e8>)
 8005df0:	2200      	movs	r2, #0
 8005df2:	4630      	mov	r0, r6
 8005df4:	4639      	mov	r1, r7
 8005df6:	f7fa fa67 	bl	80002c8 <__aeabi_dsub>
 8005dfa:	a365      	add	r3, pc, #404	; (adr r3, 8005f90 <_dtoa_r+0x2b8>)
 8005dfc:	e9d3 2300 	ldrd	r2, r3, [r3]
 8005e00:	f7fa fc1a 	bl	8000638 <__aeabi_dmul>
 8005e04:	a364      	add	r3, pc, #400	; (adr r3, 8005f98 <_dtoa_r+0x2c0>)
 8005e06:	e9d3 2300 	ldrd	r2, r3, [r3]
 8005e0a:	f7fa fa5f 	bl	80002cc <__adddf3>
 8005e0e:	4606      	mov	r6, r0
 8005e10:	4628      	mov	r0, r5
 8005e12:	460f      	mov	r7, r1
 8005e14:	f7fa fba6 	bl	8000564 <__aeabi_i2d>
 8005e18:	a361      	add	r3, pc, #388	; (adr r3, 8005fa0 <_dtoa_r+0x2c8>)
 8005e1a:	e9d3 2300 	ldrd	r2, r3, [r3]
 8005e1e:	f7fa fc0b 	bl	8000638 <__aeabi_dmul>
 8005e22:	4602      	mov	r2, r0
 8005e24:	460b      	mov	r3, r1
 8005e26:	4630      	mov	r0, r6
 8005e28:	4639      	mov	r1, r7
 8005e2a:	f7fa fa4f 	bl	80002cc <__adddf3>
 8005e2e:	4606      	mov	r6, r0
 8005e30:	460f      	mov	r7, r1
 8005e32:	f7fa feb1 	bl	8000b98 <__aeabi_d2iz>
 8005e36:	2200      	movs	r2, #0
 8005e38:	9000      	str	r0, [sp, #0]
 8005e3a:	2300      	movs	r3, #0
 8005e3c:	4630      	mov	r0, r6
 8005e3e:	4639      	mov	r1, r7
 8005e40:	f7fa fe6c 	bl	8000b1c <__aeabi_dcmplt>
 8005e44:	b150      	cbz	r0, 8005e5c <_dtoa_r+0x184>
 8005e46:	9800      	ldr	r0, [sp, #0]
 8005e48:	f7fa fb8c 	bl	8000564 <__aeabi_i2d>
 8005e4c:	4632      	mov	r2, r6
 8005e4e:	463b      	mov	r3, r7
 8005e50:	f7fa fe5a 	bl	8000b08 <__aeabi_dcmpeq>
 8005e54:	b910      	cbnz	r0, 8005e5c <_dtoa_r+0x184>
 8005e56:	9b00      	ldr	r3, [sp, #0]
 8005e58:	3b01      	subs	r3, #1
 8005e5a:	9300      	str	r3, [sp, #0]
 8005e5c:	9b00      	ldr	r3, [sp, #0]
 8005e5e:	2b16      	cmp	r3, #22
 8005e60:	d85a      	bhi.n	8005f18 <_dtoa_r+0x240>
 8005e62:	9a00      	ldr	r2, [sp, #0]
 8005e64:	4b57      	ldr	r3, [pc, #348]	; (8005fc4 <_dtoa_r+0x2ec>)
 8005e66:	eb03 03c2 	add.w	r3, r3, r2, lsl #3
 8005e6a:	e9d3 2300 	ldrd	r2, r3, [r3]
 8005e6e:	ec51 0b19 	vmov	r0, r1, d9
 8005e72:	f7fa fe53 	bl	8000b1c <__aeabi_dcmplt>
 8005e76:	2800      	cmp	r0, #0
 8005e78:	d050      	beq.n	8005f1c <_dtoa_r+0x244>
 8005e7a:	9b00      	ldr	r3, [sp, #0]
 8005e7c:	3b01      	subs	r3, #1
 8005e7e:	9300      	str	r3, [sp, #0]
 8005e80:	2300      	movs	r3, #0
 8005e82:	930b      	str	r3, [sp, #44]	; 0x2c
 8005e84:	9b10      	ldr	r3, [sp, #64]	; 0x40
 8005e86:	1b5d      	subs	r5, r3, r5
 8005e88:	1e6b      	subs	r3, r5, #1
 8005e8a:	9305      	str	r3, [sp, #20]
 8005e8c:	bf45      	ittet	mi
 8005e8e:	f1c5 0301 	rsbmi	r3, r5, #1
 8005e92:	9304      	strmi	r3, [sp, #16]
 8005e94:	2300      	movpl	r3, #0
 8005e96:	2300      	movmi	r3, #0
 8005e98:	bf4c      	ite	mi
 8005e9a:	9305      	strmi	r3, [sp, #20]
 8005e9c:	9304      	strpl	r3, [sp, #16]
 8005e9e:	9b00      	ldr	r3, [sp, #0]
 8005ea0:	2b00      	cmp	r3, #0
 8005ea2:	db3d      	blt.n	8005f20 <_dtoa_r+0x248>
 8005ea4:	9b05      	ldr	r3, [sp, #20]
 8005ea6:	9a00      	ldr	r2, [sp, #0]
 8005ea8:	920a      	str	r2, [sp, #40]	; 0x28
 8005eaa:	4413      	add	r3, r2
 8005eac:	9305      	str	r3, [sp, #20]
 8005eae:	2300      	movs	r3, #0
 8005eb0:	9307      	str	r3, [sp, #28]
 8005eb2:	9b06      	ldr	r3, [sp, #24]
 8005eb4:	2b09      	cmp	r3, #9
 8005eb6:	f200 8089 	bhi.w	8005fcc <_dtoa_r+0x2f4>
 8005eba:	2b05      	cmp	r3, #5
 8005ebc:	bfc4      	itt	gt
 8005ebe:	3b04      	subgt	r3, #4
 8005ec0:	9306      	strgt	r3, [sp, #24]
 8005ec2:	9b06      	ldr	r3, [sp, #24]
 8005ec4:	f1a3 0302 	sub.w	r3, r3, #2
 8005ec8:	bfcc      	ite	gt
 8005eca:	2500      	movgt	r5, #0
 8005ecc:	2501      	movle	r5, #1
 8005ece:	2b03      	cmp	r3, #3
 8005ed0:	f200 8087 	bhi.w	8005fe2 <_dtoa_r+0x30a>
 8005ed4:	e8df f003 	tbb	[pc, r3]
 8005ed8:	59383a2d 	.word	0x59383a2d
 8005edc:	e9dd 5310 	ldrd	r5, r3, [sp, #64]	; 0x40
 8005ee0:	441d      	add	r5, r3
 8005ee2:	f205 4332 	addw	r3, r5, #1074	; 0x432
 8005ee6:	2b20      	cmp	r3, #32
 8005ee8:	bfc1      	itttt	gt
 8005eea:	f1c3 0340 	rsbgt	r3, r3, #64	; 0x40
 8005eee:	f205 4012 	addwgt	r0, r5, #1042	; 0x412
 8005ef2:	fa0b f303 	lslgt.w	r3, fp, r3
 8005ef6:	fa26 f000 	lsrgt.w	r0, r6, r0
 8005efa:	bfda      	itte	le
 8005efc:	f1c3 0320 	rsble	r3, r3, #32
 8005f00:	fa06 f003 	lslle.w	r0, r6, r3
 8005f04:	4318      	orrgt	r0, r3
 8005f06:	f7fa fb1d 	bl	8000544 <__aeabi_ui2d>
 8005f0a:	2301      	movs	r3, #1
 8005f0c:	4606      	mov	r6, r0
 8005f0e:	f1a1 77f8 	sub.w	r7, r1, #32505856	; 0x1f00000
 8005f12:	3d01      	subs	r5, #1
 8005f14:	930e      	str	r3, [sp, #56]	; 0x38
 8005f16:	e76a      	b.n	8005dee <_dtoa_r+0x116>
 8005f18:	2301      	movs	r3, #1
 8005f1a:	e7b2      	b.n	8005e82 <_dtoa_r+0x1aa>
 8005f1c:	900b      	str	r0, [sp, #44]	; 0x2c
 8005f1e:	e7b1      	b.n	8005e84 <_dtoa_r+0x1ac>
 8005f20:	9b04      	ldr	r3, [sp, #16]
 8005f22:	9a00      	ldr	r2, [sp, #0]
 8005f24:	1a9b      	subs	r3, r3, r2
 8005f26:	9304      	str	r3, [sp, #16]
 8005f28:	4253      	negs	r3, r2
 8005f2a:	9307      	str	r3, [sp, #28]
 8005f2c:	2300      	movs	r3, #0
 8005f2e:	930a      	str	r3, [sp, #40]	; 0x28
 8005f30:	e7bf      	b.n	8005eb2 <_dtoa_r+0x1da>
 8005f32:	2300      	movs	r3, #0
 8005f34:	9308      	str	r3, [sp, #32]
 8005f36:	9b09      	ldr	r3, [sp, #36]	; 0x24
 8005f38:	2b00      	cmp	r3, #0
 8005f3a:	dc55      	bgt.n	8005fe8 <_dtoa_r+0x310>
 8005f3c:	2301      	movs	r3, #1
 8005f3e:	e9cd 3302 	strd	r3, r3, [sp, #8]
 8005f42:	461a      	mov	r2, r3
 8005f44:	9209      	str	r2, [sp, #36]	; 0x24
 8005f46:	e00c      	b.n	8005f62 <_dtoa_r+0x28a>
 8005f48:	2301      	movs	r3, #1
 8005f4a:	e7f3      	b.n	8005f34 <_dtoa_r+0x25c>
 8005f4c:	2300      	movs	r3, #0
 8005f4e:	9a09      	ldr	r2, [sp, #36]	; 0x24
 8005f50:	9308      	str	r3, [sp, #32]
 8005f52:	9b00      	ldr	r3, [sp, #0]
 8005f54:	4413      	add	r3, r2
 8005f56:	9302      	str	r3, [sp, #8]
 8005f58:	3301      	adds	r3, #1
 8005f5a:	2b01      	cmp	r3, #1
 8005f5c:	9303      	str	r3, [sp, #12]
 8005f5e:	bfb8      	it	lt
 8005f60:	2301      	movlt	r3, #1
 8005f62:	6a60      	ldr	r0, [r4, #36]	; 0x24
 8005f64:	2200      	movs	r2, #0
 8005f66:	6042      	str	r2, [r0, #4]
 8005f68:	2204      	movs	r2, #4
 8005f6a:	f102 0614 	add.w	r6, r2, #20
 8005f6e:	429e      	cmp	r6, r3
 8005f70:	6841      	ldr	r1, [r0, #4]
 8005f72:	d93d      	bls.n	8005ff0 <_dtoa_r+0x318>
 8005f74:	4620      	mov	r0, r4
 8005f76:	f001 f84b 	bl	8007010 <_Balloc>
 8005f7a:	9001      	str	r0, [sp, #4]
 8005f7c:	2800      	cmp	r0, #0
 8005f7e:	d13b      	bne.n	8005ff8 <_dtoa_r+0x320>
 8005f80:	4b11      	ldr	r3, [pc, #68]	; (8005fc8 <_dtoa_r+0x2f0>)
 8005f82:	4602      	mov	r2, r0
 8005f84:	f44f 71d5 	mov.w	r1, #426	; 0x1aa
 8005f88:	e6c0      	b.n	8005d0c <_dtoa_r+0x34>
 8005f8a:	2301      	movs	r3, #1
 8005f8c:	e7df      	b.n	8005f4e <_dtoa_r+0x276>
 8005f8e:	bf00      	nop
 8005f90:	636f4361 	.word	0x636f4361
 8005f94:	3fd287a7 	.word	0x3fd287a7
 8005f98:	8b60c8b3 	.word	0x8b60c8b3
 8005f9c:	3fc68a28 	.word	0x3fc68a28
 8005fa0:	509f79fb 	.word	0x509f79fb
 8005fa4:	3fd34413 	.word	0x3fd34413
 8005fa8:	08009386 	.word	0x08009386
 8005fac:	0800939d 	.word	0x0800939d
 8005fb0:	7ff00000 	.word	0x7ff00000
 8005fb4:	08009382 	.word	0x08009382
 8005fb8:	08009379 	.word	0x08009379
 8005fbc:	080095f2 	.word	0x080095f2
 8005fc0:	3ff80000 	.word	0x3ff80000
 8005fc4:	08009508 	.word	0x08009508
 8005fc8:	080093f8 	.word	0x080093f8
 8005fcc:	2501      	movs	r5, #1
 8005fce:	2300      	movs	r3, #0
 8005fd0:	9306      	str	r3, [sp, #24]
 8005fd2:	9508      	str	r5, [sp, #32]
 8005fd4:	f04f 33ff 	mov.w	r3, #4294967295
 8005fd8:	e9cd 3302 	strd	r3, r3, [sp, #8]
 8005fdc:	2200      	movs	r2, #0
 8005fde:	2312      	movs	r3, #18
 8005fe0:	e7b0      	b.n	8005f44 <_dtoa_r+0x26c>
 8005fe2:	2301      	movs	r3, #1
 8005fe4:	9308      	str	r3, [sp, #32]
 8005fe6:	e7f5      	b.n	8005fd4 <_dtoa_r+0x2fc>
 8005fe8:	9b09      	ldr	r3, [sp, #36]	; 0x24
 8005fea:	e9cd 3302 	strd	r3, r3, [sp, #8]
 8005fee:	e7b8      	b.n	8005f62 <_dtoa_r+0x28a>
 8005ff0:	3101      	adds	r1, #1
 8005ff2:	6041      	str	r1, [r0, #4]
 8005ff4:	0052      	lsls	r2, r2, #1
 8005ff6:	e7b8      	b.n	8005f6a <_dtoa_r+0x292>
 8005ff8:	6a63      	ldr	r3, [r4, #36]	; 0x24
 8005ffa:	9a01      	ldr	r2, [sp, #4]
 8005ffc:	601a      	str	r2, [r3, #0]
 8005ffe:	9b03      	ldr	r3, [sp, #12]
 8006000:	2b0e      	cmp	r3, #14
 8006002:	f200 809d 	bhi.w	8006140 <_dtoa_r+0x468>
 8006006:	2d00      	cmp	r5, #0
 8006008:	f000 809a 	beq.w	8006140 <_dtoa_r+0x468>
 800600c:	9b00      	ldr	r3, [sp, #0]
 800600e:	2b00      	cmp	r3, #0
 8006010:	dd32      	ble.n	8006078 <_dtoa_r+0x3a0>
 8006012:	4ab7      	ldr	r2, [pc, #732]	; (80062f0 <_dtoa_r+0x618>)
 8006014:	f003 030f 	and.w	r3, r3, #15
 8006018:	eb02 03c3 	add.w	r3, r2, r3, lsl #3
 800601c:	e9d3 8900 	ldrd	r8, r9, [r3]
 8006020:	9b00      	ldr	r3, [sp, #0]
 8006022:	05d8      	lsls	r0, r3, #23
 8006024:	ea4f 1723 	mov.w	r7, r3, asr #4
 8006028:	d516      	bpl.n	8006058 <_dtoa_r+0x380>
 800602a:	4bb2      	ldr	r3, [pc, #712]	; (80062f4 <_dtoa_r+0x61c>)
 800602c:	ec51 0b19 	vmov	r0, r1, d9
 8006030:	e9d3 2308 	ldrd	r2, r3, [r3, #32]
 8006034:	f7fa fc2a 	bl	800088c <__aeabi_ddiv>
 8006038:	f007 070f 	and.w	r7, r7, #15
 800603c:	4682      	mov	sl, r0
 800603e:	468b      	mov	fp, r1
 8006040:	2503      	movs	r5, #3
 8006042:	4eac      	ldr	r6, [pc, #688]	; (80062f4 <_dtoa_r+0x61c>)
 8006044:	b957      	cbnz	r7, 800605c <_dtoa_r+0x384>
 8006046:	4642      	mov	r2, r8
 8006048:	464b      	mov	r3, r9
 800604a:	4650      	mov	r0, sl
 800604c:	4659      	mov	r1, fp
 800604e:	f7fa fc1d 	bl	800088c <__aeabi_ddiv>
 8006052:	4682      	mov	sl, r0
 8006054:	468b      	mov	fp, r1
 8006056:	e028      	b.n	80060aa <_dtoa_r+0x3d2>
 8006058:	2502      	movs	r5, #2
 800605a:	e7f2      	b.n	8006042 <_dtoa_r+0x36a>
 800605c:	07f9      	lsls	r1, r7, #31
 800605e:	d508      	bpl.n	8006072 <_dtoa_r+0x39a>
 8006060:	4640      	mov	r0, r8
 8006062:	4649      	mov	r1, r9
 8006064:	e9d6 2300 	ldrd	r2, r3, [r6]
 8006068:	f7fa fae6 	bl	8000638 <__aeabi_dmul>
 800606c:	3501      	adds	r5, #1
 800606e:	4680      	mov	r8, r0
 8006070:	4689      	mov	r9, r1
 8006072:	107f      	asrs	r7, r7, #1
 8006074:	3608      	adds	r6, #8
 8006076:	e7e5      	b.n	8006044 <_dtoa_r+0x36c>
 8006078:	f000 809b 	beq.w	80061b2 <_dtoa_r+0x4da>
 800607c:	9b00      	ldr	r3, [sp, #0]
 800607e:	4f9d      	ldr	r7, [pc, #628]	; (80062f4 <_dtoa_r+0x61c>)
 8006080:	425e      	negs	r6, r3
 8006082:	4b9b      	ldr	r3, [pc, #620]	; (80062f0 <_dtoa_r+0x618>)
 8006084:	f006 020f 	and.w	r2, r6, #15
 8006088:	eb03 03c2 	add.w	r3, r3, r2, lsl #3
 800608c:	e9d3 2300 	ldrd	r2, r3, [r3]
 8006090:	ec51 0b19 	vmov	r0, r1, d9
 8006094:	f7fa fad0 	bl	8000638 <__aeabi_dmul>
 8006098:	1136      	asrs	r6, r6, #4
 800609a:	4682      	mov	sl, r0
 800609c:	468b      	mov	fp, r1
 800609e:	2300      	movs	r3, #0
 80060a0:	2502      	movs	r5, #2
 80060a2:	2e00      	cmp	r6, #0
 80060a4:	d17a      	bne.n	800619c <_dtoa_r+0x4c4>
 80060a6:	2b00      	cmp	r3, #0
 80060a8:	d1d3      	bne.n	8006052 <_dtoa_r+0x37a>
 80060aa:	9b0b      	ldr	r3, [sp, #44]	; 0x2c
 80060ac:	2b00      	cmp	r3, #0
 80060ae:	f000 8082 	beq.w	80061b6 <_dtoa_r+0x4de>
 80060b2:	4b91      	ldr	r3, [pc, #580]	; (80062f8 <_dtoa_r+0x620>)
 80060b4:	2200      	movs	r2, #0
 80060b6:	4650      	mov	r0, sl
 80060b8:	4659      	mov	r1, fp
 80060ba:	f7fa fd2f 	bl	8000b1c <__aeabi_dcmplt>
 80060be:	2800      	cmp	r0, #0
 80060c0:	d079      	beq.n	80061b6 <_dtoa_r+0x4de>
 80060c2:	9b03      	ldr	r3, [sp, #12]
 80060c4:	2b00      	cmp	r3, #0
 80060c6:	d076      	beq.n	80061b6 <_dtoa_r+0x4de>
 80060c8:	9b02      	ldr	r3, [sp, #8]
 80060ca:	2b00      	cmp	r3, #0
 80060cc:	dd36      	ble.n	800613c <_dtoa_r+0x464>
 80060ce:	9b00      	ldr	r3, [sp, #0]
 80060d0:	4650      	mov	r0, sl
 80060d2:	4659      	mov	r1, fp
 80060d4:	1e5f      	subs	r7, r3, #1
 80060d6:	2200      	movs	r2, #0
 80060d8:	4b88      	ldr	r3, [pc, #544]	; (80062fc <_dtoa_r+0x624>)
 80060da:	f7fa faad 	bl	8000638 <__aeabi_dmul>
 80060de:	9e02      	ldr	r6, [sp, #8]
 80060e0:	4682      	mov	sl, r0
 80060e2:	468b      	mov	fp, r1
 80060e4:	3501      	adds	r5, #1
 80060e6:	4628      	mov	r0, r5
 80060e8:	f7fa fa3c 	bl	8000564 <__aeabi_i2d>
 80060ec:	4652      	mov	r2, sl
 80060ee:	465b      	mov	r3, fp
 80060f0:	f7fa faa2 	bl	8000638 <__aeabi_dmul>
 80060f4:	4b82      	ldr	r3, [pc, #520]	; (8006300 <_dtoa_r+0x628>)
 80060f6:	2200      	movs	r2, #0
 80060f8:	f7fa f8e8 	bl	80002cc <__adddf3>
 80060fc:	46d0      	mov	r8, sl
 80060fe:	46d9      	mov	r9, fp
 8006100:	4682      	mov	sl, r0
 8006102:	f1a1 7b50 	sub.w	fp, r1, #54525952	; 0x3400000
 8006106:	2e00      	cmp	r6, #0
 8006108:	d158      	bne.n	80061bc <_dtoa_r+0x4e4>
 800610a:	4b7e      	ldr	r3, [pc, #504]	; (8006304 <_dtoa_r+0x62c>)
 800610c:	2200      	movs	r2, #0
 800610e:	4640      	mov	r0, r8
 8006110:	4649      	mov	r1, r9
 8006112:	f7fa f8d9 	bl	80002c8 <__aeabi_dsub>
 8006116:	4652      	mov	r2, sl
 8006118:	465b      	mov	r3, fp
 800611a:	4680      	mov	r8, r0
 800611c:	4689      	mov	r9, r1
 800611e:	f7fa fd1b 	bl	8000b58 <__aeabi_dcmpgt>
 8006122:	2800      	cmp	r0, #0
 8006124:	f040 8295 	bne.w	8006652 <_dtoa_r+0x97a>
 8006128:	4652      	mov	r2, sl
 800612a:	f10b 4300 	add.w	r3, fp, #2147483648	; 0x80000000
 800612e:	4640      	mov	r0, r8
 8006130:	4649      	mov	r1, r9
 8006132:	f7fa fcf3 	bl	8000b1c <__aeabi_dcmplt>
 8006136:	2800      	cmp	r0, #0
 8006138:	f040 8289 	bne.w	800664e <_dtoa_r+0x976>
 800613c:	ec5b ab19 	vmov	sl, fp, d9
 8006140:	9b11      	ldr	r3, [sp, #68]	; 0x44
 8006142:	2b00      	cmp	r3, #0
 8006144:	f2c0 8148 	blt.w	80063d8 <_dtoa_r+0x700>
 8006148:	9a00      	ldr	r2, [sp, #0]
 800614a:	2a0e      	cmp	r2, #14
 800614c:	f300 8144 	bgt.w	80063d8 <_dtoa_r+0x700>
 8006150:	4b67      	ldr	r3, [pc, #412]	; (80062f0 <_dtoa_r+0x618>)
 8006152:	eb03 03c2 	add.w	r3, r3, r2, lsl #3
 8006156:	e9d3 8900 	ldrd	r8, r9, [r3]
 800615a:	9b09      	ldr	r3, [sp, #36]	; 0x24
 800615c:	2b00      	cmp	r3, #0
 800615e:	f280 80d5 	bge.w	800630c <_dtoa_r+0x634>
 8006162:	9b03      	ldr	r3, [sp, #12]
 8006164:	2b00      	cmp	r3, #0
 8006166:	f300 80d1 	bgt.w	800630c <_dtoa_r+0x634>
 800616a:	f040 826f 	bne.w	800664c <_dtoa_r+0x974>
 800616e:	4b65      	ldr	r3, [pc, #404]	; (8006304 <_dtoa_r+0x62c>)
 8006170:	2200      	movs	r2, #0
 8006172:	4640      	mov	r0, r8
 8006174:	4649      	mov	r1, r9
 8006176:	f7fa fa5f 	bl	8000638 <__aeabi_dmul>
 800617a:	4652      	mov	r2, sl
 800617c:	465b      	mov	r3, fp
 800617e:	f7fa fce1 	bl	8000b44 <__aeabi_dcmpge>
 8006182:	9e03      	ldr	r6, [sp, #12]
 8006184:	4637      	mov	r7, r6
 8006186:	2800      	cmp	r0, #0
 8006188:	f040 8245 	bne.w	8006616 <_dtoa_r+0x93e>
 800618c:	9d01      	ldr	r5, [sp, #4]
 800618e:	2331      	movs	r3, #49	; 0x31
 8006190:	f805 3b01 	strb.w	r3, [r5], #1
 8006194:	9b00      	ldr	r3, [sp, #0]
 8006196:	3301      	adds	r3, #1
 8006198:	9300      	str	r3, [sp, #0]
 800619a:	e240      	b.n	800661e <_dtoa_r+0x946>
 800619c:	07f2      	lsls	r2, r6, #31
 800619e:	d505      	bpl.n	80061ac <_dtoa_r+0x4d4>
 80061a0:	e9d7 2300 	ldrd	r2, r3, [r7]
 80061a4:	f7fa fa48 	bl	8000638 <__aeabi_dmul>
 80061a8:	3501      	adds	r5, #1
 80061aa:	2301      	movs	r3, #1
 80061ac:	1076      	asrs	r6, r6, #1
 80061ae:	3708      	adds	r7, #8
 80061b0:	e777      	b.n	80060a2 <_dtoa_r+0x3ca>
 80061b2:	2502      	movs	r5, #2
 80061b4:	e779      	b.n	80060aa <_dtoa_r+0x3d2>
 80061b6:	9f00      	ldr	r7, [sp, #0]
 80061b8:	9e03      	ldr	r6, [sp, #12]
 80061ba:	e794      	b.n	80060e6 <_dtoa_r+0x40e>
 80061bc:	9901      	ldr	r1, [sp, #4]
 80061be:	4b4c      	ldr	r3, [pc, #304]	; (80062f0 <_dtoa_r+0x618>)
 80061c0:	4431      	add	r1, r6
 80061c2:	910d      	str	r1, [sp, #52]	; 0x34
 80061c4:	9908      	ldr	r1, [sp, #32]
 80061c6:	eb03 03c6 	add.w	r3, r3, r6, lsl #3
 80061ca:	e953 2302 	ldrd	r2, r3, [r3, #-8]
 80061ce:	2900      	cmp	r1, #0
 80061d0:	d043      	beq.n	800625a <_dtoa_r+0x582>
 80061d2:	494d      	ldr	r1, [pc, #308]	; (8006308 <_dtoa_r+0x630>)
 80061d4:	2000      	movs	r0, #0
 80061d6:	f7fa fb59 	bl	800088c <__aeabi_ddiv>
 80061da:	4652      	mov	r2, sl
 80061dc:	465b      	mov	r3, fp
 80061de:	f7fa f873 	bl	80002c8 <__aeabi_dsub>
 80061e2:	9d01      	ldr	r5, [sp, #4]
 80061e4:	4682      	mov	sl, r0
 80061e6:	468b      	mov	fp, r1
 80061e8:	4649      	mov	r1, r9
 80061ea:	4640      	mov	r0, r8
 80061ec:	f7fa fcd4 	bl	8000b98 <__aeabi_d2iz>
 80061f0:	4606      	mov	r6, r0
 80061f2:	f7fa f9b7 	bl	8000564 <__aeabi_i2d>
 80061f6:	4602      	mov	r2, r0
 80061f8:	460b      	mov	r3, r1
 80061fa:	4640      	mov	r0, r8
 80061fc:	4649      	mov	r1, r9
 80061fe:	f7fa f863 	bl	80002c8 <__aeabi_dsub>
 8006202:	3630      	adds	r6, #48	; 0x30
 8006204:	f805 6b01 	strb.w	r6, [r5], #1
 8006208:	4652      	mov	r2, sl
 800620a:	465b      	mov	r3, fp
 800620c:	4680      	mov	r8, r0
 800620e:	4689      	mov	r9, r1
 8006210:	f7fa fc84 	bl	8000b1c <__aeabi_dcmplt>
 8006214:	2800      	cmp	r0, #0
 8006216:	d163      	bne.n	80062e0 <_dtoa_r+0x608>
 8006218:	4642      	mov	r2, r8
 800621a:	464b      	mov	r3, r9
 800621c:	4936      	ldr	r1, [pc, #216]	; (80062f8 <_dtoa_r+0x620>)
 800621e:	2000      	movs	r0, #0
 8006220:	f7fa f852 	bl	80002c8 <__aeabi_dsub>
 8006224:	4652      	mov	r2, sl
 8006226:	465b      	mov	r3, fp
 8006228:	f7fa fc78 	bl	8000b1c <__aeabi_dcmplt>
 800622c:	2800      	cmp	r0, #0
 800622e:	f040 80b5 	bne.w	800639c <_dtoa_r+0x6c4>
 8006232:	9b0d      	ldr	r3, [sp, #52]	; 0x34
 8006234:	429d      	cmp	r5, r3
 8006236:	d081      	beq.n	800613c <_dtoa_r+0x464>
 8006238:	4b30      	ldr	r3, [pc, #192]	; (80062fc <_dtoa_r+0x624>)
 800623a:	2200      	movs	r2, #0
 800623c:	4650      	mov	r0, sl
 800623e:	4659      	mov	r1, fp
 8006240:	f7fa f9fa 	bl	8000638 <__aeabi_dmul>
 8006244:	4b2d      	ldr	r3, [pc, #180]	; (80062fc <_dtoa_r+0x624>)
 8006246:	4682      	mov	sl, r0
 8006248:	468b      	mov	fp, r1
 800624a:	4640      	mov	r0, r8
 800624c:	4649      	mov	r1, r9
 800624e:	2200      	movs	r2, #0
 8006250:	f7fa f9f2 	bl	8000638 <__aeabi_dmul>
 8006254:	4680      	mov	r8, r0
 8006256:	4689      	mov	r9, r1
 8006258:	e7c6      	b.n	80061e8 <_dtoa_r+0x510>
 800625a:	4650      	mov	r0, sl
 800625c:	4659      	mov	r1, fp
 800625e:	f7fa f9eb 	bl	8000638 <__aeabi_dmul>
 8006262:	9b0d      	ldr	r3, [sp, #52]	; 0x34
 8006264:	9d01      	ldr	r5, [sp, #4]
 8006266:	930f      	str	r3, [sp, #60]	; 0x3c
 8006268:	4682      	mov	sl, r0
 800626a:	468b      	mov	fp, r1
 800626c:	4649      	mov	r1, r9
 800626e:	4640      	mov	r0, r8
 8006270:	f7fa fc92 	bl	8000b98 <__aeabi_d2iz>
 8006274:	4606      	mov	r6, r0
 8006276:	f7fa f975 	bl	8000564 <__aeabi_i2d>
 800627a:	3630      	adds	r6, #48	; 0x30
 800627c:	4602      	mov	r2, r0
 800627e:	460b      	mov	r3, r1
 8006280:	4640      	mov	r0, r8
 8006282:	4649      	mov	r1, r9
 8006284:	f7fa f820 	bl	80002c8 <__aeabi_dsub>
 8006288:	f805 6b01 	strb.w	r6, [r5], #1
 800628c:	9b0d      	ldr	r3, [sp, #52]	; 0x34
 800628e:	429d      	cmp	r5, r3
 8006290:	4680      	mov	r8, r0
 8006292:	4689      	mov	r9, r1
 8006294:	f04f 0200 	mov.w	r2, #0
 8006298:	d124      	bne.n	80062e4 <_dtoa_r+0x60c>
 800629a:	4b1b      	ldr	r3, [pc, #108]	; (8006308 <_dtoa_r+0x630>)
 800629c:	4650      	mov	r0, sl
 800629e:	4659      	mov	r1, fp
 80062a0:	f7fa f814 	bl	80002cc <__adddf3>
 80062a4:	4602      	mov	r2, r0
 80062a6:	460b      	mov	r3, r1
 80062a8:	4640      	mov	r0, r8
 80062aa:	4649      	mov	r1, r9
 80062ac:	f7fa fc54 	bl	8000b58 <__aeabi_dcmpgt>
 80062b0:	2800      	cmp	r0, #0
 80062b2:	d173      	bne.n	800639c <_dtoa_r+0x6c4>
 80062b4:	4652      	mov	r2, sl
 80062b6:	465b      	mov	r3, fp
 80062b8:	4913      	ldr	r1, [pc, #76]	; (8006308 <_dtoa_r+0x630>)
 80062ba:	2000      	movs	r0, #0
 80062bc:	f7fa f804 	bl	80002c8 <__aeabi_dsub>
 80062c0:	4602      	mov	r2, r0
 80062c2:	460b      	mov	r3, r1
 80062c4:	4640      	mov	r0, r8
 80062c6:	4649      	mov	r1, r9
 80062c8:	f7fa fc28 	bl	8000b1c <__aeabi_dcmplt>
 80062cc:	2800      	cmp	r0, #0
 80062ce:	f43f af35 	beq.w	800613c <_dtoa_r+0x464>
 80062d2:	9d0f      	ldr	r5, [sp, #60]	; 0x3c
 80062d4:	1e6b      	subs	r3, r5, #1
 80062d6:	930f      	str	r3, [sp, #60]	; 0x3c
 80062d8:	f815 3c01 	ldrb.w	r3, [r5, #-1]
 80062dc:	2b30      	cmp	r3, #48	; 0x30
 80062de:	d0f8      	beq.n	80062d2 <_dtoa_r+0x5fa>
 80062e0:	9700      	str	r7, [sp, #0]
 80062e2:	e049      	b.n	8006378 <_dtoa_r+0x6a0>
 80062e4:	4b05      	ldr	r3, [pc, #20]	; (80062fc <_dtoa_r+0x624>)
 80062e6:	f7fa f9a7 	bl	8000638 <__aeabi_dmul>
 80062ea:	4680      	mov	r8, r0
 80062ec:	4689      	mov	r9, r1
 80062ee:	e7bd      	b.n	800626c <_dtoa_r+0x594>
 80062f0:	08009508 	.word	0x08009508
 80062f4:	080094e0 	.word	0x080094e0
 80062f8:	3ff00000 	.word	0x3ff00000
 80062fc:	40240000 	.word	0x40240000
 8006300:	401c0000 	.word	0x401c0000
 8006304:	40140000 	.word	0x40140000
 8006308:	3fe00000 	.word	0x3fe00000
 800630c:	9d01      	ldr	r5, [sp, #4]
 800630e:	4656      	mov	r6, sl
 8006310:	465f      	mov	r7, fp
 8006312:	4642      	mov	r2, r8
 8006314:	464b      	mov	r3, r9
 8006316:	4630      	mov	r0, r6
 8006318:	4639      	mov	r1, r7
 800631a:	f7fa fab7 	bl	800088c <__aeabi_ddiv>
 800631e:	f7fa fc3b 	bl	8000b98 <__aeabi_d2iz>
 8006322:	4682      	mov	sl, r0
 8006324:	f7fa f91e 	bl	8000564 <__aeabi_i2d>
 8006328:	4642      	mov	r2, r8
 800632a:	464b      	mov	r3, r9
 800632c:	f7fa f984 	bl	8000638 <__aeabi_dmul>
 8006330:	4602      	mov	r2, r0
 8006332:	460b      	mov	r3, r1
 8006334:	4630      	mov	r0, r6
 8006336:	4639      	mov	r1, r7
 8006338:	f10a 0630 	add.w	r6, sl, #48	; 0x30
 800633c:	f7f9 ffc4 	bl	80002c8 <__aeabi_dsub>
 8006340:	f805 6b01 	strb.w	r6, [r5], #1
 8006344:	9e01      	ldr	r6, [sp, #4]
 8006346:	9f03      	ldr	r7, [sp, #12]
 8006348:	1bae      	subs	r6, r5, r6
 800634a:	42b7      	cmp	r7, r6
 800634c:	4602      	mov	r2, r0
 800634e:	460b      	mov	r3, r1
 8006350:	d135      	bne.n	80063be <_dtoa_r+0x6e6>
 8006352:	f7f9 ffbb 	bl	80002cc <__adddf3>
 8006356:	4642      	mov	r2, r8
 8006358:	464b      	mov	r3, r9
 800635a:	4606      	mov	r6, r0
 800635c:	460f      	mov	r7, r1
 800635e:	f7fa fbfb 	bl	8000b58 <__aeabi_dcmpgt>
 8006362:	b9d0      	cbnz	r0, 800639a <_dtoa_r+0x6c2>
 8006364:	4642      	mov	r2, r8
 8006366:	464b      	mov	r3, r9
 8006368:	4630      	mov	r0, r6
 800636a:	4639      	mov	r1, r7
 800636c:	f7fa fbcc 	bl	8000b08 <__aeabi_dcmpeq>
 8006370:	b110      	cbz	r0, 8006378 <_dtoa_r+0x6a0>
 8006372:	f01a 0f01 	tst.w	sl, #1
 8006376:	d110      	bne.n	800639a <_dtoa_r+0x6c2>
 8006378:	4620      	mov	r0, r4
 800637a:	ee18 1a10 	vmov	r1, s16
 800637e:	f000 fe87 	bl	8007090 <_Bfree>
 8006382:	2300      	movs	r3, #0
 8006384:	9800      	ldr	r0, [sp, #0]
 8006386:	702b      	strb	r3, [r5, #0]
 8006388:	9b0c      	ldr	r3, [sp, #48]	; 0x30
 800638a:	3001      	adds	r0, #1
 800638c:	6018      	str	r0, [r3, #0]
 800638e:	9b21      	ldr	r3, [sp, #132]	; 0x84
 8006390:	2b00      	cmp	r3, #0
 8006392:	f43f acf1 	beq.w	8005d78 <_dtoa_r+0xa0>
 8006396:	601d      	str	r5, [r3, #0]
 8006398:	e4ee      	b.n	8005d78 <_dtoa_r+0xa0>
 800639a:	9f00      	ldr	r7, [sp, #0]
 800639c:	462b      	mov	r3, r5
 800639e:	461d      	mov	r5, r3
 80063a0:	f813 2d01 	ldrb.w	r2, [r3, #-1]!
 80063a4:	2a39      	cmp	r2, #57	; 0x39
 80063a6:	d106      	bne.n	80063b6 <_dtoa_r+0x6de>
 80063a8:	9a01      	ldr	r2, [sp, #4]
 80063aa:	429a      	cmp	r2, r3
 80063ac:	d1f7      	bne.n	800639e <_dtoa_r+0x6c6>
 80063ae:	9901      	ldr	r1, [sp, #4]
 80063b0:	2230      	movs	r2, #48	; 0x30
 80063b2:	3701      	adds	r7, #1
 80063b4:	700a      	strb	r2, [r1, #0]
 80063b6:	781a      	ldrb	r2, [r3, #0]
 80063b8:	3201      	adds	r2, #1
 80063ba:	701a      	strb	r2, [r3, #0]
 80063bc:	e790      	b.n	80062e0 <_dtoa_r+0x608>
 80063be:	4ba6      	ldr	r3, [pc, #664]	; (8006658 <_dtoa_r+0x980>)
 80063c0:	2200      	movs	r2, #0
 80063c2:	f7fa f939 	bl	8000638 <__aeabi_dmul>
 80063c6:	2200      	movs	r2, #0
 80063c8:	2300      	movs	r3, #0
 80063ca:	4606      	mov	r6, r0
 80063cc:	460f      	mov	r7, r1
 80063ce:	f7fa fb9b 	bl	8000b08 <__aeabi_dcmpeq>
 80063d2:	2800      	cmp	r0, #0
 80063d4:	d09d      	beq.n	8006312 <_dtoa_r+0x63a>
 80063d6:	e7cf      	b.n	8006378 <_dtoa_r+0x6a0>
 80063d8:	9a08      	ldr	r2, [sp, #32]
 80063da:	2a00      	cmp	r2, #0
 80063dc:	f000 80d7 	beq.w	800658e <_dtoa_r+0x8b6>
 80063e0:	9a06      	ldr	r2, [sp, #24]
 80063e2:	2a01      	cmp	r2, #1
 80063e4:	f300 80ba 	bgt.w	800655c <_dtoa_r+0x884>
 80063e8:	9a0e      	ldr	r2, [sp, #56]	; 0x38
 80063ea:	2a00      	cmp	r2, #0
 80063ec:	f000 80b2 	beq.w	8006554 <_dtoa_r+0x87c>
 80063f0:	f203 4333 	addw	r3, r3, #1075	; 0x433
 80063f4:	9e07      	ldr	r6, [sp, #28]
 80063f6:	9d04      	ldr	r5, [sp, #16]
 80063f8:	9a04      	ldr	r2, [sp, #16]
 80063fa:	441a      	add	r2, r3
 80063fc:	9204      	str	r2, [sp, #16]
 80063fe:	9a05      	ldr	r2, [sp, #20]
 8006400:	2101      	movs	r1, #1
 8006402:	441a      	add	r2, r3
 8006404:	4620      	mov	r0, r4
 8006406:	9205      	str	r2, [sp, #20]
 8006408:	f000 ff44 	bl	8007294 <__i2b>
 800640c:	4607      	mov	r7, r0
 800640e:	2d00      	cmp	r5, #0
 8006410:	dd0c      	ble.n	800642c <_dtoa_r+0x754>
 8006412:	9b05      	ldr	r3, [sp, #20]
 8006414:	2b00      	cmp	r3, #0
 8006416:	dd09      	ble.n	800642c <_dtoa_r+0x754>
 8006418:	42ab      	cmp	r3, r5
 800641a:	9a04      	ldr	r2, [sp, #16]
 800641c:	bfa8      	it	ge
 800641e:	462b      	movge	r3, r5
 8006420:	1ad2      	subs	r2, r2, r3
 8006422:	9204      	str	r2, [sp, #16]
 8006424:	9a05      	ldr	r2, [sp, #20]
 8006426:	1aed      	subs	r5, r5, r3
 8006428:	1ad3      	subs	r3, r2, r3
 800642a:	9305      	str	r3, [sp, #20]
 800642c:	9b07      	ldr	r3, [sp, #28]
 800642e:	b31b      	cbz	r3, 8006478 <_dtoa_r+0x7a0>
 8006430:	9b08      	ldr	r3, [sp, #32]
 8006432:	2b00      	cmp	r3, #0
 8006434:	f000 80af 	beq.w	8006596 <_dtoa_r+0x8be>
 8006438:	2e00      	cmp	r6, #0
 800643a:	dd13      	ble.n	8006464 <_dtoa_r+0x78c>
 800643c:	4639      	mov	r1, r7
 800643e:	4632      	mov	r2, r6
 8006440:	4620      	mov	r0, r4
 8006442:	f000 ffe7 	bl	8007414 <__pow5mult>
 8006446:	ee18 2a10 	vmov	r2, s16
 800644a:	4601      	mov	r1, r0
 800644c:	4607      	mov	r7, r0
 800644e:	4620      	mov	r0, r4
 8006450:	f000 ff36 	bl	80072c0 <__multiply>
 8006454:	ee18 1a10 	vmov	r1, s16
 8006458:	4680      	mov	r8, r0
 800645a:	4620      	mov	r0, r4
 800645c:	f000 fe18 	bl	8007090 <_Bfree>
 8006460:	ee08 8a10 	vmov	s16, r8
 8006464:	9b07      	ldr	r3, [sp, #28]
 8006466:	1b9a      	subs	r2, r3, r6
 8006468:	d006      	beq.n	8006478 <_dtoa_r+0x7a0>
 800646a:	ee18 1a10 	vmov	r1, s16
 800646e:	4620      	mov	r0, r4
 8006470:	f000 ffd0 	bl	8007414 <__pow5mult>
 8006474:	ee08 0a10 	vmov	s16, r0
 8006478:	2101      	movs	r1, #1
 800647a:	4620      	mov	r0, r4
 800647c:	f000 ff0a 	bl	8007294 <__i2b>
 8006480:	9b0a      	ldr	r3, [sp, #40]	; 0x28
 8006482:	2b00      	cmp	r3, #0
 8006484:	4606      	mov	r6, r0
 8006486:	f340 8088 	ble.w	800659a <_dtoa_r+0x8c2>
 800648a:	461a      	mov	r2, r3
 800648c:	4601      	mov	r1, r0
 800648e:	4620      	mov	r0, r4
 8006490:	f000 ffc0 	bl	8007414 <__pow5mult>
 8006494:	9b06      	ldr	r3, [sp, #24]
 8006496:	2b01      	cmp	r3, #1
 8006498:	4606      	mov	r6, r0
 800649a:	f340 8081 	ble.w	80065a0 <_dtoa_r+0x8c8>
 800649e:	f04f 0800 	mov.w	r8, #0
 80064a2:	6933      	ldr	r3, [r6, #16]
 80064a4:	eb06 0383 	add.w	r3, r6, r3, lsl #2
 80064a8:	6918      	ldr	r0, [r3, #16]
 80064aa:	f000 fea3 	bl	80071f4 <__hi0bits>
 80064ae:	f1c0 0020 	rsb	r0, r0, #32
 80064b2:	9b05      	ldr	r3, [sp, #20]
 80064b4:	4418      	add	r0, r3
 80064b6:	f010 001f 	ands.w	r0, r0, #31
 80064ba:	f000 8092 	beq.w	80065e2 <_dtoa_r+0x90a>
 80064be:	f1c0 0320 	rsb	r3, r0, #32
 80064c2:	2b04      	cmp	r3, #4
 80064c4:	f340 808a 	ble.w	80065dc <_dtoa_r+0x904>
 80064c8:	f1c0 001c 	rsb	r0, r0, #28
 80064cc:	9b04      	ldr	r3, [sp, #16]
 80064ce:	4403      	add	r3, r0
 80064d0:	9304      	str	r3, [sp, #16]
 80064d2:	9b05      	ldr	r3, [sp, #20]
 80064d4:	4403      	add	r3, r0
 80064d6:	4405      	add	r5, r0
 80064d8:	9305      	str	r3, [sp, #20]
 80064da:	9b04      	ldr	r3, [sp, #16]
 80064dc:	2b00      	cmp	r3, #0
 80064de:	dd07      	ble.n	80064f0 <_dtoa_r+0x818>
 80064e0:	ee18 1a10 	vmov	r1, s16
 80064e4:	461a      	mov	r2, r3
 80064e6:	4620      	mov	r0, r4
 80064e8:	f000 ffee 	bl	80074c8 <__lshift>
 80064ec:	ee08 0a10 	vmov	s16, r0
 80064f0:	9b05      	ldr	r3, [sp, #20]
 80064f2:	2b00      	cmp	r3, #0
 80064f4:	dd05      	ble.n	8006502 <_dtoa_r+0x82a>
 80064f6:	4631      	mov	r1, r6
 80064f8:	461a      	mov	r2, r3
 80064fa:	4620      	mov	r0, r4
 80064fc:	f000 ffe4 	bl	80074c8 <__lshift>
 8006500:	4606      	mov	r6, r0
 8006502:	9b0b      	ldr	r3, [sp, #44]	; 0x2c
 8006504:	2b00      	cmp	r3, #0
 8006506:	d06e      	beq.n	80065e6 <_dtoa_r+0x90e>
 8006508:	ee18 0a10 	vmov	r0, s16
 800650c:	4631      	mov	r1, r6
 800650e:	f001 f84b 	bl	80075a8 <__mcmp>
 8006512:	2800      	cmp	r0, #0
 8006514:	da67      	bge.n	80065e6 <_dtoa_r+0x90e>
 8006516:	9b00      	ldr	r3, [sp, #0]
 8006518:	3b01      	subs	r3, #1
 800651a:	ee18 1a10 	vmov	r1, s16
 800651e:	9300      	str	r3, [sp, #0]
 8006520:	220a      	movs	r2, #10
 8006522:	2300      	movs	r3, #0
 8006524:	4620      	mov	r0, r4
 8006526:	f000 fdd5 	bl	80070d4 <__multadd>
 800652a:	9b08      	ldr	r3, [sp, #32]
 800652c:	ee08 0a10 	vmov	s16, r0
 8006530:	2b00      	cmp	r3, #0
 8006532:	f000 81b1 	beq.w	8006898 <_dtoa_r+0xbc0>
 8006536:	2300      	movs	r3, #0
 8006538:	4639      	mov	r1, r7
 800653a:	220a      	movs	r2, #10
 800653c:	4620      	mov	r0, r4
 800653e:	f000 fdc9 	bl	80070d4 <__multadd>
 8006542:	9b02      	ldr	r3, [sp, #8]
 8006544:	2b00      	cmp	r3, #0
 8006546:	4607      	mov	r7, r0
 8006548:	f300 808e 	bgt.w	8006668 <_dtoa_r+0x990>
 800654c:	9b06      	ldr	r3, [sp, #24]
 800654e:	2b02      	cmp	r3, #2
 8006550:	dc51      	bgt.n	80065f6 <_dtoa_r+0x91e>
 8006552:	e089      	b.n	8006668 <_dtoa_r+0x990>
 8006554:	9b10      	ldr	r3, [sp, #64]	; 0x40
 8006556:	f1c3 0336 	rsb	r3, r3, #54	; 0x36
 800655a:	e74b      	b.n	80063f4 <_dtoa_r+0x71c>
 800655c:	9b03      	ldr	r3, [sp, #12]
 800655e:	1e5e      	subs	r6, r3, #1
 8006560:	9b07      	ldr	r3, [sp, #28]
 8006562:	42b3      	cmp	r3, r6
 8006564:	bfbf      	itttt	lt
 8006566:	9b07      	ldrlt	r3, [sp, #28]
 8006568:	9607      	strlt	r6, [sp, #28]
 800656a:	1af2      	sublt	r2, r6, r3
 800656c:	9b0a      	ldrlt	r3, [sp, #40]	; 0x28
 800656e:	bfb6      	itet	lt
 8006570:	189b      	addlt	r3, r3, r2
 8006572:	1b9e      	subge	r6, r3, r6
 8006574:	930a      	strlt	r3, [sp, #40]	; 0x28
 8006576:	9b03      	ldr	r3, [sp, #12]
 8006578:	bfb8      	it	lt
 800657a:	2600      	movlt	r6, #0
 800657c:	2b00      	cmp	r3, #0
 800657e:	bfb7      	itett	lt
 8006580:	e9dd 2303 	ldrdlt	r2, r3, [sp, #12]
 8006584:	e9dd 3503 	ldrdge	r3, r5, [sp, #12]
 8006588:	1a9d      	sublt	r5, r3, r2
 800658a:	2300      	movlt	r3, #0
 800658c:	e734      	b.n	80063f8 <_dtoa_r+0x720>
 800658e:	9e07      	ldr	r6, [sp, #28]
 8006590:	9d04      	ldr	r5, [sp, #16]
 8006592:	9f08      	ldr	r7, [sp, #32]
 8006594:	e73b      	b.n	800640e <_dtoa_r+0x736>
 8006596:	9a07      	ldr	r2, [sp, #28]
 8006598:	e767      	b.n	800646a <_dtoa_r+0x792>
 800659a:	9b06      	ldr	r3, [sp, #24]
 800659c:	2b01      	cmp	r3, #1
 800659e:	dc18      	bgt.n	80065d2 <_dtoa_r+0x8fa>
 80065a0:	f1ba 0f00 	cmp.w	sl, #0
 80065a4:	d115      	bne.n	80065d2 <_dtoa_r+0x8fa>
 80065a6:	f3cb 0313 	ubfx	r3, fp, #0, #20
 80065aa:	b993      	cbnz	r3, 80065d2 <_dtoa_r+0x8fa>
 80065ac:	f02b 4300 	bic.w	r3, fp, #2147483648	; 0x80000000
 80065b0:	0d1b      	lsrs	r3, r3, #20
 80065b2:	051b      	lsls	r3, r3, #20
 80065b4:	b183      	cbz	r3, 80065d8 <_dtoa_r+0x900>
 80065b6:	9b04      	ldr	r3, [sp, #16]
 80065b8:	3301      	adds	r3, #1
 80065ba:	9304      	str	r3, [sp, #16]
 80065bc:	9b05      	ldr	r3, [sp, #20]
 80065be:	3301      	adds	r3, #1
 80065c0:	9305      	str	r3, [sp, #20]
 80065c2:	f04f 0801 	mov.w	r8, #1
 80065c6:	9b0a      	ldr	r3, [sp, #40]	; 0x28
 80065c8:	2b00      	cmp	r3, #0
 80065ca:	f47f af6a 	bne.w	80064a2 <_dtoa_r+0x7ca>
 80065ce:	2001      	movs	r0, #1
 80065d0:	e76f      	b.n	80064b2 <_dtoa_r+0x7da>
 80065d2:	f04f 0800 	mov.w	r8, #0
 80065d6:	e7f6      	b.n	80065c6 <_dtoa_r+0x8ee>
 80065d8:	4698      	mov	r8, r3
 80065da:	e7f4      	b.n	80065c6 <_dtoa_r+0x8ee>
 80065dc:	f43f af7d 	beq.w	80064da <_dtoa_r+0x802>
 80065e0:	4618      	mov	r0, r3
 80065e2:	301c      	adds	r0, #28
 80065e4:	e772      	b.n	80064cc <_dtoa_r+0x7f4>
 80065e6:	9b03      	ldr	r3, [sp, #12]
 80065e8:	2b00      	cmp	r3, #0
 80065ea:	dc37      	bgt.n	800665c <_dtoa_r+0x984>
 80065ec:	9b06      	ldr	r3, [sp, #24]
 80065ee:	2b02      	cmp	r3, #2
 80065f0:	dd34      	ble.n	800665c <_dtoa_r+0x984>
 80065f2:	9b03      	ldr	r3, [sp, #12]
 80065f4:	9302      	str	r3, [sp, #8]
 80065f6:	9b02      	ldr	r3, [sp, #8]
 80065f8:	b96b      	cbnz	r3, 8006616 <_dtoa_r+0x93e>
 80065fa:	4631      	mov	r1, r6
 80065fc:	2205      	movs	r2, #5
 80065fe:	4620      	mov	r0, r4
 8006600:	f000 fd68 	bl	80070d4 <__multadd>
 8006604:	4601      	mov	r1, r0
 8006606:	4606      	mov	r6, r0
 8006608:	ee18 0a10 	vmov	r0, s16
 800660c:	f000 ffcc 	bl	80075a8 <__mcmp>
 8006610:	2800      	cmp	r0, #0
 8006612:	f73f adbb 	bgt.w	800618c <_dtoa_r+0x4b4>
 8006616:	9b09      	ldr	r3, [sp, #36]	; 0x24
 8006618:	9d01      	ldr	r5, [sp, #4]
 800661a:	43db      	mvns	r3, r3
 800661c:	9300      	str	r3, [sp, #0]
 800661e:	f04f 0800 	mov.w	r8, #0
 8006622:	4631      	mov	r1, r6
 8006624:	4620      	mov	r0, r4
 8006626:	f000 fd33 	bl	8007090 <_Bfree>
 800662a:	2f00      	cmp	r7, #0
 800662c:	f43f aea4 	beq.w	8006378 <_dtoa_r+0x6a0>
 8006630:	f1b8 0f00 	cmp.w	r8, #0
 8006634:	d005      	beq.n	8006642 <_dtoa_r+0x96a>
 8006636:	45b8      	cmp	r8, r7
 8006638:	d003      	beq.n	8006642 <_dtoa_r+0x96a>
 800663a:	4641      	mov	r1, r8
 800663c:	4620      	mov	r0, r4
 800663e:	f000 fd27 	bl	8007090 <_Bfree>
 8006642:	4639      	mov	r1, r7
 8006644:	4620      	mov	r0, r4
 8006646:	f000 fd23 	bl	8007090 <_Bfree>
 800664a:	e695      	b.n	8006378 <_dtoa_r+0x6a0>
 800664c:	2600      	movs	r6, #0
 800664e:	4637      	mov	r7, r6
 8006650:	e7e1      	b.n	8006616 <_dtoa_r+0x93e>
 8006652:	9700      	str	r7, [sp, #0]
 8006654:	4637      	mov	r7, r6
 8006656:	e599      	b.n	800618c <_dtoa_r+0x4b4>
 8006658:	40240000 	.word	0x40240000
 800665c:	9b08      	ldr	r3, [sp, #32]
 800665e:	2b00      	cmp	r3, #0
 8006660:	f000 80ca 	beq.w	80067f8 <_dtoa_r+0xb20>
 8006664:	9b03      	ldr	r3, [sp, #12]
 8006666:	9302      	str	r3, [sp, #8]
 8006668:	2d00      	cmp	r5, #0
 800666a:	dd05      	ble.n	8006678 <_dtoa_r+0x9a0>
 800666c:	4639      	mov	r1, r7
 800666e:	462a      	mov	r2, r5
 8006670:	4620      	mov	r0, r4
 8006672:	f000 ff29 	bl	80074c8 <__lshift>
 8006676:	4607      	mov	r7, r0
 8006678:	f1b8 0f00 	cmp.w	r8, #0
 800667c:	d05b      	beq.n	8006736 <_dtoa_r+0xa5e>
 800667e:	6879      	ldr	r1, [r7, #4]
 8006680:	4620      	mov	r0, r4
 8006682:	f000 fcc5 	bl	8007010 <_Balloc>
 8006686:	4605      	mov	r5, r0
 8006688:	b928      	cbnz	r0, 8006696 <_dtoa_r+0x9be>
 800668a:	4b87      	ldr	r3, [pc, #540]	; (80068a8 <_dtoa_r+0xbd0>)
 800668c:	4602      	mov	r2, r0
 800668e:	f240 21ea 	movw	r1, #746	; 0x2ea
 8006692:	f7ff bb3b 	b.w	8005d0c <_dtoa_r+0x34>
 8006696:	693a      	ldr	r2, [r7, #16]
 8006698:	3202      	adds	r2, #2
 800669a:	0092      	lsls	r2, r2, #2
 800669c:	f107 010c 	add.w	r1, r7, #12
 80066a0:	300c      	adds	r0, #12
 80066a2:	f000 fca7 	bl	8006ff4 <memcpy>
 80066a6:	2201      	movs	r2, #1
 80066a8:	4629      	mov	r1, r5
 80066aa:	4620      	mov	r0, r4
 80066ac:	f000 ff0c 	bl	80074c8 <__lshift>
 80066b0:	9b01      	ldr	r3, [sp, #4]
 80066b2:	f103 0901 	add.w	r9, r3, #1
 80066b6:	e9dd 2301 	ldrd	r2, r3, [sp, #4]
 80066ba:	4413      	add	r3, r2
 80066bc:	9305      	str	r3, [sp, #20]
 80066be:	f00a 0301 	and.w	r3, sl, #1
 80066c2:	46b8      	mov	r8, r7
 80066c4:	9304      	str	r3, [sp, #16]
 80066c6:	4607      	mov	r7, r0
 80066c8:	4631      	mov	r1, r6
 80066ca:	ee18 0a10 	vmov	r0, s16
 80066ce:	f7ff fa75 	bl	8005bbc <quorem>
 80066d2:	4641      	mov	r1, r8
 80066d4:	9002      	str	r0, [sp, #8]
 80066d6:	f100 0a30 	add.w	sl, r0, #48	; 0x30
 80066da:	ee18 0a10 	vmov	r0, s16
 80066de:	f000 ff63 	bl	80075a8 <__mcmp>
 80066e2:	463a      	mov	r2, r7
 80066e4:	9003      	str	r0, [sp, #12]
 80066e6:	4631      	mov	r1, r6
 80066e8:	4620      	mov	r0, r4
 80066ea:	f000 ff79 	bl	80075e0 <__mdiff>
 80066ee:	68c2      	ldr	r2, [r0, #12]
 80066f0:	f109 3bff 	add.w	fp, r9, #4294967295
 80066f4:	4605      	mov	r5, r0
 80066f6:	bb02      	cbnz	r2, 800673a <_dtoa_r+0xa62>
 80066f8:	4601      	mov	r1, r0
 80066fa:	ee18 0a10 	vmov	r0, s16
 80066fe:	f000 ff53 	bl	80075a8 <__mcmp>
 8006702:	4602      	mov	r2, r0
 8006704:	4629      	mov	r1, r5
 8006706:	4620      	mov	r0, r4
 8006708:	9207      	str	r2, [sp, #28]
 800670a:	f000 fcc1 	bl	8007090 <_Bfree>
 800670e:	e9dd 3206 	ldrd	r3, r2, [sp, #24]
 8006712:	ea43 0102 	orr.w	r1, r3, r2
 8006716:	9b04      	ldr	r3, [sp, #16]
 8006718:	430b      	orrs	r3, r1
 800671a:	464d      	mov	r5, r9
 800671c:	d10f      	bne.n	800673e <_dtoa_r+0xa66>
 800671e:	f1ba 0f39 	cmp.w	sl, #57	; 0x39
 8006722:	d02a      	beq.n	800677a <_dtoa_r+0xaa2>
 8006724:	9b03      	ldr	r3, [sp, #12]
 8006726:	2b00      	cmp	r3, #0
 8006728:	dd02      	ble.n	8006730 <_dtoa_r+0xa58>
 800672a:	9b02      	ldr	r3, [sp, #8]
 800672c:	f103 0a31 	add.w	sl, r3, #49	; 0x31
 8006730:	f88b a000 	strb.w	sl, [fp]
 8006734:	e775      	b.n	8006622 <_dtoa_r+0x94a>
 8006736:	4638      	mov	r0, r7
 8006738:	e7ba      	b.n	80066b0 <_dtoa_r+0x9d8>
 800673a:	2201      	movs	r2, #1
 800673c:	e7e2      	b.n	8006704 <_dtoa_r+0xa2c>
 800673e:	9b03      	ldr	r3, [sp, #12]
 8006740:	2b00      	cmp	r3, #0
 8006742:	db04      	blt.n	800674e <_dtoa_r+0xa76>
 8006744:	9906      	ldr	r1, [sp, #24]
 8006746:	430b      	orrs	r3, r1
 8006748:	9904      	ldr	r1, [sp, #16]
 800674a:	430b      	orrs	r3, r1
 800674c:	d122      	bne.n	8006794 <_dtoa_r+0xabc>
 800674e:	2a00      	cmp	r2, #0
 8006750:	ddee      	ble.n	8006730 <_dtoa_r+0xa58>
 8006752:	ee18 1a10 	vmov	r1, s16
 8006756:	2201      	movs	r2, #1
 8006758:	4620      	mov	r0, r4
 800675a:	f000 feb5 	bl	80074c8 <__lshift>
 800675e:	4631      	mov	r1, r6
 8006760:	ee08 0a10 	vmov	s16, r0
 8006764:	f000 ff20 	bl	80075a8 <__mcmp>
 8006768:	2800      	cmp	r0, #0
 800676a:	dc03      	bgt.n	8006774 <_dtoa_r+0xa9c>
 800676c:	d1e0      	bne.n	8006730 <_dtoa_r+0xa58>
 800676e:	f01a 0f01 	tst.w	sl, #1
 8006772:	d0dd      	beq.n	8006730 <_dtoa_r+0xa58>
 8006774:	f1ba 0f39 	cmp.w	sl, #57	; 0x39
 8006778:	d1d7      	bne.n	800672a <_dtoa_r+0xa52>
 800677a:	2339      	movs	r3, #57	; 0x39
 800677c:	f88b 3000 	strb.w	r3, [fp]
 8006780:	462b      	mov	r3, r5
 8006782:	461d      	mov	r5, r3
 8006784:	3b01      	subs	r3, #1
 8006786:	f815 2c01 	ldrb.w	r2, [r5, #-1]
 800678a:	2a39      	cmp	r2, #57	; 0x39
 800678c:	d071      	beq.n	8006872 <_dtoa_r+0xb9a>
 800678e:	3201      	adds	r2, #1
 8006790:	701a      	strb	r2, [r3, #0]
 8006792:	e746      	b.n	8006622 <_dtoa_r+0x94a>
 8006794:	2a00      	cmp	r2, #0
 8006796:	dd07      	ble.n	80067a8 <_dtoa_r+0xad0>
 8006798:	f1ba 0f39 	cmp.w	sl, #57	; 0x39
 800679c:	d0ed      	beq.n	800677a <_dtoa_r+0xaa2>
 800679e:	f10a 0301 	add.w	r3, sl, #1
 80067a2:	f88b 3000 	strb.w	r3, [fp]
 80067a6:	e73c      	b.n	8006622 <_dtoa_r+0x94a>
 80067a8:	9b05      	ldr	r3, [sp, #20]
 80067aa:	f809 ac01 	strb.w	sl, [r9, #-1]
 80067ae:	4599      	cmp	r9, r3
 80067b0:	d047      	beq.n	8006842 <_dtoa_r+0xb6a>
 80067b2:	ee18 1a10 	vmov	r1, s16
 80067b6:	2300      	movs	r3, #0
 80067b8:	220a      	movs	r2, #10
 80067ba:	4620      	mov	r0, r4
 80067bc:	f000 fc8a 	bl	80070d4 <__multadd>
 80067c0:	45b8      	cmp	r8, r7
 80067c2:	ee08 0a10 	vmov	s16, r0
 80067c6:	f04f 0300 	mov.w	r3, #0
 80067ca:	f04f 020a 	mov.w	r2, #10
 80067ce:	4641      	mov	r1, r8
 80067d0:	4620      	mov	r0, r4
 80067d2:	d106      	bne.n	80067e2 <_dtoa_r+0xb0a>
 80067d4:	f000 fc7e 	bl	80070d4 <__multadd>
 80067d8:	4680      	mov	r8, r0
 80067da:	4607      	mov	r7, r0
 80067dc:	f109 0901 	add.w	r9, r9, #1
 80067e0:	e772      	b.n	80066c8 <_dtoa_r+0x9f0>
 80067e2:	f000 fc77 	bl	80070d4 <__multadd>
 80067e6:	4639      	mov	r1, r7
 80067e8:	4680      	mov	r8, r0
 80067ea:	2300      	movs	r3, #0
 80067ec:	220a      	movs	r2, #10
 80067ee:	4620      	mov	r0, r4
 80067f0:	f000 fc70 	bl	80070d4 <__multadd>
 80067f4:	4607      	mov	r7, r0
 80067f6:	e7f1      	b.n	80067dc <_dtoa_r+0xb04>
 80067f8:	9b03      	ldr	r3, [sp, #12]
 80067fa:	9302      	str	r3, [sp, #8]
 80067fc:	9d01      	ldr	r5, [sp, #4]
 80067fe:	ee18 0a10 	vmov	r0, s16
 8006802:	4631      	mov	r1, r6
 8006804:	f7ff f9da 	bl	8005bbc <quorem>
 8006808:	f100 0a30 	add.w	sl, r0, #48	; 0x30
 800680c:	9b01      	ldr	r3, [sp, #4]
 800680e:	f805 ab01 	strb.w	sl, [r5], #1
 8006812:	1aea      	subs	r2, r5, r3
 8006814:	9b02      	ldr	r3, [sp, #8]
 8006816:	4293      	cmp	r3, r2
 8006818:	dd09      	ble.n	800682e <_dtoa_r+0xb56>
 800681a:	ee18 1a10 	vmov	r1, s16
 800681e:	2300      	movs	r3, #0
 8006820:	220a      	movs	r2, #10
 8006822:	4620      	mov	r0, r4
 8006824:	f000 fc56 	bl	80070d4 <__multadd>
 8006828:	ee08 0a10 	vmov	s16, r0
 800682c:	e7e7      	b.n	80067fe <_dtoa_r+0xb26>
 800682e:	9b02      	ldr	r3, [sp, #8]
 8006830:	2b00      	cmp	r3, #0
 8006832:	bfc8      	it	gt
 8006834:	461d      	movgt	r5, r3
 8006836:	9b01      	ldr	r3, [sp, #4]
 8006838:	bfd8      	it	le
 800683a:	2501      	movle	r5, #1
 800683c:	441d      	add	r5, r3
 800683e:	f04f 0800 	mov.w	r8, #0
 8006842:	ee18 1a10 	vmov	r1, s16
 8006846:	2201      	movs	r2, #1
 8006848:	4620      	mov	r0, r4
 800684a:	f000 fe3d 	bl	80074c8 <__lshift>
 800684e:	4631      	mov	r1, r6
 8006850:	ee08 0a10 	vmov	s16, r0
 8006854:	f000 fea8 	bl	80075a8 <__mcmp>
 8006858:	2800      	cmp	r0, #0
 800685a:	dc91      	bgt.n	8006780 <_dtoa_r+0xaa8>
 800685c:	d102      	bne.n	8006864 <_dtoa_r+0xb8c>
 800685e:	f01a 0f01 	tst.w	sl, #1
 8006862:	d18d      	bne.n	8006780 <_dtoa_r+0xaa8>
 8006864:	462b      	mov	r3, r5
 8006866:	461d      	mov	r5, r3
 8006868:	f813 2d01 	ldrb.w	r2, [r3, #-1]!
 800686c:	2a30      	cmp	r2, #48	; 0x30
 800686e:	d0fa      	beq.n	8006866 <_dtoa_r+0xb8e>
 8006870:	e6d7      	b.n	8006622 <_dtoa_r+0x94a>
 8006872:	9a01      	ldr	r2, [sp, #4]
 8006874:	429a      	cmp	r2, r3
 8006876:	d184      	bne.n	8006782 <_dtoa_r+0xaaa>
 8006878:	9b00      	ldr	r3, [sp, #0]
 800687a:	3301      	adds	r3, #1
 800687c:	9300      	str	r3, [sp, #0]
 800687e:	2331      	movs	r3, #49	; 0x31
 8006880:	7013      	strb	r3, [r2, #0]
 8006882:	e6ce      	b.n	8006622 <_dtoa_r+0x94a>
 8006884:	4b09      	ldr	r3, [pc, #36]	; (80068ac <_dtoa_r+0xbd4>)
 8006886:	f7ff ba95 	b.w	8005db4 <_dtoa_r+0xdc>
 800688a:	9b21      	ldr	r3, [sp, #132]	; 0x84
 800688c:	2b00      	cmp	r3, #0
 800688e:	f47f aa6e 	bne.w	8005d6e <_dtoa_r+0x96>
 8006892:	4b07      	ldr	r3, [pc, #28]	; (80068b0 <_dtoa_r+0xbd8>)
 8006894:	f7ff ba8e 	b.w	8005db4 <_dtoa_r+0xdc>
 8006898:	9b02      	ldr	r3, [sp, #8]
 800689a:	2b00      	cmp	r3, #0
 800689c:	dcae      	bgt.n	80067fc <_dtoa_r+0xb24>
 800689e:	9b06      	ldr	r3, [sp, #24]
 80068a0:	2b02      	cmp	r3, #2
 80068a2:	f73f aea8 	bgt.w	80065f6 <_dtoa_r+0x91e>
 80068a6:	e7a9      	b.n	80067fc <_dtoa_r+0xb24>
 80068a8:	080093f8 	.word	0x080093f8
 80068ac:	080095f1 	.word	0x080095f1
 80068b0:	08009379 	.word	0x08009379

080068b4 <rshift>:
 80068b4:	6903      	ldr	r3, [r0, #16]
 80068b6:	ebb3 1f61 	cmp.w	r3, r1, asr #5
 80068ba:	e92d 43f0 	stmdb	sp!, {r4, r5, r6, r7, r8, r9, lr}
 80068be:	ea4f 1261 	mov.w	r2, r1, asr #5
 80068c2:	f100 0414 	add.w	r4, r0, #20
 80068c6:	dd45      	ble.n	8006954 <rshift+0xa0>
 80068c8:	f011 011f 	ands.w	r1, r1, #31
 80068cc:	eb04 0683 	add.w	r6, r4, r3, lsl #2
 80068d0:	eb04 0582 	add.w	r5, r4, r2, lsl #2
 80068d4:	d10c      	bne.n	80068f0 <rshift+0x3c>
 80068d6:	f100 0710 	add.w	r7, r0, #16
 80068da:	4629      	mov	r1, r5
 80068dc:	42b1      	cmp	r1, r6
 80068de:	d334      	bcc.n	800694a <rshift+0x96>
 80068e0:	1a9b      	subs	r3, r3, r2
 80068e2:	009b      	lsls	r3, r3, #2
 80068e4:	1eea      	subs	r2, r5, #3
 80068e6:	4296      	cmp	r6, r2
 80068e8:	bf38      	it	cc
 80068ea:	2300      	movcc	r3, #0
 80068ec:	4423      	add	r3, r4
 80068ee:	e015      	b.n	800691c <rshift+0x68>
 80068f0:	f854 7022 	ldr.w	r7, [r4, r2, lsl #2]
 80068f4:	f1c1 0820 	rsb	r8, r1, #32
 80068f8:	40cf      	lsrs	r7, r1
 80068fa:	f105 0e04 	add.w	lr, r5, #4
 80068fe:	46a1      	mov	r9, r4
 8006900:	4576      	cmp	r6, lr
 8006902:	46f4      	mov	ip, lr
 8006904:	d815      	bhi.n	8006932 <rshift+0x7e>
 8006906:	1a9a      	subs	r2, r3, r2
 8006908:	0092      	lsls	r2, r2, #2
 800690a:	3a04      	subs	r2, #4
 800690c:	3501      	adds	r5, #1
 800690e:	42ae      	cmp	r6, r5
 8006910:	bf38      	it	cc
 8006912:	2200      	movcc	r2, #0
 8006914:	18a3      	adds	r3, r4, r2
 8006916:	50a7      	str	r7, [r4, r2]
 8006918:	b107      	cbz	r7, 800691c <rshift+0x68>
 800691a:	3304      	adds	r3, #4
 800691c:	1b1a      	subs	r2, r3, r4
 800691e:	42a3      	cmp	r3, r4
 8006920:	ea4f 02a2 	mov.w	r2, r2, asr #2
 8006924:	bf08      	it	eq
 8006926:	2300      	moveq	r3, #0
 8006928:	6102      	str	r2, [r0, #16]
 800692a:	bf08      	it	eq
 800692c:	6143      	streq	r3, [r0, #20]
 800692e:	e8bd 83f0 	ldmia.w	sp!, {r4, r5, r6, r7, r8, r9, pc}
 8006932:	f8dc c000 	ldr.w	ip, [ip]
 8006936:	fa0c fc08 	lsl.w	ip, ip, r8
 800693a:	ea4c 0707 	orr.w	r7, ip, r7
 800693e:	f849 7b04 	str.w	r7, [r9], #4
 8006942:	f85e 7b04 	ldr.w	r7, [lr], #4
 8006946:	40cf      	lsrs	r7, r1
 8006948:	e7da      	b.n	8006900 <rshift+0x4c>
 800694a:	f851 cb04 	ldr.w	ip, [r1], #4
 800694e:	f847 cf04 	str.w	ip, [r7, #4]!
 8006952:	e7c3      	b.n	80068dc <rshift+0x28>
 8006954:	4623      	mov	r3, r4
 8006956:	e7e1      	b.n	800691c <rshift+0x68>

08006958 <__hexdig_fun>:
 8006958:	f1a0 0330 	sub.w	r3, r0, #48	; 0x30
 800695c:	2b09      	cmp	r3, #9
 800695e:	d802      	bhi.n	8006966 <__hexdig_fun+0xe>
 8006960:	3820      	subs	r0, #32
 8006962:	b2c0      	uxtb	r0, r0
 8006964:	4770      	bx	lr
 8006966:	f1a0 0361 	sub.w	r3, r0, #97	; 0x61
 800696a:	2b05      	cmp	r3, #5
 800696c:	d801      	bhi.n	8006972 <__hexdig_fun+0x1a>
 800696e:	3847      	subs	r0, #71	; 0x47
 8006970:	e7f7      	b.n	8006962 <__hexdig_fun+0xa>
 8006972:	f1a0 0341 	sub.w	r3, r0, #65	; 0x41
 8006976:	2b05      	cmp	r3, #5
 8006978:	d801      	bhi.n	800697e <__hexdig_fun+0x26>
 800697a:	3827      	subs	r0, #39	; 0x27
 800697c:	e7f1      	b.n	8006962 <__hexdig_fun+0xa>
 800697e:	2000      	movs	r0, #0
 8006980:	4770      	bx	lr
	...

08006984 <__gethex>:
 8006984:	e92d 4ff0 	stmdb	sp!, {r4, r5, r6, r7, r8, r9, sl, fp, lr}
 8006988:	ed2d 8b02 	vpush	{d8}
 800698c:	b089      	sub	sp, #36	; 0x24
 800698e:	ee08 0a10 	vmov	s16, r0
 8006992:	9304      	str	r3, [sp, #16]
 8006994:	4bb4      	ldr	r3, [pc, #720]	; (8006c68 <__gethex+0x2e4>)
 8006996:	681b      	ldr	r3, [r3, #0]
 8006998:	9301      	str	r3, [sp, #4]
 800699a:	4618      	mov	r0, r3
 800699c:	468b      	mov	fp, r1
 800699e:	4690      	mov	r8, r2
 80069a0:	f7f9 fc36 	bl	8000210 <strlen>
 80069a4:	9b01      	ldr	r3, [sp, #4]
 80069a6:	f8db 2000 	ldr.w	r2, [fp]
 80069aa:	4403      	add	r3, r0
 80069ac:	4682      	mov	sl, r0
 80069ae:	f813 3c01 	ldrb.w	r3, [r3, #-1]
 80069b2:	9305      	str	r3, [sp, #20]
 80069b4:	1c93      	adds	r3, r2, #2
 80069b6:	f1c2 22ff 	rsb	r2, r2, #4278255360	; 0xff00ff00
 80069ba:	f502 027f 	add.w	r2, r2, #16711680	; 0xff0000
 80069be:	32fe      	adds	r2, #254	; 0xfe
 80069c0:	18d1      	adds	r1, r2, r3
 80069c2:	461f      	mov	r7, r3
 80069c4:	f813 0b01 	ldrb.w	r0, [r3], #1
 80069c8:	9100      	str	r1, [sp, #0]
 80069ca:	2830      	cmp	r0, #48	; 0x30
 80069cc:	d0f8      	beq.n	80069c0 <__gethex+0x3c>
 80069ce:	f7ff ffc3 	bl	8006958 <__hexdig_fun>
 80069d2:	4604      	mov	r4, r0
 80069d4:	2800      	cmp	r0, #0
 80069d6:	d13a      	bne.n	8006a4e <__gethex+0xca>
 80069d8:	9901      	ldr	r1, [sp, #4]
 80069da:	4652      	mov	r2, sl
 80069dc:	4638      	mov	r0, r7
 80069de:	f001 fdb3 	bl	8008548 <strncmp>
 80069e2:	4605      	mov	r5, r0
 80069e4:	2800      	cmp	r0, #0
 80069e6:	d168      	bne.n	8006aba <__gethex+0x136>
 80069e8:	f817 000a 	ldrb.w	r0, [r7, sl]
 80069ec:	eb07 060a 	add.w	r6, r7, sl
 80069f0:	f7ff ffb2 	bl	8006958 <__hexdig_fun>
 80069f4:	2800      	cmp	r0, #0
 80069f6:	d062      	beq.n	8006abe <__gethex+0x13a>
 80069f8:	4633      	mov	r3, r6
 80069fa:	7818      	ldrb	r0, [r3, #0]
 80069fc:	2830      	cmp	r0, #48	; 0x30
 80069fe:	461f      	mov	r7, r3
 8006a00:	f103 0301 	add.w	r3, r3, #1
 8006a04:	d0f9      	beq.n	80069fa <__gethex+0x76>
 8006a06:	f7ff ffa7 	bl	8006958 <__hexdig_fun>
 8006a0a:	2301      	movs	r3, #1
 8006a0c:	fab0 f480 	clz	r4, r0
 8006a10:	0964      	lsrs	r4, r4, #5
 8006a12:	4635      	mov	r5, r6
 8006a14:	9300      	str	r3, [sp, #0]
 8006a16:	463a      	mov	r2, r7
 8006a18:	4616      	mov	r6, r2
 8006a1a:	3201      	adds	r2, #1
 8006a1c:	7830      	ldrb	r0, [r6, #0]
 8006a1e:	f7ff ff9b 	bl	8006958 <__hexdig_fun>
 8006a22:	2800      	cmp	r0, #0
 8006a24:	d1f8      	bne.n	8006a18 <__gethex+0x94>
 8006a26:	9901      	ldr	r1, [sp, #4]
 8006a28:	4652      	mov	r2, sl
 8006a2a:	4630      	mov	r0, r6
 8006a2c:	f001 fd8c 	bl	8008548 <strncmp>
 8006a30:	b980      	cbnz	r0, 8006a54 <__gethex+0xd0>
 8006a32:	b94d      	cbnz	r5, 8006a48 <__gethex+0xc4>
 8006a34:	eb06 050a 	add.w	r5, r6, sl
 8006a38:	462a      	mov	r2, r5
 8006a3a:	4616      	mov	r6, r2
 8006a3c:	3201      	adds	r2, #1
 8006a3e:	7830      	ldrb	r0, [r6, #0]
 8006a40:	f7ff ff8a 	bl	8006958 <__hexdig_fun>
 8006a44:	2800      	cmp	r0, #0
 8006a46:	d1f8      	bne.n	8006a3a <__gethex+0xb6>
 8006a48:	1bad      	subs	r5, r5, r6
 8006a4a:	00ad      	lsls	r5, r5, #2
 8006a4c:	e004      	b.n	8006a58 <__gethex+0xd4>
 8006a4e:	2400      	movs	r4, #0
 8006a50:	4625      	mov	r5, r4
 8006a52:	e7e0      	b.n	8006a16 <__gethex+0x92>
 8006a54:	2d00      	cmp	r5, #0
 8006a56:	d1f7      	bne.n	8006a48 <__gethex+0xc4>
 8006a58:	7833      	ldrb	r3, [r6, #0]
 8006a5a:	f003 03df 	and.w	r3, r3, #223	; 0xdf
 8006a5e:	2b50      	cmp	r3, #80	; 0x50
 8006a60:	d13b      	bne.n	8006ada <__gethex+0x156>
 8006a62:	7873      	ldrb	r3, [r6, #1]
 8006a64:	2b2b      	cmp	r3, #43	; 0x2b
 8006a66:	d02c      	beq.n	8006ac2 <__gethex+0x13e>
 8006a68:	2b2d      	cmp	r3, #45	; 0x2d
 8006a6a:	d02e      	beq.n	8006aca <__gethex+0x146>
 8006a6c:	1c71      	adds	r1, r6, #1
 8006a6e:	f04f 0900 	mov.w	r9, #0
 8006a72:	7808      	ldrb	r0, [r1, #0]
 8006a74:	f7ff ff70 	bl	8006958 <__hexdig_fun>
 8006a78:	1e43      	subs	r3, r0, #1
 8006a7a:	b2db      	uxtb	r3, r3
 8006a7c:	2b18      	cmp	r3, #24
 8006a7e:	d82c      	bhi.n	8006ada <__gethex+0x156>
 8006a80:	f1a0 0210 	sub.w	r2, r0, #16
 8006a84:	f811 0f01 	ldrb.w	r0, [r1, #1]!
 8006a88:	f7ff ff66 	bl	8006958 <__hexdig_fun>
 8006a8c:	1e43      	subs	r3, r0, #1
 8006a8e:	b2db      	uxtb	r3, r3
 8006a90:	2b18      	cmp	r3, #24
 8006a92:	d91d      	bls.n	8006ad0 <__gethex+0x14c>
 8006a94:	f1b9 0f00 	cmp.w	r9, #0
 8006a98:	d000      	beq.n	8006a9c <__gethex+0x118>
 8006a9a:	4252      	negs	r2, r2
 8006a9c:	4415      	add	r5, r2
 8006a9e:	f8cb 1000 	str.w	r1, [fp]
 8006aa2:	b1e4      	cbz	r4, 8006ade <__gethex+0x15a>
 8006aa4:	9b00      	ldr	r3, [sp, #0]
 8006aa6:	2b00      	cmp	r3, #0
 8006aa8:	bf14      	ite	ne
 8006aaa:	2700      	movne	r7, #0
 8006aac:	2706      	moveq	r7, #6
 8006aae:	4638      	mov	r0, r7
 8006ab0:	b009      	add	sp, #36	; 0x24
 8006ab2:	ecbd 8b02 	vpop	{d8}
 8006ab6:	e8bd 8ff0 	ldmia.w	sp!, {r4, r5, r6, r7, r8, r9, sl, fp, pc}
 8006aba:	463e      	mov	r6, r7
 8006abc:	4625      	mov	r5, r4
 8006abe:	2401      	movs	r4, #1
 8006ac0:	e7ca      	b.n	8006a58 <__gethex+0xd4>
 8006ac2:	f04f 0900 	mov.w	r9, #0
 8006ac6:	1cb1      	adds	r1, r6, #2
 8006ac8:	e7d3      	b.n	8006a72 <__gethex+0xee>
 8006aca:	f04f 0901 	mov.w	r9, #1
 8006ace:	e7fa      	b.n	8006ac6 <__gethex+0x142>
 8006ad0:	230a      	movs	r3, #10
 8006ad2:	fb03 0202 	mla	r2, r3, r2, r0
 8006ad6:	3a10      	subs	r2, #16
 8006ad8:	e7d4      	b.n	8006a84 <__gethex+0x100>
 8006ada:	4631      	mov	r1, r6
 8006adc:	e7df      	b.n	8006a9e <__gethex+0x11a>
 8006ade:	1bf3      	subs	r3, r6, r7
 8006ae0:	3b01      	subs	r3, #1
 8006ae2:	4621      	mov	r1, r4
 8006ae4:	2b07      	cmp	r3, #7
 8006ae6:	dc0b      	bgt.n	8006b00 <__gethex+0x17c>
 8006ae8:	ee18 0a10 	vmov	r0, s16
 8006aec:	f000 fa90 	bl	8007010 <_Balloc>
 8006af0:	4604      	mov	r4, r0
 8006af2:	b940      	cbnz	r0, 8006b06 <__gethex+0x182>
 8006af4:	4b5d      	ldr	r3, [pc, #372]	; (8006c6c <__gethex+0x2e8>)
 8006af6:	4602      	mov	r2, r0
 8006af8:	21de      	movs	r1, #222	; 0xde
 8006afa:	485d      	ldr	r0, [pc, #372]	; (8006c70 <__gethex+0x2ec>)
 8006afc:	f001 fdf4 	bl	80086e8 <__assert_func>
 8006b00:	3101      	adds	r1, #1
 8006b02:	105b      	asrs	r3, r3, #1
 8006b04:	e7ee      	b.n	8006ae4 <__gethex+0x160>
 8006b06:	f100 0914 	add.w	r9, r0, #20
 8006b0a:	f04f 0b00 	mov.w	fp, #0
 8006b0e:	f1ca 0301 	rsb	r3, sl, #1
 8006b12:	f8cd 9008 	str.w	r9, [sp, #8]
 8006b16:	f8cd b000 	str.w	fp, [sp]
 8006b1a:	9306      	str	r3, [sp, #24]
 8006b1c:	42b7      	cmp	r7, r6
 8006b1e:	d340      	bcc.n	8006ba2 <__gethex+0x21e>
 8006b20:	9802      	ldr	r0, [sp, #8]
 8006b22:	9b00      	ldr	r3, [sp, #0]
 8006b24:	f840 3b04 	str.w	r3, [r0], #4
 8006b28:	eba0 0009 	sub.w	r0, r0, r9
 8006b2c:	1080      	asrs	r0, r0, #2
 8006b2e:	0146      	lsls	r6, r0, #5
 8006b30:	6120      	str	r0, [r4, #16]
 8006b32:	4618      	mov	r0, r3
 8006b34:	f000 fb5e 	bl	80071f4 <__hi0bits>
 8006b38:	1a30      	subs	r0, r6, r0
 8006b3a:	f8d8 6000 	ldr.w	r6, [r8]
 8006b3e:	42b0      	cmp	r0, r6
 8006b40:	dd63      	ble.n	8006c0a <__gethex+0x286>
 8006b42:	1b87      	subs	r7, r0, r6
 8006b44:	4639      	mov	r1, r7
 8006b46:	4620      	mov	r0, r4
 8006b48:	f000 ff02 	bl	8007950 <__any_on>
 8006b4c:	4682      	mov	sl, r0
 8006b4e:	b1a8      	cbz	r0, 8006b7c <__gethex+0x1f8>
 8006b50:	1e7b      	subs	r3, r7, #1
 8006b52:	1159      	asrs	r1, r3, #5
 8006b54:	f003 021f 	and.w	r2, r3, #31
 8006b58:	f859 1021 	ldr.w	r1, [r9, r1, lsl #2]
 8006b5c:	f04f 0a01 	mov.w	sl, #1
 8006b60:	fa0a f202 	lsl.w	r2, sl, r2
 8006b64:	420a      	tst	r2, r1
 8006b66:	d009      	beq.n	8006b7c <__gethex+0x1f8>
 8006b68:	4553      	cmp	r3, sl
 8006b6a:	dd05      	ble.n	8006b78 <__gethex+0x1f4>
 8006b6c:	1eb9      	subs	r1, r7, #2
 8006b6e:	4620      	mov	r0, r4
 8006b70:	f000 feee 	bl	8007950 <__any_on>
 8006b74:	2800      	cmp	r0, #0
 8006b76:	d145      	bne.n	8006c04 <__gethex+0x280>
 8006b78:	f04f 0a02 	mov.w	sl, #2
 8006b7c:	4639      	mov	r1, r7
 8006b7e:	4620      	mov	r0, r4
 8006b80:	f7ff fe98 	bl	80068b4 <rshift>
 8006b84:	443d      	add	r5, r7
 8006b86:	f8d8 3008 	ldr.w	r3, [r8, #8]
 8006b8a:	42ab      	cmp	r3, r5
 8006b8c:	da4c      	bge.n	8006c28 <__gethex+0x2a4>
 8006b8e:	ee18 0a10 	vmov	r0, s16
 8006b92:	4621      	mov	r1, r4
 8006b94:	f000 fa7c 	bl	8007090 <_Bfree>
 8006b98:	9a14      	ldr	r2, [sp, #80]	; 0x50
 8006b9a:	2300      	movs	r3, #0
 8006b9c:	6013      	str	r3, [r2, #0]
 8006b9e:	27a3      	movs	r7, #163	; 0xa3
 8006ba0:	e785      	b.n	8006aae <__gethex+0x12a>
 8006ba2:	1e73      	subs	r3, r6, #1
 8006ba4:	9a05      	ldr	r2, [sp, #20]
 8006ba6:	9303      	str	r3, [sp, #12]
 8006ba8:	f816 3c01 	ldrb.w	r3, [r6, #-1]
 8006bac:	4293      	cmp	r3, r2
 8006bae:	d019      	beq.n	8006be4 <__gethex+0x260>
 8006bb0:	f1bb 0f20 	cmp.w	fp, #32
 8006bb4:	d107      	bne.n	8006bc6 <__gethex+0x242>
 8006bb6:	9b02      	ldr	r3, [sp, #8]
 8006bb8:	9a00      	ldr	r2, [sp, #0]
 8006bba:	f843 2b04 	str.w	r2, [r3], #4
 8006bbe:	9302      	str	r3, [sp, #8]
 8006bc0:	2300      	movs	r3, #0
 8006bc2:	9300      	str	r3, [sp, #0]
 8006bc4:	469b      	mov	fp, r3
 8006bc6:	f816 0c01 	ldrb.w	r0, [r6, #-1]
 8006bca:	f7ff fec5 	bl	8006958 <__hexdig_fun>
 8006bce:	9b00      	ldr	r3, [sp, #0]
 8006bd0:	f000 000f 	and.w	r0, r0, #15
 8006bd4:	fa00 f00b 	lsl.w	r0, r0, fp
 8006bd8:	4303      	orrs	r3, r0
 8006bda:	9300      	str	r3, [sp, #0]
 8006bdc:	f10b 0b04 	add.w	fp, fp, #4
 8006be0:	9b03      	ldr	r3, [sp, #12]
 8006be2:	e00d      	b.n	8006c00 <__gethex+0x27c>
 8006be4:	9b03      	ldr	r3, [sp, #12]
 8006be6:	9a06      	ldr	r2, [sp, #24]
 8006be8:	4413      	add	r3, r2
 8006bea:	42bb      	cmp	r3, r7
 8006bec:	d3e0      	bcc.n	8006bb0 <__gethex+0x22c>
 8006bee:	4618      	mov	r0, r3
 8006bf0:	9901      	ldr	r1, [sp, #4]
 8006bf2:	9307      	str	r3, [sp, #28]
 8006bf4:	4652      	mov	r2, sl
 8006bf6:	f001 fca7 	bl	8008548 <strncmp>
 8006bfa:	9b07      	ldr	r3, [sp, #28]
 8006bfc:	2800      	cmp	r0, #0
 8006bfe:	d1d7      	bne.n	8006bb0 <__gethex+0x22c>
 8006c00:	461e      	mov	r6, r3
 8006c02:	e78b      	b.n	8006b1c <__gethex+0x198>
 8006c04:	f04f 0a03 	mov.w	sl, #3
 8006c08:	e7b8      	b.n	8006b7c <__gethex+0x1f8>
 8006c0a:	da0a      	bge.n	8006c22 <__gethex+0x29e>
 8006c0c:	1a37      	subs	r7, r6, r0
 8006c0e:	4621      	mov	r1, r4
 8006c10:	ee18 0a10 	vmov	r0, s16
 8006c14:	463a      	mov	r2, r7
 8006c16:	f000 fc57 	bl	80074c8 <__lshift>
 8006c1a:	1bed      	subs	r5, r5, r7
 8006c1c:	4604      	mov	r4, r0
 8006c1e:	f100 0914 	add.w	r9, r0, #20
 8006c22:	f04f 0a00 	mov.w	sl, #0
 8006c26:	e7ae      	b.n	8006b86 <__gethex+0x202>
 8006c28:	f8d8 0004 	ldr.w	r0, [r8, #4]
 8006c2c:	42a8      	cmp	r0, r5
 8006c2e:	dd72      	ble.n	8006d16 <__gethex+0x392>
 8006c30:	1b45      	subs	r5, r0, r5
 8006c32:	42ae      	cmp	r6, r5
 8006c34:	dc36      	bgt.n	8006ca4 <__gethex+0x320>
 8006c36:	f8d8 300c 	ldr.w	r3, [r8, #12]
 8006c3a:	2b02      	cmp	r3, #2
 8006c3c:	d02a      	beq.n	8006c94 <__gethex+0x310>
 8006c3e:	2b03      	cmp	r3, #3
 8006c40:	d02c      	beq.n	8006c9c <__gethex+0x318>
 8006c42:	2b01      	cmp	r3, #1
 8006c44:	d11c      	bne.n	8006c80 <__gethex+0x2fc>
 8006c46:	42ae      	cmp	r6, r5
 8006c48:	d11a      	bne.n	8006c80 <__gethex+0x2fc>
 8006c4a:	2e01      	cmp	r6, #1
 8006c4c:	d112      	bne.n	8006c74 <__gethex+0x2f0>
 8006c4e:	9a04      	ldr	r2, [sp, #16]
 8006c50:	f8d8 3004 	ldr.w	r3, [r8, #4]
 8006c54:	6013      	str	r3, [r2, #0]
 8006c56:	2301      	movs	r3, #1
 8006c58:	6123      	str	r3, [r4, #16]
 8006c5a:	f8c9 3000 	str.w	r3, [r9]
 8006c5e:	9b14      	ldr	r3, [sp, #80]	; 0x50
 8006c60:	2762      	movs	r7, #98	; 0x62
 8006c62:	601c      	str	r4, [r3, #0]
 8006c64:	e723      	b.n	8006aae <__gethex+0x12a>
 8006c66:	bf00      	nop
 8006c68:	08009470 	.word	0x08009470
 8006c6c:	080093f8 	.word	0x080093f8
 8006c70:	08009409 	.word	0x08009409
 8006c74:	1e71      	subs	r1, r6, #1
 8006c76:	4620      	mov	r0, r4
 8006c78:	f000 fe6a 	bl	8007950 <__any_on>
 8006c7c:	2800      	cmp	r0, #0
 8006c7e:	d1e6      	bne.n	8006c4e <__gethex+0x2ca>
 8006c80:	ee18 0a10 	vmov	r0, s16
 8006c84:	4621      	mov	r1, r4
 8006c86:	f000 fa03 	bl	8007090 <_Bfree>
 8006c8a:	9a14      	ldr	r2, [sp, #80]	; 0x50
 8006c8c:	2300      	movs	r3, #0
 8006c8e:	6013      	str	r3, [r2, #0]
 8006c90:	2750      	movs	r7, #80	; 0x50
 8006c92:	e70c      	b.n	8006aae <__gethex+0x12a>
 8006c94:	9b15      	ldr	r3, [sp, #84]	; 0x54
 8006c96:	2b00      	cmp	r3, #0
 8006c98:	d1f2      	bne.n	8006c80 <__gethex+0x2fc>
 8006c9a:	e7d8      	b.n	8006c4e <__gethex+0x2ca>
 8006c9c:	9b15      	ldr	r3, [sp, #84]	; 0x54
 8006c9e:	2b00      	cmp	r3, #0
 8006ca0:	d1d5      	bne.n	8006c4e <__gethex+0x2ca>
 8006ca2:	e7ed      	b.n	8006c80 <__gethex+0x2fc>
 8006ca4:	1e6f      	subs	r7, r5, #1
 8006ca6:	f1ba 0f00 	cmp.w	sl, #0
 8006caa:	d131      	bne.n	8006d10 <__gethex+0x38c>
 8006cac:	b127      	cbz	r7, 8006cb8 <__gethex+0x334>
 8006cae:	4639      	mov	r1, r7
 8006cb0:	4620      	mov	r0, r4
 8006cb2:	f000 fe4d 	bl	8007950 <__any_on>
 8006cb6:	4682      	mov	sl, r0
 8006cb8:	117b      	asrs	r3, r7, #5
 8006cba:	2101      	movs	r1, #1
 8006cbc:	f859 3023 	ldr.w	r3, [r9, r3, lsl #2]
 8006cc0:	f007 071f 	and.w	r7, r7, #31
 8006cc4:	fa01 f707 	lsl.w	r7, r1, r7
 8006cc8:	421f      	tst	r7, r3
 8006cca:	4629      	mov	r1, r5
 8006ccc:	4620      	mov	r0, r4
 8006cce:	bf18      	it	ne
 8006cd0:	f04a 0a02 	orrne.w	sl, sl, #2
 8006cd4:	1b76      	subs	r6, r6, r5
 8006cd6:	f7ff fded 	bl	80068b4 <rshift>
 8006cda:	f8d8 5004 	ldr.w	r5, [r8, #4]
 8006cde:	2702      	movs	r7, #2
 8006ce0:	f1ba 0f00 	cmp.w	sl, #0
 8006ce4:	d048      	beq.n	8006d78 <__gethex+0x3f4>
 8006ce6:	f8d8 300c 	ldr.w	r3, [r8, #12]
 8006cea:	2b02      	cmp	r3, #2
 8006cec:	d015      	beq.n	8006d1a <__gethex+0x396>
 8006cee:	2b03      	cmp	r3, #3
 8006cf0:	d017      	beq.n	8006d22 <__gethex+0x39e>
 8006cf2:	2b01      	cmp	r3, #1
 8006cf4:	d109      	bne.n	8006d0a <__gethex+0x386>
 8006cf6:	f01a 0f02 	tst.w	sl, #2
 8006cfa:	d006      	beq.n	8006d0a <__gethex+0x386>
 8006cfc:	f8d9 0000 	ldr.w	r0, [r9]
 8006d00:	ea4a 0a00 	orr.w	sl, sl, r0
 8006d04:	f01a 0f01 	tst.w	sl, #1
 8006d08:	d10e      	bne.n	8006d28 <__gethex+0x3a4>
 8006d0a:	f047 0710 	orr.w	r7, r7, #16
 8006d0e:	e033      	b.n	8006d78 <__gethex+0x3f4>
 8006d10:	f04f 0a01 	mov.w	sl, #1
 8006d14:	e7d0      	b.n	8006cb8 <__gethex+0x334>
 8006d16:	2701      	movs	r7, #1
 8006d18:	e7e2      	b.n	8006ce0 <__gethex+0x35c>
 8006d1a:	9b15      	ldr	r3, [sp, #84]	; 0x54
 8006d1c:	f1c3 0301 	rsb	r3, r3, #1
 8006d20:	9315      	str	r3, [sp, #84]	; 0x54
 8006d22:	9b15      	ldr	r3, [sp, #84]	; 0x54
 8006d24:	2b00      	cmp	r3, #0
 8006d26:	d0f0      	beq.n	8006d0a <__gethex+0x386>
 8006d28:	f8d4 b010 	ldr.w	fp, [r4, #16]
 8006d2c:	f104 0314 	add.w	r3, r4, #20
 8006d30:	ea4f 0a8b 	mov.w	sl, fp, lsl #2
 8006d34:	eb03 018b 	add.w	r1, r3, fp, lsl #2
 8006d38:	f04f 0c00 	mov.w	ip, #0
 8006d3c:	4618      	mov	r0, r3
 8006d3e:	f853 2b04 	ldr.w	r2, [r3], #4
 8006d42:	f1b2 3fff 	cmp.w	r2, #4294967295
 8006d46:	d01c      	beq.n	8006d82 <__gethex+0x3fe>
 8006d48:	3201      	adds	r2, #1
 8006d4a:	6002      	str	r2, [r0, #0]
 8006d4c:	2f02      	cmp	r7, #2
 8006d4e:	f104 0314 	add.w	r3, r4, #20
 8006d52:	d13f      	bne.n	8006dd4 <__gethex+0x450>
 8006d54:	f8d8 2000 	ldr.w	r2, [r8]
 8006d58:	3a01      	subs	r2, #1
 8006d5a:	42b2      	cmp	r2, r6
 8006d5c:	d10a      	bne.n	8006d74 <__gethex+0x3f0>
 8006d5e:	1171      	asrs	r1, r6, #5
 8006d60:	2201      	movs	r2, #1
 8006d62:	f853 3021 	ldr.w	r3, [r3, r1, lsl #2]
 8006d66:	f006 061f 	and.w	r6, r6, #31
 8006d6a:	fa02 f606 	lsl.w	r6, r2, r6
 8006d6e:	421e      	tst	r6, r3
 8006d70:	bf18      	it	ne
 8006d72:	4617      	movne	r7, r2
 8006d74:	f047 0720 	orr.w	r7, r7, #32
 8006d78:	9b14      	ldr	r3, [sp, #80]	; 0x50
 8006d7a:	601c      	str	r4, [r3, #0]
 8006d7c:	9b04      	ldr	r3, [sp, #16]
 8006d7e:	601d      	str	r5, [r3, #0]
 8006d80:	e695      	b.n	8006aae <__gethex+0x12a>
 8006d82:	4299      	cmp	r1, r3
 8006d84:	f843 cc04 	str.w	ip, [r3, #-4]
 8006d88:	d8d8      	bhi.n	8006d3c <__gethex+0x3b8>
 8006d8a:	68a3      	ldr	r3, [r4, #8]
 8006d8c:	459b      	cmp	fp, r3
 8006d8e:	db19      	blt.n	8006dc4 <__gethex+0x440>
 8006d90:	6861      	ldr	r1, [r4, #4]
 8006d92:	ee18 0a10 	vmov	r0, s16
 8006d96:	3101      	adds	r1, #1
 8006d98:	f000 f93a 	bl	8007010 <_Balloc>
 8006d9c:	4681      	mov	r9, r0
 8006d9e:	b918      	cbnz	r0, 8006da8 <__gethex+0x424>
 8006da0:	4b1a      	ldr	r3, [pc, #104]	; (8006e0c <__gethex+0x488>)
 8006da2:	4602      	mov	r2, r0
 8006da4:	2184      	movs	r1, #132	; 0x84
 8006da6:	e6a8      	b.n	8006afa <__gethex+0x176>
 8006da8:	6922      	ldr	r2, [r4, #16]
 8006daa:	3202      	adds	r2, #2
 8006dac:	f104 010c 	add.w	r1, r4, #12
 8006db0:	0092      	lsls	r2, r2, #2
 8006db2:	300c      	adds	r0, #12
 8006db4:	f000 f91e 	bl	8006ff4 <memcpy>
 8006db8:	4621      	mov	r1, r4
 8006dba:	ee18 0a10 	vmov	r0, s16
 8006dbe:	f000 f967 	bl	8007090 <_Bfree>
 8006dc2:	464c      	mov	r4, r9
 8006dc4:	6923      	ldr	r3, [r4, #16]
 8006dc6:	1c5a      	adds	r2, r3, #1
 8006dc8:	eb04 0383 	add.w	r3, r4, r3, lsl #2
 8006dcc:	6122      	str	r2, [r4, #16]
 8006dce:	2201      	movs	r2, #1
 8006dd0:	615a      	str	r2, [r3, #20]
 8006dd2:	e7bb      	b.n	8006d4c <__gethex+0x3c8>
 8006dd4:	6922      	ldr	r2, [r4, #16]
 8006dd6:	455a      	cmp	r2, fp
 8006dd8:	dd0b      	ble.n	8006df2 <__gethex+0x46e>
 8006dda:	2101      	movs	r1, #1
 8006ddc:	4620      	mov	r0, r4
 8006dde:	f7ff fd69 	bl	80068b4 <rshift>
 8006de2:	f8d8 3008 	ldr.w	r3, [r8, #8]
 8006de6:	3501      	adds	r5, #1
 8006de8:	42ab      	cmp	r3, r5
 8006dea:	f6ff aed0 	blt.w	8006b8e <__gethex+0x20a>
 8006dee:	2701      	movs	r7, #1
 8006df0:	e7c0      	b.n	8006d74 <__gethex+0x3f0>
 8006df2:	f016 061f 	ands.w	r6, r6, #31
 8006df6:	d0fa      	beq.n	8006dee <__gethex+0x46a>
 8006df8:	4453      	add	r3, sl
 8006dfa:	f1c6 0620 	rsb	r6, r6, #32
 8006dfe:	f853 0c04 	ldr.w	r0, [r3, #-4]
 8006e02:	f000 f9f7 	bl	80071f4 <__hi0bits>
 8006e06:	42b0      	cmp	r0, r6
 8006e08:	dbe7      	blt.n	8006dda <__gethex+0x456>
 8006e0a:	e7f0      	b.n	8006dee <__gethex+0x46a>
 8006e0c:	080093f8 	.word	0x080093f8

08006e10 <L_shift>:
 8006e10:	f1c2 0208 	rsb	r2, r2, #8
 8006e14:	0092      	lsls	r2, r2, #2
 8006e16:	b570      	push	{r4, r5, r6, lr}
 8006e18:	f1c2 0620 	rsb	r6, r2, #32
 8006e1c:	6843      	ldr	r3, [r0, #4]
 8006e1e:	6804      	ldr	r4, [r0, #0]
 8006e20:	fa03 f506 	lsl.w	r5, r3, r6
 8006e24:	432c      	orrs	r4, r5
 8006e26:	40d3      	lsrs	r3, r2
 8006e28:	6004      	str	r4, [r0, #0]
 8006e2a:	f840 3f04 	str.w	r3, [r0, #4]!
 8006e2e:	4288      	cmp	r0, r1
 8006e30:	d3f4      	bcc.n	8006e1c <L_shift+0xc>
 8006e32:	bd70      	pop	{r4, r5, r6, pc}

08006e34 <__match>:
 8006e34:	b530      	push	{r4, r5, lr}
 8006e36:	6803      	ldr	r3, [r0, #0]
 8006e38:	3301      	adds	r3, #1
 8006e3a:	f811 4b01 	ldrb.w	r4, [r1], #1
 8006e3e:	b914      	cbnz	r4, 8006e46 <__match+0x12>
 8006e40:	6003      	str	r3, [r0, #0]
 8006e42:	2001      	movs	r0, #1
 8006e44:	bd30      	pop	{r4, r5, pc}
 8006e46:	f813 2b01 	ldrb.w	r2, [r3], #1
 8006e4a:	f1a2 0541 	sub.w	r5, r2, #65	; 0x41
 8006e4e:	2d19      	cmp	r5, #25
 8006e50:	bf98      	it	ls
 8006e52:	3220      	addls	r2, #32
 8006e54:	42a2      	cmp	r2, r4
 8006e56:	d0f0      	beq.n	8006e3a <__match+0x6>
 8006e58:	2000      	movs	r0, #0
 8006e5a:	e7f3      	b.n	8006e44 <__match+0x10>

08006e5c <__hexnan>:
 8006e5c:	e92d 4ff0 	stmdb	sp!, {r4, r5, r6, r7, r8, r9, sl, fp, lr}
 8006e60:	680b      	ldr	r3, [r1, #0]
 8006e62:	115e      	asrs	r6, r3, #5
 8006e64:	eb02 0686 	add.w	r6, r2, r6, lsl #2
 8006e68:	f013 031f 	ands.w	r3, r3, #31
 8006e6c:	b087      	sub	sp, #28
 8006e6e:	bf18      	it	ne
 8006e70:	3604      	addne	r6, #4
 8006e72:	2500      	movs	r5, #0
 8006e74:	1f37      	subs	r7, r6, #4
 8006e76:	4690      	mov	r8, r2
 8006e78:	6802      	ldr	r2, [r0, #0]
 8006e7a:	9301      	str	r3, [sp, #4]
 8006e7c:	4682      	mov	sl, r0
 8006e7e:	f846 5c04 	str.w	r5, [r6, #-4]
 8006e82:	46b9      	mov	r9, r7
 8006e84:	463c      	mov	r4, r7
 8006e86:	9502      	str	r5, [sp, #8]
 8006e88:	46ab      	mov	fp, r5
 8006e8a:	7851      	ldrb	r1, [r2, #1]
 8006e8c:	1c53      	adds	r3, r2, #1
 8006e8e:	9303      	str	r3, [sp, #12]
 8006e90:	b341      	cbz	r1, 8006ee4 <__hexnan+0x88>
 8006e92:	4608      	mov	r0, r1
 8006e94:	9205      	str	r2, [sp, #20]
 8006e96:	9104      	str	r1, [sp, #16]
 8006e98:	f7ff fd5e 	bl	8006958 <__hexdig_fun>
 8006e9c:	2800      	cmp	r0, #0
 8006e9e:	d14f      	bne.n	8006f40 <__hexnan+0xe4>
 8006ea0:	9904      	ldr	r1, [sp, #16]
 8006ea2:	9a05      	ldr	r2, [sp, #20]
 8006ea4:	2920      	cmp	r1, #32
 8006ea6:	d818      	bhi.n	8006eda <__hexnan+0x7e>
 8006ea8:	9b02      	ldr	r3, [sp, #8]
 8006eaa:	459b      	cmp	fp, r3
 8006eac:	dd13      	ble.n	8006ed6 <__hexnan+0x7a>
 8006eae:	454c      	cmp	r4, r9
 8006eb0:	d206      	bcs.n	8006ec0 <__hexnan+0x64>
 8006eb2:	2d07      	cmp	r5, #7
 8006eb4:	dc04      	bgt.n	8006ec0 <__hexnan+0x64>
 8006eb6:	462a      	mov	r2, r5
 8006eb8:	4649      	mov	r1, r9
 8006eba:	4620      	mov	r0, r4
 8006ebc:	f7ff ffa8 	bl	8006e10 <L_shift>
 8006ec0:	4544      	cmp	r4, r8
 8006ec2:	d950      	bls.n	8006f66 <__hexnan+0x10a>
 8006ec4:	2300      	movs	r3, #0
 8006ec6:	f1a4 0904 	sub.w	r9, r4, #4
 8006eca:	f844 3c04 	str.w	r3, [r4, #-4]
 8006ece:	f8cd b008 	str.w	fp, [sp, #8]
 8006ed2:	464c      	mov	r4, r9
 8006ed4:	461d      	mov	r5, r3
 8006ed6:	9a03      	ldr	r2, [sp, #12]
 8006ed8:	e7d7      	b.n	8006e8a <__hexnan+0x2e>
 8006eda:	2929      	cmp	r1, #41	; 0x29
 8006edc:	d156      	bne.n	8006f8c <__hexnan+0x130>
 8006ede:	3202      	adds	r2, #2
 8006ee0:	f8ca 2000 	str.w	r2, [sl]
 8006ee4:	f1bb 0f00 	cmp.w	fp, #0
 8006ee8:	d050      	beq.n	8006f8c <__hexnan+0x130>
 8006eea:	454c      	cmp	r4, r9
 8006eec:	d206      	bcs.n	8006efc <__hexnan+0xa0>
 8006eee:	2d07      	cmp	r5, #7
 8006ef0:	dc04      	bgt.n	8006efc <__hexnan+0xa0>
 8006ef2:	462a      	mov	r2, r5
 8006ef4:	4649      	mov	r1, r9
 8006ef6:	4620      	mov	r0, r4
 8006ef8:	f7ff ff8a 	bl	8006e10 <L_shift>
 8006efc:	4544      	cmp	r4, r8
 8006efe:	d934      	bls.n	8006f6a <__hexnan+0x10e>
 8006f00:	f1a8 0204 	sub.w	r2, r8, #4
 8006f04:	4623      	mov	r3, r4
 8006f06:	f853 1b04 	ldr.w	r1, [r3], #4
 8006f0a:	f842 1f04 	str.w	r1, [r2, #4]!
 8006f0e:	429f      	cmp	r7, r3
 8006f10:	d2f9      	bcs.n	8006f06 <__hexnan+0xaa>
 8006f12:	1b3b      	subs	r3, r7, r4
 8006f14:	f023 0303 	bic.w	r3, r3, #3
 8006f18:	3304      	adds	r3, #4
 8006f1a:	3401      	adds	r4, #1
 8006f1c:	3e03      	subs	r6, #3
 8006f1e:	42b4      	cmp	r4, r6
 8006f20:	bf88      	it	hi
 8006f22:	2304      	movhi	r3, #4
 8006f24:	4443      	add	r3, r8
 8006f26:	2200      	movs	r2, #0
 8006f28:	f843 2b04 	str.w	r2, [r3], #4
 8006f2c:	429f      	cmp	r7, r3
 8006f2e:	d2fb      	bcs.n	8006f28 <__hexnan+0xcc>
 8006f30:	683b      	ldr	r3, [r7, #0]
 8006f32:	b91b      	cbnz	r3, 8006f3c <__hexnan+0xe0>
 8006f34:	4547      	cmp	r7, r8
 8006f36:	d127      	bne.n	8006f88 <__hexnan+0x12c>
 8006f38:	2301      	movs	r3, #1
 8006f3a:	603b      	str	r3, [r7, #0]
 8006f3c:	2005      	movs	r0, #5
 8006f3e:	e026      	b.n	8006f8e <__hexnan+0x132>
 8006f40:	3501      	adds	r5, #1
 8006f42:	2d08      	cmp	r5, #8
 8006f44:	f10b 0b01 	add.w	fp, fp, #1
 8006f48:	dd06      	ble.n	8006f58 <__hexnan+0xfc>
 8006f4a:	4544      	cmp	r4, r8
 8006f4c:	d9c3      	bls.n	8006ed6 <__hexnan+0x7a>
 8006f4e:	2300      	movs	r3, #0
 8006f50:	f844 3c04 	str.w	r3, [r4, #-4]
 8006f54:	2501      	movs	r5, #1
 8006f56:	3c04      	subs	r4, #4
 8006f58:	6822      	ldr	r2, [r4, #0]
 8006f5a:	f000 000f 	and.w	r0, r0, #15
 8006f5e:	ea40 1202 	orr.w	r2, r0, r2, lsl #4
 8006f62:	6022      	str	r2, [r4, #0]
 8006f64:	e7b7      	b.n	8006ed6 <__hexnan+0x7a>
 8006f66:	2508      	movs	r5, #8
 8006f68:	e7b5      	b.n	8006ed6 <__hexnan+0x7a>
 8006f6a:	9b01      	ldr	r3, [sp, #4]
 8006f6c:	2b00      	cmp	r3, #0
 8006f6e:	d0df      	beq.n	8006f30 <__hexnan+0xd4>
 8006f70:	f04f 32ff 	mov.w	r2, #4294967295
 8006f74:	f1c3 0320 	rsb	r3, r3, #32
 8006f78:	fa22 f303 	lsr.w	r3, r2, r3
 8006f7c:	f856 2c04 	ldr.w	r2, [r6, #-4]
 8006f80:	401a      	ands	r2, r3
 8006f82:	f846 2c04 	str.w	r2, [r6, #-4]
 8006f86:	e7d3      	b.n	8006f30 <__hexnan+0xd4>
 8006f88:	3f04      	subs	r7, #4
 8006f8a:	e7d1      	b.n	8006f30 <__hexnan+0xd4>
 8006f8c:	2004      	movs	r0, #4
 8006f8e:	b007      	add	sp, #28
 8006f90:	e8bd 8ff0 	ldmia.w	sp!, {r4, r5, r6, r7, r8, r9, sl, fp, pc}

08006f94 <_localeconv_r>:
 8006f94:	4800      	ldr	r0, [pc, #0]	; (8006f98 <_localeconv_r+0x4>)
 8006f96:	4770      	bx	lr
 8006f98:	20000164 	.word	0x20000164

08006f9c <_lseek_r>:
 8006f9c:	b538      	push	{r3, r4, r5, lr}
 8006f9e:	4d07      	ldr	r5, [pc, #28]	; (8006fbc <_lseek_r+0x20>)
 8006fa0:	4604      	mov	r4, r0
 8006fa2:	4608      	mov	r0, r1
 8006fa4:	4611      	mov	r1, r2
 8006fa6:	2200      	movs	r2, #0
 8006fa8:	602a      	str	r2, [r5, #0]
 8006faa:	461a      	mov	r2, r3
 8006fac:	f7fa fc72 	bl	8001894 <_lseek>
 8006fb0:	1c43      	adds	r3, r0, #1
 8006fb2:	d102      	bne.n	8006fba <_lseek_r+0x1e>
 8006fb4:	682b      	ldr	r3, [r5, #0]
 8006fb6:	b103      	cbz	r3, 8006fba <_lseek_r+0x1e>
 8006fb8:	6023      	str	r3, [r4, #0]
 8006fba:	bd38      	pop	{r3, r4, r5, pc}
 8006fbc:	2000095c 	.word	0x2000095c

08006fc0 <malloc>:
 8006fc0:	4b02      	ldr	r3, [pc, #8]	; (8006fcc <malloc+0xc>)
 8006fc2:	4601      	mov	r1, r0
 8006fc4:	6818      	ldr	r0, [r3, #0]
 8006fc6:	f000 bd67 	b.w	8007a98 <_malloc_r>
 8006fca:	bf00      	nop
 8006fcc:	2000000c 	.word	0x2000000c

08006fd0 <__ascii_mbtowc>:
 8006fd0:	b082      	sub	sp, #8
 8006fd2:	b901      	cbnz	r1, 8006fd6 <__ascii_mbtowc+0x6>
 8006fd4:	a901      	add	r1, sp, #4
 8006fd6:	b142      	cbz	r2, 8006fea <__ascii_mbtowc+0x1a>
 8006fd8:	b14b      	cbz	r3, 8006fee <__ascii_mbtowc+0x1e>
 8006fda:	7813      	ldrb	r3, [r2, #0]
 8006fdc:	600b      	str	r3, [r1, #0]
 8006fde:	7812      	ldrb	r2, [r2, #0]
 8006fe0:	1e10      	subs	r0, r2, #0
 8006fe2:	bf18      	it	ne
 8006fe4:	2001      	movne	r0, #1
 8006fe6:	b002      	add	sp, #8
 8006fe8:	4770      	bx	lr
 8006fea:	4610      	mov	r0, r2
 8006fec:	e7fb      	b.n	8006fe6 <__ascii_mbtowc+0x16>
 8006fee:	f06f 0001 	mvn.w	r0, #1
 8006ff2:	e7f8      	b.n	8006fe6 <__ascii_mbtowc+0x16>

08006ff4 <memcpy>:
 8006ff4:	440a      	add	r2, r1
 8006ff6:	4291      	cmp	r1, r2
 8006ff8:	f100 33ff 	add.w	r3, r0, #4294967295
 8006ffc:	d100      	bne.n	8007000 <memcpy+0xc>
 8006ffe:	4770      	bx	lr
 8007000:	b510      	push	{r4, lr}
 8007002:	f811 4b01 	ldrb.w	r4, [r1], #1
 8007006:	f803 4f01 	strb.w	r4, [r3, #1]!
 800700a:	4291      	cmp	r1, r2
 800700c:	d1f9      	bne.n	8007002 <memcpy+0xe>
 800700e:	bd10      	pop	{r4, pc}

08007010 <_Balloc>:
 8007010:	b570      	push	{r4, r5, r6, lr}
 8007012:	6a46      	ldr	r6, [r0, #36]	; 0x24
 8007014:	4604      	mov	r4, r0
 8007016:	460d      	mov	r5, r1
 8007018:	b976      	cbnz	r6, 8007038 <_Balloc+0x28>
 800701a:	2010      	movs	r0, #16
 800701c:	f7ff ffd0 	bl	8006fc0 <malloc>
 8007020:	4602      	mov	r2, r0
 8007022:	6260      	str	r0, [r4, #36]	; 0x24
 8007024:	b920      	cbnz	r0, 8007030 <_Balloc+0x20>
 8007026:	4b18      	ldr	r3, [pc, #96]	; (8007088 <_Balloc+0x78>)
 8007028:	4818      	ldr	r0, [pc, #96]	; (800708c <_Balloc+0x7c>)
 800702a:	2166      	movs	r1, #102	; 0x66
 800702c:	f001 fb5c 	bl	80086e8 <__assert_func>
 8007030:	e9c0 6601 	strd	r6, r6, [r0, #4]
 8007034:	6006      	str	r6, [r0, #0]
 8007036:	60c6      	str	r6, [r0, #12]
 8007038:	6a66      	ldr	r6, [r4, #36]	; 0x24
 800703a:	68f3      	ldr	r3, [r6, #12]
 800703c:	b183      	cbz	r3, 8007060 <_Balloc+0x50>
 800703e:	6a63      	ldr	r3, [r4, #36]	; 0x24
 8007040:	68db      	ldr	r3, [r3, #12]
 8007042:	f853 0025 	ldr.w	r0, [r3, r5, lsl #2]
 8007046:	b9b8      	cbnz	r0, 8007078 <_Balloc+0x68>
 8007048:	2101      	movs	r1, #1
 800704a:	fa01 f605 	lsl.w	r6, r1, r5
 800704e:	1d72      	adds	r2, r6, #5
 8007050:	0092      	lsls	r2, r2, #2
 8007052:	4620      	mov	r0, r4
 8007054:	f000 fc9d 	bl	8007992 <_calloc_r>
 8007058:	b160      	cbz	r0, 8007074 <_Balloc+0x64>
 800705a:	e9c0 5601 	strd	r5, r6, [r0, #4]
 800705e:	e00e      	b.n	800707e <_Balloc+0x6e>
 8007060:	2221      	movs	r2, #33	; 0x21
 8007062:	2104      	movs	r1, #4
 8007064:	4620      	mov	r0, r4
 8007066:	f000 fc94 	bl	8007992 <_calloc_r>
 800706a:	6a63      	ldr	r3, [r4, #36]	; 0x24
 800706c:	60f0      	str	r0, [r6, #12]
 800706e:	68db      	ldr	r3, [r3, #12]
 8007070:	2b00      	cmp	r3, #0
 8007072:	d1e4      	bne.n	800703e <_Balloc+0x2e>
 8007074:	2000      	movs	r0, #0
 8007076:	bd70      	pop	{r4, r5, r6, pc}
 8007078:	6802      	ldr	r2, [r0, #0]
 800707a:	f843 2025 	str.w	r2, [r3, r5, lsl #2]
 800707e:	2300      	movs	r3, #0
 8007080:	e9c0 3303 	strd	r3, r3, [r0, #12]
 8007084:	e7f7      	b.n	8007076 <_Balloc+0x66>
 8007086:	bf00      	nop
 8007088:	08009386 	.word	0x08009386
 800708c:	08009484 	.word	0x08009484

08007090 <_Bfree>:
 8007090:	b570      	push	{r4, r5, r6, lr}
 8007092:	6a46      	ldr	r6, [r0, #36]	; 0x24
 8007094:	4605      	mov	r5, r0
 8007096:	460c      	mov	r4, r1
 8007098:	b976      	cbnz	r6, 80070b8 <_Bfree+0x28>
 800709a:	2010      	movs	r0, #16
 800709c:	f7ff ff90 	bl	8006fc0 <malloc>
 80070a0:	4602      	mov	r2, r0
 80070a2:	6268      	str	r0, [r5, #36]	; 0x24
 80070a4:	b920      	cbnz	r0, 80070b0 <_Bfree+0x20>
 80070a6:	4b09      	ldr	r3, [pc, #36]	; (80070cc <_Bfree+0x3c>)
 80070a8:	4809      	ldr	r0, [pc, #36]	; (80070d0 <_Bfree+0x40>)
 80070aa:	218a      	movs	r1, #138	; 0x8a
 80070ac:	f001 fb1c 	bl	80086e8 <__assert_func>
 80070b0:	e9c0 6601 	strd	r6, r6, [r0, #4]
 80070b4:	6006      	str	r6, [r0, #0]
 80070b6:	60c6      	str	r6, [r0, #12]
 80070b8:	b13c      	cbz	r4, 80070ca <_Bfree+0x3a>
 80070ba:	6a6b      	ldr	r3, [r5, #36]	; 0x24
 80070bc:	6862      	ldr	r2, [r4, #4]
 80070be:	68db      	ldr	r3, [r3, #12]
 80070c0:	f853 1022 	ldr.w	r1, [r3, r2, lsl #2]
 80070c4:	6021      	str	r1, [r4, #0]
 80070c6:	f843 4022 	str.w	r4, [r3, r2, lsl #2]
 80070ca:	bd70      	pop	{r4, r5, r6, pc}
 80070cc:	08009386 	.word	0x08009386
 80070d0:	08009484 	.word	0x08009484

080070d4 <__multadd>:
 80070d4:	e92d 41f0 	stmdb	sp!, {r4, r5, r6, r7, r8, lr}
 80070d8:	690d      	ldr	r5, [r1, #16]
 80070da:	4607      	mov	r7, r0
 80070dc:	460c      	mov	r4, r1
 80070de:	461e      	mov	r6, r3
 80070e0:	f101 0c14 	add.w	ip, r1, #20
 80070e4:	2000      	movs	r0, #0
 80070e6:	f8dc 3000 	ldr.w	r3, [ip]
 80070ea:	b299      	uxth	r1, r3
 80070ec:	fb02 6101 	mla	r1, r2, r1, r6
 80070f0:	0c1e      	lsrs	r6, r3, #16
 80070f2:	0c0b      	lsrs	r3, r1, #16
 80070f4:	fb02 3306 	mla	r3, r2, r6, r3
 80070f8:	b289      	uxth	r1, r1
 80070fa:	3001      	adds	r0, #1
 80070fc:	eb01 4103 	add.w	r1, r1, r3, lsl #16
 8007100:	4285      	cmp	r5, r0
 8007102:	f84c 1b04 	str.w	r1, [ip], #4
 8007106:	ea4f 4613 	mov.w	r6, r3, lsr #16
 800710a:	dcec      	bgt.n	80070e6 <__multadd+0x12>
 800710c:	b30e      	cbz	r6, 8007152 <__multadd+0x7e>
 800710e:	68a3      	ldr	r3, [r4, #8]
 8007110:	42ab      	cmp	r3, r5
 8007112:	dc19      	bgt.n	8007148 <__multadd+0x74>
 8007114:	6861      	ldr	r1, [r4, #4]
 8007116:	4638      	mov	r0, r7
 8007118:	3101      	adds	r1, #1
 800711a:	f7ff ff79 	bl	8007010 <_Balloc>
 800711e:	4680      	mov	r8, r0
 8007120:	b928      	cbnz	r0, 800712e <__multadd+0x5a>
 8007122:	4602      	mov	r2, r0
 8007124:	4b0c      	ldr	r3, [pc, #48]	; (8007158 <__multadd+0x84>)
 8007126:	480d      	ldr	r0, [pc, #52]	; (800715c <__multadd+0x88>)
 8007128:	21b5      	movs	r1, #181	; 0xb5
 800712a:	f001 fadd 	bl	80086e8 <__assert_func>
 800712e:	6922      	ldr	r2, [r4, #16]
 8007130:	3202      	adds	r2, #2
 8007132:	f104 010c 	add.w	r1, r4, #12
 8007136:	0092      	lsls	r2, r2, #2
 8007138:	300c      	adds	r0, #12
 800713a:	f7ff ff5b 	bl	8006ff4 <memcpy>
 800713e:	4621      	mov	r1, r4
 8007140:	4638      	mov	r0, r7
 8007142:	f7ff ffa5 	bl	8007090 <_Bfree>
 8007146:	4644      	mov	r4, r8
 8007148:	eb04 0385 	add.w	r3, r4, r5, lsl #2
 800714c:	3501      	adds	r5, #1
 800714e:	615e      	str	r6, [r3, #20]
 8007150:	6125      	str	r5, [r4, #16]
 8007152:	4620      	mov	r0, r4
 8007154:	e8bd 81f0 	ldmia.w	sp!, {r4, r5, r6, r7, r8, pc}
 8007158:	080093f8 	.word	0x080093f8
 800715c:	08009484 	.word	0x08009484

08007160 <__s2b>:
 8007160:	e92d 43f8 	stmdb	sp!, {r3, r4, r5, r6, r7, r8, r9, lr}
 8007164:	460c      	mov	r4, r1
 8007166:	4615      	mov	r5, r2
 8007168:	461f      	mov	r7, r3
 800716a:	2209      	movs	r2, #9
 800716c:	3308      	adds	r3, #8
 800716e:	4606      	mov	r6, r0
 8007170:	fb93 f3f2 	sdiv	r3, r3, r2
 8007174:	2100      	movs	r1, #0
 8007176:	2201      	movs	r2, #1
 8007178:	429a      	cmp	r2, r3
 800717a:	db09      	blt.n	8007190 <__s2b+0x30>
 800717c:	4630      	mov	r0, r6
 800717e:	f7ff ff47 	bl	8007010 <_Balloc>
 8007182:	b940      	cbnz	r0, 8007196 <__s2b+0x36>
 8007184:	4602      	mov	r2, r0
 8007186:	4b19      	ldr	r3, [pc, #100]	; (80071ec <__s2b+0x8c>)
 8007188:	4819      	ldr	r0, [pc, #100]	; (80071f0 <__s2b+0x90>)
 800718a:	21ce      	movs	r1, #206	; 0xce
 800718c:	f001 faac 	bl	80086e8 <__assert_func>
 8007190:	0052      	lsls	r2, r2, #1
 8007192:	3101      	adds	r1, #1
 8007194:	e7f0      	b.n	8007178 <__s2b+0x18>
 8007196:	9b08      	ldr	r3, [sp, #32]
 8007198:	6143      	str	r3, [r0, #20]
 800719a:	2d09      	cmp	r5, #9
 800719c:	f04f 0301 	mov.w	r3, #1
 80071a0:	6103      	str	r3, [r0, #16]
 80071a2:	dd16      	ble.n	80071d2 <__s2b+0x72>
 80071a4:	f104 0909 	add.w	r9, r4, #9
 80071a8:	46c8      	mov	r8, r9
 80071aa:	442c      	add	r4, r5
 80071ac:	f818 3b01 	ldrb.w	r3, [r8], #1
 80071b0:	4601      	mov	r1, r0
 80071b2:	3b30      	subs	r3, #48	; 0x30
 80071b4:	220a      	movs	r2, #10
 80071b6:	4630      	mov	r0, r6
 80071b8:	f7ff ff8c 	bl	80070d4 <__multadd>
 80071bc:	45a0      	cmp	r8, r4
 80071be:	d1f5      	bne.n	80071ac <__s2b+0x4c>
 80071c0:	f1a5 0408 	sub.w	r4, r5, #8
 80071c4:	444c      	add	r4, r9
 80071c6:	1b2d      	subs	r5, r5, r4
 80071c8:	1963      	adds	r3, r4, r5
 80071ca:	42bb      	cmp	r3, r7
 80071cc:	db04      	blt.n	80071d8 <__s2b+0x78>
 80071ce:	e8bd 83f8 	ldmia.w	sp!, {r3, r4, r5, r6, r7, r8, r9, pc}
 80071d2:	340a      	adds	r4, #10
 80071d4:	2509      	movs	r5, #9
 80071d6:	e7f6      	b.n	80071c6 <__s2b+0x66>
 80071d8:	f814 3b01 	ldrb.w	r3, [r4], #1
 80071dc:	4601      	mov	r1, r0
 80071de:	3b30      	subs	r3, #48	; 0x30
 80071e0:	220a      	movs	r2, #10
 80071e2:	4630      	mov	r0, r6
 80071e4:	f7ff ff76 	bl	80070d4 <__multadd>
 80071e8:	e7ee      	b.n	80071c8 <__s2b+0x68>
 80071ea:	bf00      	nop
 80071ec:	080093f8 	.word	0x080093f8
 80071f0:	08009484 	.word	0x08009484

080071f4 <__hi0bits>:
 80071f4:	0c03      	lsrs	r3, r0, #16
 80071f6:	041b      	lsls	r3, r3, #16
 80071f8:	b9d3      	cbnz	r3, 8007230 <__hi0bits+0x3c>
 80071fa:	0400      	lsls	r0, r0, #16
 80071fc:	2310      	movs	r3, #16
 80071fe:	f010 4f7f 	tst.w	r0, #4278190080	; 0xff000000
 8007202:	bf04      	itt	eq
 8007204:	0200      	lsleq	r0, r0, #8
 8007206:	3308      	addeq	r3, #8
 8007208:	f010 4f70 	tst.w	r0, #4026531840	; 0xf0000000
 800720c:	bf04      	itt	eq
 800720e:	0100      	lsleq	r0, r0, #4
 8007210:	3304      	addeq	r3, #4
 8007212:	f010 4f40 	tst.w	r0, #3221225472	; 0xc0000000
 8007216:	bf04      	itt	eq
 8007218:	0080      	lsleq	r0, r0, #2
 800721a:	3302      	addeq	r3, #2
 800721c:	2800      	cmp	r0, #0
 800721e:	db05      	blt.n	800722c <__hi0bits+0x38>
 8007220:	f010 4f80 	tst.w	r0, #1073741824	; 0x40000000
 8007224:	f103 0301 	add.w	r3, r3, #1
 8007228:	bf08      	it	eq
 800722a:	2320      	moveq	r3, #32
 800722c:	4618      	mov	r0, r3
 800722e:	4770      	bx	lr
 8007230:	2300      	movs	r3, #0
 8007232:	e7e4      	b.n	80071fe <__hi0bits+0xa>

08007234 <__lo0bits>:
 8007234:	6803      	ldr	r3, [r0, #0]
 8007236:	f013 0207 	ands.w	r2, r3, #7
 800723a:	4601      	mov	r1, r0
 800723c:	d00b      	beq.n	8007256 <__lo0bits+0x22>
 800723e:	07da      	lsls	r2, r3, #31
 8007240:	d423      	bmi.n	800728a <__lo0bits+0x56>
 8007242:	0798      	lsls	r0, r3, #30
 8007244:	bf49      	itett	mi
 8007246:	085b      	lsrmi	r3, r3, #1
 8007248:	089b      	lsrpl	r3, r3, #2
 800724a:	2001      	movmi	r0, #1
 800724c:	600b      	strmi	r3, [r1, #0]
 800724e:	bf5c      	itt	pl
 8007250:	600b      	strpl	r3, [r1, #0]
 8007252:	2002      	movpl	r0, #2
 8007254:	4770      	bx	lr
 8007256:	b298      	uxth	r0, r3
 8007258:	b9a8      	cbnz	r0, 8007286 <__lo0bits+0x52>
 800725a:	0c1b      	lsrs	r3, r3, #16
 800725c:	2010      	movs	r0, #16
 800725e:	b2da      	uxtb	r2, r3
 8007260:	b90a      	cbnz	r2, 8007266 <__lo0bits+0x32>
 8007262:	3008      	adds	r0, #8
 8007264:	0a1b      	lsrs	r3, r3, #8
 8007266:	071a      	lsls	r2, r3, #28
 8007268:	bf04      	itt	eq
 800726a:	091b      	lsreq	r3, r3, #4
 800726c:	3004      	addeq	r0, #4
 800726e:	079a      	lsls	r2, r3, #30
 8007270:	bf04      	itt	eq
 8007272:	089b      	lsreq	r3, r3, #2
 8007274:	3002      	addeq	r0, #2
 8007276:	07da      	lsls	r2, r3, #31
 8007278:	d403      	bmi.n	8007282 <__lo0bits+0x4e>
 800727a:	085b      	lsrs	r3, r3, #1
 800727c:	f100 0001 	add.w	r0, r0, #1
 8007280:	d005      	beq.n	800728e <__lo0bits+0x5a>
 8007282:	600b      	str	r3, [r1, #0]
 8007284:	4770      	bx	lr
 8007286:	4610      	mov	r0, r2
 8007288:	e7e9      	b.n	800725e <__lo0bits+0x2a>
 800728a:	2000      	movs	r0, #0
 800728c:	4770      	bx	lr
 800728e:	2020      	movs	r0, #32
 8007290:	4770      	bx	lr
	...

08007294 <__i2b>:
 8007294:	b510      	push	{r4, lr}
 8007296:	460c      	mov	r4, r1
 8007298:	2101      	movs	r1, #1
 800729a:	f7ff feb9 	bl	8007010 <_Balloc>
 800729e:	4602      	mov	r2, r0
 80072a0:	b928      	cbnz	r0, 80072ae <__i2b+0x1a>
 80072a2:	4b05      	ldr	r3, [pc, #20]	; (80072b8 <__i2b+0x24>)
 80072a4:	4805      	ldr	r0, [pc, #20]	; (80072bc <__i2b+0x28>)
 80072a6:	f44f 71a0 	mov.w	r1, #320	; 0x140
 80072aa:	f001 fa1d 	bl	80086e8 <__assert_func>
 80072ae:	2301      	movs	r3, #1
 80072b0:	6144      	str	r4, [r0, #20]
 80072b2:	6103      	str	r3, [r0, #16]
 80072b4:	bd10      	pop	{r4, pc}
 80072b6:	bf00      	nop
 80072b8:	080093f8 	.word	0x080093f8
 80072bc:	08009484 	.word	0x08009484

080072c0 <__multiply>:
 80072c0:	e92d 4ff0 	stmdb	sp!, {r4, r5, r6, r7, r8, r9, sl, fp, lr}
 80072c4:	4691      	mov	r9, r2
 80072c6:	690a      	ldr	r2, [r1, #16]
 80072c8:	f8d9 3010 	ldr.w	r3, [r9, #16]
 80072cc:	429a      	cmp	r2, r3
 80072ce:	bfb8      	it	lt
 80072d0:	460b      	movlt	r3, r1
 80072d2:	460c      	mov	r4, r1
 80072d4:	bfbc      	itt	lt
 80072d6:	464c      	movlt	r4, r9
 80072d8:	4699      	movlt	r9, r3
 80072da:	6927      	ldr	r7, [r4, #16]
 80072dc:	f8d9 a010 	ldr.w	sl, [r9, #16]
 80072e0:	68a3      	ldr	r3, [r4, #8]
 80072e2:	6861      	ldr	r1, [r4, #4]
 80072e4:	eb07 060a 	add.w	r6, r7, sl
 80072e8:	42b3      	cmp	r3, r6
 80072ea:	b085      	sub	sp, #20
 80072ec:	bfb8      	it	lt
 80072ee:	3101      	addlt	r1, #1
 80072f0:	f7ff fe8e 	bl	8007010 <_Balloc>
 80072f4:	b930      	cbnz	r0, 8007304 <__multiply+0x44>
 80072f6:	4602      	mov	r2, r0
 80072f8:	4b44      	ldr	r3, [pc, #272]	; (800740c <__multiply+0x14c>)
 80072fa:	4845      	ldr	r0, [pc, #276]	; (8007410 <__multiply+0x150>)
 80072fc:	f240 115d 	movw	r1, #349	; 0x15d
 8007300:	f001 f9f2 	bl	80086e8 <__assert_func>
 8007304:	f100 0514 	add.w	r5, r0, #20
 8007308:	eb05 0886 	add.w	r8, r5, r6, lsl #2
 800730c:	462b      	mov	r3, r5
 800730e:	2200      	movs	r2, #0
 8007310:	4543      	cmp	r3, r8
 8007312:	d321      	bcc.n	8007358 <__multiply+0x98>
 8007314:	f104 0314 	add.w	r3, r4, #20
 8007318:	eb03 0787 	add.w	r7, r3, r7, lsl #2
 800731c:	f109 0314 	add.w	r3, r9, #20
 8007320:	eb03 028a 	add.w	r2, r3, sl, lsl #2
 8007324:	9202      	str	r2, [sp, #8]
 8007326:	1b3a      	subs	r2, r7, r4
 8007328:	3a15      	subs	r2, #21
 800732a:	f022 0203 	bic.w	r2, r2, #3
 800732e:	3204      	adds	r2, #4
 8007330:	f104 0115 	add.w	r1, r4, #21
 8007334:	428f      	cmp	r7, r1
 8007336:	bf38      	it	cc
 8007338:	2204      	movcc	r2, #4
 800733a:	9201      	str	r2, [sp, #4]
 800733c:	9a02      	ldr	r2, [sp, #8]
 800733e:	9303      	str	r3, [sp, #12]
 8007340:	429a      	cmp	r2, r3
 8007342:	d80c      	bhi.n	800735e <__multiply+0x9e>
 8007344:	2e00      	cmp	r6, #0
 8007346:	dd03      	ble.n	8007350 <__multiply+0x90>
 8007348:	f858 3d04 	ldr.w	r3, [r8, #-4]!
 800734c:	2b00      	cmp	r3, #0
 800734e:	d05a      	beq.n	8007406 <__multiply+0x146>
 8007350:	6106      	str	r6, [r0, #16]
 8007352:	b005      	add	sp, #20
 8007354:	e8bd 8ff0 	ldmia.w	sp!, {r4, r5, r6, r7, r8, r9, sl, fp, pc}
 8007358:	f843 2b04 	str.w	r2, [r3], #4
 800735c:	e7d8      	b.n	8007310 <__multiply+0x50>
 800735e:	f8b3 a000 	ldrh.w	sl, [r3]
 8007362:	f1ba 0f00 	cmp.w	sl, #0
 8007366:	d024      	beq.n	80073b2 <__multiply+0xf2>
 8007368:	f104 0e14 	add.w	lr, r4, #20
 800736c:	46a9      	mov	r9, r5
 800736e:	f04f 0c00 	mov.w	ip, #0
 8007372:	f85e 2b04 	ldr.w	r2, [lr], #4
 8007376:	f8d9 1000 	ldr.w	r1, [r9]
 800737a:	fa1f fb82 	uxth.w	fp, r2
 800737e:	b289      	uxth	r1, r1
 8007380:	fb0a 110b 	mla	r1, sl, fp, r1
 8007384:	ea4f 4b12 	mov.w	fp, r2, lsr #16
 8007388:	f8d9 2000 	ldr.w	r2, [r9]
 800738c:	4461      	add	r1, ip
 800738e:	ea4f 4c12 	mov.w	ip, r2, lsr #16
 8007392:	fb0a c20b 	mla	r2, sl, fp, ip
 8007396:	eb02 4211 	add.w	r2, r2, r1, lsr #16
 800739a:	b289      	uxth	r1, r1
 800739c:	ea41 4102 	orr.w	r1, r1, r2, lsl #16
 80073a0:	4577      	cmp	r7, lr
 80073a2:	f849 1b04 	str.w	r1, [r9], #4
 80073a6:	ea4f 4c12 	mov.w	ip, r2, lsr #16
 80073aa:	d8e2      	bhi.n	8007372 <__multiply+0xb2>
 80073ac:	9a01      	ldr	r2, [sp, #4]
 80073ae:	f845 c002 	str.w	ip, [r5, r2]
 80073b2:	9a03      	ldr	r2, [sp, #12]
 80073b4:	f8b2 9002 	ldrh.w	r9, [r2, #2]
 80073b8:	3304      	adds	r3, #4
 80073ba:	f1b9 0f00 	cmp.w	r9, #0
 80073be:	d020      	beq.n	8007402 <__multiply+0x142>
 80073c0:	6829      	ldr	r1, [r5, #0]
 80073c2:	f104 0c14 	add.w	ip, r4, #20
 80073c6:	46ae      	mov	lr, r5
 80073c8:	f04f 0a00 	mov.w	sl, #0
 80073cc:	f8bc b000 	ldrh.w	fp, [ip]
 80073d0:	f8be 2002 	ldrh.w	r2, [lr, #2]
 80073d4:	fb09 220b 	mla	r2, r9, fp, r2
 80073d8:	4492      	add	sl, r2
 80073da:	b289      	uxth	r1, r1
 80073dc:	ea41 410a 	orr.w	r1, r1, sl, lsl #16
 80073e0:	f84e 1b04 	str.w	r1, [lr], #4
 80073e4:	f85c 2b04 	ldr.w	r2, [ip], #4
 80073e8:	f8be 1000 	ldrh.w	r1, [lr]
 80073ec:	0c12      	lsrs	r2, r2, #16
 80073ee:	fb09 1102 	mla	r1, r9, r2, r1
 80073f2:	eb01 411a 	add.w	r1, r1, sl, lsr #16
 80073f6:	4567      	cmp	r7, ip
 80073f8:	ea4f 4a11 	mov.w	sl, r1, lsr #16
 80073fc:	d8e6      	bhi.n	80073cc <__multiply+0x10c>
 80073fe:	9a01      	ldr	r2, [sp, #4]
 8007400:	50a9      	str	r1, [r5, r2]
 8007402:	3504      	adds	r5, #4
 8007404:	e79a      	b.n	800733c <__multiply+0x7c>
 8007406:	3e01      	subs	r6, #1
 8007408:	e79c      	b.n	8007344 <__multiply+0x84>
 800740a:	bf00      	nop
 800740c:	080093f8 	.word	0x080093f8
 8007410:	08009484 	.word	0x08009484

08007414 <__pow5mult>:
 8007414:	e92d 43f8 	stmdb	sp!, {r3, r4, r5, r6, r7, r8, r9, lr}
 8007418:	4615      	mov	r5, r2
 800741a:	f012 0203 	ands.w	r2, r2, #3
 800741e:	4606      	mov	r6, r0
 8007420:	460f      	mov	r7, r1
 8007422:	d007      	beq.n	8007434 <__pow5mult+0x20>
 8007424:	4c25      	ldr	r4, [pc, #148]	; (80074bc <__pow5mult+0xa8>)
 8007426:	3a01      	subs	r2, #1
 8007428:	2300      	movs	r3, #0
 800742a:	f854 2022 	ldr.w	r2, [r4, r2, lsl #2]
 800742e:	f7ff fe51 	bl	80070d4 <__multadd>
 8007432:	4607      	mov	r7, r0
 8007434:	10ad      	asrs	r5, r5, #2
 8007436:	d03d      	beq.n	80074b4 <__pow5mult+0xa0>
 8007438:	6a74      	ldr	r4, [r6, #36]	; 0x24
 800743a:	b97c      	cbnz	r4, 800745c <__pow5mult+0x48>
 800743c:	2010      	movs	r0, #16
 800743e:	f7ff fdbf 	bl	8006fc0 <malloc>
 8007442:	4602      	mov	r2, r0
 8007444:	6270      	str	r0, [r6, #36]	; 0x24
 8007446:	b928      	cbnz	r0, 8007454 <__pow5mult+0x40>
 8007448:	4b1d      	ldr	r3, [pc, #116]	; (80074c0 <__pow5mult+0xac>)
 800744a:	481e      	ldr	r0, [pc, #120]	; (80074c4 <__pow5mult+0xb0>)
 800744c:	f44f 71d7 	mov.w	r1, #430	; 0x1ae
 8007450:	f001 f94a 	bl	80086e8 <__assert_func>
 8007454:	e9c0 4401 	strd	r4, r4, [r0, #4]
 8007458:	6004      	str	r4, [r0, #0]
 800745a:	60c4      	str	r4, [r0, #12]
 800745c:	f8d6 8024 	ldr.w	r8, [r6, #36]	; 0x24
 8007460:	f8d8 4008 	ldr.w	r4, [r8, #8]
 8007464:	b94c      	cbnz	r4, 800747a <__pow5mult+0x66>
 8007466:	f240 2171 	movw	r1, #625	; 0x271
 800746a:	4630      	mov	r0, r6
 800746c:	f7ff ff12 	bl	8007294 <__i2b>
 8007470:	2300      	movs	r3, #0
 8007472:	f8c8 0008 	str.w	r0, [r8, #8]
 8007476:	4604      	mov	r4, r0
 8007478:	6003      	str	r3, [r0, #0]
 800747a:	f04f 0900 	mov.w	r9, #0
 800747e:	07eb      	lsls	r3, r5, #31
 8007480:	d50a      	bpl.n	8007498 <__pow5mult+0x84>
 8007482:	4639      	mov	r1, r7
 8007484:	4622      	mov	r2, r4
 8007486:	4630      	mov	r0, r6
 8007488:	f7ff ff1a 	bl	80072c0 <__multiply>
 800748c:	4639      	mov	r1, r7
 800748e:	4680      	mov	r8, r0
 8007490:	4630      	mov	r0, r6
 8007492:	f7ff fdfd 	bl	8007090 <_Bfree>
 8007496:	4647      	mov	r7, r8
 8007498:	106d      	asrs	r5, r5, #1
 800749a:	d00b      	beq.n	80074b4 <__pow5mult+0xa0>
 800749c:	6820      	ldr	r0, [r4, #0]
 800749e:	b938      	cbnz	r0, 80074b0 <__pow5mult+0x9c>
 80074a0:	4622      	mov	r2, r4
 80074a2:	4621      	mov	r1, r4
 80074a4:	4630      	mov	r0, r6
 80074a6:	f7ff ff0b 	bl	80072c0 <__multiply>
 80074aa:	6020      	str	r0, [r4, #0]
 80074ac:	f8c0 9000 	str.w	r9, [r0]
 80074b0:	4604      	mov	r4, r0
 80074b2:	e7e4      	b.n	800747e <__pow5mult+0x6a>
 80074b4:	4638      	mov	r0, r7
 80074b6:	e8bd 83f8 	ldmia.w	sp!, {r3, r4, r5, r6, r7, r8, r9, pc}
 80074ba:	bf00      	nop
 80074bc:	080095d0 	.word	0x080095d0
 80074c0:	08009386 	.word	0x08009386
 80074c4:	08009484 	.word	0x08009484

080074c8 <__lshift>:
 80074c8:	e92d 47f0 	stmdb	sp!, {r4, r5, r6, r7, r8, r9, sl, lr}
 80074cc:	460c      	mov	r4, r1
 80074ce:	6849      	ldr	r1, [r1, #4]
 80074d0:	6923      	ldr	r3, [r4, #16]
 80074d2:	eb03 1862 	add.w	r8, r3, r2, asr #5
 80074d6:	68a3      	ldr	r3, [r4, #8]
 80074d8:	4607      	mov	r7, r0
 80074da:	4691      	mov	r9, r2
 80074dc:	ea4f 1a62 	mov.w	sl, r2, asr #5
 80074e0:	f108 0601 	add.w	r6, r8, #1
 80074e4:	42b3      	cmp	r3, r6
 80074e6:	db0b      	blt.n	8007500 <__lshift+0x38>
 80074e8:	4638      	mov	r0, r7
 80074ea:	f7ff fd91 	bl	8007010 <_Balloc>
 80074ee:	4605      	mov	r5, r0
 80074f0:	b948      	cbnz	r0, 8007506 <__lshift+0x3e>
 80074f2:	4602      	mov	r2, r0
 80074f4:	4b2a      	ldr	r3, [pc, #168]	; (80075a0 <__lshift+0xd8>)
 80074f6:	482b      	ldr	r0, [pc, #172]	; (80075a4 <__lshift+0xdc>)
 80074f8:	f240 11d9 	movw	r1, #473	; 0x1d9
 80074fc:	f001 f8f4 	bl	80086e8 <__assert_func>
 8007500:	3101      	adds	r1, #1
 8007502:	005b      	lsls	r3, r3, #1
 8007504:	e7ee      	b.n	80074e4 <__lshift+0x1c>
 8007506:	2300      	movs	r3, #0
 8007508:	f100 0114 	add.w	r1, r0, #20
 800750c:	f100 0210 	add.w	r2, r0, #16
 8007510:	4618      	mov	r0, r3
 8007512:	4553      	cmp	r3, sl
 8007514:	db37      	blt.n	8007586 <__lshift+0xbe>
 8007516:	6920      	ldr	r0, [r4, #16]
 8007518:	ea2a 7aea 	bic.w	sl, sl, sl, asr #31
 800751c:	f104 0314 	add.w	r3, r4, #20
 8007520:	f019 091f 	ands.w	r9, r9, #31
 8007524:	eb01 018a 	add.w	r1, r1, sl, lsl #2
 8007528:	eb03 0080 	add.w	r0, r3, r0, lsl #2
 800752c:	d02f      	beq.n	800758e <__lshift+0xc6>
 800752e:	f1c9 0e20 	rsb	lr, r9, #32
 8007532:	468a      	mov	sl, r1
 8007534:	f04f 0c00 	mov.w	ip, #0
 8007538:	681a      	ldr	r2, [r3, #0]
 800753a:	fa02 f209 	lsl.w	r2, r2, r9
 800753e:	ea42 020c 	orr.w	r2, r2, ip
 8007542:	f84a 2b04 	str.w	r2, [sl], #4
 8007546:	f853 2b04 	ldr.w	r2, [r3], #4
 800754a:	4298      	cmp	r0, r3
 800754c:	fa22 fc0e 	lsr.w	ip, r2, lr
 8007550:	d8f2      	bhi.n	8007538 <__lshift+0x70>
 8007552:	1b03      	subs	r3, r0, r4
 8007554:	3b15      	subs	r3, #21
 8007556:	f023 0303 	bic.w	r3, r3, #3
 800755a:	3304      	adds	r3, #4
 800755c:	f104 0215 	add.w	r2, r4, #21
 8007560:	4290      	cmp	r0, r2
 8007562:	bf38      	it	cc
 8007564:	2304      	movcc	r3, #4
 8007566:	f841 c003 	str.w	ip, [r1, r3]
 800756a:	f1bc 0f00 	cmp.w	ip, #0
 800756e:	d001      	beq.n	8007574 <__lshift+0xac>
 8007570:	f108 0602 	add.w	r6, r8, #2
 8007574:	3e01      	subs	r6, #1
 8007576:	4638      	mov	r0, r7
 8007578:	612e      	str	r6, [r5, #16]
 800757a:	4621      	mov	r1, r4
 800757c:	f7ff fd88 	bl	8007090 <_Bfree>
 8007580:	4628      	mov	r0, r5
 8007582:	e8bd 87f0 	ldmia.w	sp!, {r4, r5, r6, r7, r8, r9, sl, pc}
 8007586:	f842 0f04 	str.w	r0, [r2, #4]!
 800758a:	3301      	adds	r3, #1
 800758c:	e7c1      	b.n	8007512 <__lshift+0x4a>
 800758e:	3904      	subs	r1, #4
 8007590:	f853 2b04 	ldr.w	r2, [r3], #4
 8007594:	f841 2f04 	str.w	r2, [r1, #4]!
 8007598:	4298      	cmp	r0, r3
 800759a:	d8f9      	bhi.n	8007590 <__lshift+0xc8>
 800759c:	e7ea      	b.n	8007574 <__lshift+0xac>
 800759e:	bf00      	nop
 80075a0:	080093f8 	.word	0x080093f8
 80075a4:	08009484 	.word	0x08009484

080075a8 <__mcmp>:
 80075a8:	b530      	push	{r4, r5, lr}
 80075aa:	6902      	ldr	r2, [r0, #16]
 80075ac:	690c      	ldr	r4, [r1, #16]
 80075ae:	1b12      	subs	r2, r2, r4
 80075b0:	d10e      	bne.n	80075d0 <__mcmp+0x28>
 80075b2:	f100 0314 	add.w	r3, r0, #20
 80075b6:	3114      	adds	r1, #20
 80075b8:	eb03 0084 	add.w	r0, r3, r4, lsl #2
 80075bc:	eb01 0184 	add.w	r1, r1, r4, lsl #2
 80075c0:	f850 5d04 	ldr.w	r5, [r0, #-4]!
 80075c4:	f851 4d04 	ldr.w	r4, [r1, #-4]!
 80075c8:	42a5      	cmp	r5, r4
 80075ca:	d003      	beq.n	80075d4 <__mcmp+0x2c>
 80075cc:	d305      	bcc.n	80075da <__mcmp+0x32>
 80075ce:	2201      	movs	r2, #1
 80075d0:	4610      	mov	r0, r2
 80075d2:	bd30      	pop	{r4, r5, pc}
 80075d4:	4283      	cmp	r3, r0
 80075d6:	d3f3      	bcc.n	80075c0 <__mcmp+0x18>
 80075d8:	e7fa      	b.n	80075d0 <__mcmp+0x28>
 80075da:	f04f 32ff 	mov.w	r2, #4294967295
 80075de:	e7f7      	b.n	80075d0 <__mcmp+0x28>

080075e0 <__mdiff>:
 80075e0:	e92d 4ff8 	stmdb	sp!, {r3, r4, r5, r6, r7, r8, r9, sl, fp, lr}
 80075e4:	460c      	mov	r4, r1
 80075e6:	4606      	mov	r6, r0
 80075e8:	4611      	mov	r1, r2
 80075ea:	4620      	mov	r0, r4
 80075ec:	4690      	mov	r8, r2
 80075ee:	f7ff ffdb 	bl	80075a8 <__mcmp>
 80075f2:	1e05      	subs	r5, r0, #0
 80075f4:	d110      	bne.n	8007618 <__mdiff+0x38>
 80075f6:	4629      	mov	r1, r5
 80075f8:	4630      	mov	r0, r6
 80075fa:	f7ff fd09 	bl	8007010 <_Balloc>
 80075fe:	b930      	cbnz	r0, 800760e <__mdiff+0x2e>
 8007600:	4b3a      	ldr	r3, [pc, #232]	; (80076ec <__mdiff+0x10c>)
 8007602:	4602      	mov	r2, r0
 8007604:	f240 2132 	movw	r1, #562	; 0x232
 8007608:	4839      	ldr	r0, [pc, #228]	; (80076f0 <__mdiff+0x110>)
 800760a:	f001 f86d 	bl	80086e8 <__assert_func>
 800760e:	2301      	movs	r3, #1
 8007610:	e9c0 3504 	strd	r3, r5, [r0, #16]
 8007614:	e8bd 8ff8 	ldmia.w	sp!, {r3, r4, r5, r6, r7, r8, r9, sl, fp, pc}
 8007618:	bfa4      	itt	ge
 800761a:	4643      	movge	r3, r8
 800761c:	46a0      	movge	r8, r4
 800761e:	4630      	mov	r0, r6
 8007620:	f8d8 1004 	ldr.w	r1, [r8, #4]
 8007624:	bfa6      	itte	ge
 8007626:	461c      	movge	r4, r3
 8007628:	2500      	movge	r5, #0
 800762a:	2501      	movlt	r5, #1
 800762c:	f7ff fcf0 	bl	8007010 <_Balloc>
 8007630:	b920      	cbnz	r0, 800763c <__mdiff+0x5c>
 8007632:	4b2e      	ldr	r3, [pc, #184]	; (80076ec <__mdiff+0x10c>)
 8007634:	4602      	mov	r2, r0
 8007636:	f44f 7110 	mov.w	r1, #576	; 0x240
 800763a:	e7e5      	b.n	8007608 <__mdiff+0x28>
 800763c:	f8d8 7010 	ldr.w	r7, [r8, #16]
 8007640:	6926      	ldr	r6, [r4, #16]
 8007642:	60c5      	str	r5, [r0, #12]
 8007644:	f104 0914 	add.w	r9, r4, #20
 8007648:	f108 0514 	add.w	r5, r8, #20
 800764c:	f100 0e14 	add.w	lr, r0, #20
 8007650:	eb05 0c87 	add.w	ip, r5, r7, lsl #2
 8007654:	eb09 0686 	add.w	r6, r9, r6, lsl #2
 8007658:	f108 0210 	add.w	r2, r8, #16
 800765c:	46f2      	mov	sl, lr
 800765e:	2100      	movs	r1, #0
 8007660:	f859 3b04 	ldr.w	r3, [r9], #4
 8007664:	f852 bf04 	ldr.w	fp, [r2, #4]!
 8007668:	fa1f f883 	uxth.w	r8, r3
 800766c:	fa11 f18b 	uxtah	r1, r1, fp
 8007670:	0c1b      	lsrs	r3, r3, #16
 8007672:	eba1 0808 	sub.w	r8, r1, r8
 8007676:	ebc3 431b 	rsb	r3, r3, fp, lsr #16
 800767a:	eb03 4328 	add.w	r3, r3, r8, asr #16
 800767e:	fa1f f888 	uxth.w	r8, r8
 8007682:	1419      	asrs	r1, r3, #16
 8007684:	454e      	cmp	r6, r9
 8007686:	ea48 4303 	orr.w	r3, r8, r3, lsl #16
 800768a:	f84a 3b04 	str.w	r3, [sl], #4
 800768e:	d8e7      	bhi.n	8007660 <__mdiff+0x80>
 8007690:	1b33      	subs	r3, r6, r4
 8007692:	3b15      	subs	r3, #21
 8007694:	f023 0303 	bic.w	r3, r3, #3
 8007698:	3304      	adds	r3, #4
 800769a:	3415      	adds	r4, #21
 800769c:	42a6      	cmp	r6, r4
 800769e:	bf38      	it	cc
 80076a0:	2304      	movcc	r3, #4
 80076a2:	441d      	add	r5, r3
 80076a4:	4473      	add	r3, lr
 80076a6:	469e      	mov	lr, r3
 80076a8:	462e      	mov	r6, r5
 80076aa:	4566      	cmp	r6, ip
 80076ac:	d30e      	bcc.n	80076cc <__mdiff+0xec>
 80076ae:	f10c 0203 	add.w	r2, ip, #3
 80076b2:	1b52      	subs	r2, r2, r5
 80076b4:	f022 0203 	bic.w	r2, r2, #3
 80076b8:	3d03      	subs	r5, #3
 80076ba:	45ac      	cmp	ip, r5
 80076bc:	bf38      	it	cc
 80076be:	2200      	movcc	r2, #0
 80076c0:	441a      	add	r2, r3
 80076c2:	f852 3d04 	ldr.w	r3, [r2, #-4]!
 80076c6:	b17b      	cbz	r3, 80076e8 <__mdiff+0x108>
 80076c8:	6107      	str	r7, [r0, #16]
 80076ca:	e7a3      	b.n	8007614 <__mdiff+0x34>
 80076cc:	f856 8b04 	ldr.w	r8, [r6], #4
 80076d0:	fa11 f288 	uxtah	r2, r1, r8
 80076d4:	1414      	asrs	r4, r2, #16
 80076d6:	eb04 4418 	add.w	r4, r4, r8, lsr #16
 80076da:	b292      	uxth	r2, r2
 80076dc:	ea42 4204 	orr.w	r2, r2, r4, lsl #16
 80076e0:	f84e 2b04 	str.w	r2, [lr], #4
 80076e4:	1421      	asrs	r1, r4, #16
 80076e6:	e7e0      	b.n	80076aa <__mdiff+0xca>
 80076e8:	3f01      	subs	r7, #1
 80076ea:	e7ea      	b.n	80076c2 <__mdiff+0xe2>
 80076ec:	080093f8 	.word	0x080093f8
 80076f0:	08009484 	.word	0x08009484

080076f4 <__ulp>:
 80076f4:	b082      	sub	sp, #8
 80076f6:	ed8d 0b00 	vstr	d0, [sp]
 80076fa:	9b01      	ldr	r3, [sp, #4]
 80076fc:	4912      	ldr	r1, [pc, #72]	; (8007748 <__ulp+0x54>)
 80076fe:	4019      	ands	r1, r3
 8007700:	f1a1 7150 	sub.w	r1, r1, #54525952	; 0x3400000
 8007704:	2900      	cmp	r1, #0
 8007706:	dd05      	ble.n	8007714 <__ulp+0x20>
 8007708:	2200      	movs	r2, #0
 800770a:	460b      	mov	r3, r1
 800770c:	ec43 2b10 	vmov	d0, r2, r3
 8007710:	b002      	add	sp, #8
 8007712:	4770      	bx	lr
 8007714:	4249      	negs	r1, r1
 8007716:	f1b1 7fa0 	cmp.w	r1, #20971520	; 0x1400000
 800771a:	ea4f 5021 	mov.w	r0, r1, asr #20
 800771e:	f04f 0200 	mov.w	r2, #0
 8007722:	f04f 0300 	mov.w	r3, #0
 8007726:	da04      	bge.n	8007732 <__ulp+0x3e>
 8007728:	f44f 2100 	mov.w	r1, #524288	; 0x80000
 800772c:	fa41 f300 	asr.w	r3, r1, r0
 8007730:	e7ec      	b.n	800770c <__ulp+0x18>
 8007732:	f1a0 0114 	sub.w	r1, r0, #20
 8007736:	291e      	cmp	r1, #30
 8007738:	bfda      	itte	le
 800773a:	f04f 4000 	movle.w	r0, #2147483648	; 0x80000000
 800773e:	fa20 f101 	lsrle.w	r1, r0, r1
 8007742:	2101      	movgt	r1, #1
 8007744:	460a      	mov	r2, r1
 8007746:	e7e1      	b.n	800770c <__ulp+0x18>
 8007748:	7ff00000 	.word	0x7ff00000

0800774c <__b2d>:
 800774c:	b5f8      	push	{r3, r4, r5, r6, r7, lr}
 800774e:	6905      	ldr	r5, [r0, #16]
 8007750:	f100 0714 	add.w	r7, r0, #20
 8007754:	eb07 0585 	add.w	r5, r7, r5, lsl #2
 8007758:	1f2e      	subs	r6, r5, #4
 800775a:	f855 4c04 	ldr.w	r4, [r5, #-4]
 800775e:	4620      	mov	r0, r4
 8007760:	f7ff fd48 	bl	80071f4 <__hi0bits>
 8007764:	f1c0 0320 	rsb	r3, r0, #32
 8007768:	280a      	cmp	r0, #10
 800776a:	f8df c07c 	ldr.w	ip, [pc, #124]	; 80077e8 <__b2d+0x9c>
 800776e:	600b      	str	r3, [r1, #0]
 8007770:	dc14      	bgt.n	800779c <__b2d+0x50>
 8007772:	f1c0 0e0b 	rsb	lr, r0, #11
 8007776:	fa24 f10e 	lsr.w	r1, r4, lr
 800777a:	42b7      	cmp	r7, r6
 800777c:	ea41 030c 	orr.w	r3, r1, ip
 8007780:	bf34      	ite	cc
 8007782:	f855 1c08 	ldrcc.w	r1, [r5, #-8]
 8007786:	2100      	movcs	r1, #0
 8007788:	3015      	adds	r0, #21
 800778a:	fa04 f000 	lsl.w	r0, r4, r0
 800778e:	fa21 f10e 	lsr.w	r1, r1, lr
 8007792:	ea40 0201 	orr.w	r2, r0, r1
 8007796:	ec43 2b10 	vmov	d0, r2, r3
 800779a:	bdf8      	pop	{r3, r4, r5, r6, r7, pc}
 800779c:	42b7      	cmp	r7, r6
 800779e:	bf3a      	itte	cc
 80077a0:	f855 1c08 	ldrcc.w	r1, [r5, #-8]
 80077a4:	f1a5 0608 	subcc.w	r6, r5, #8
 80077a8:	2100      	movcs	r1, #0
 80077aa:	380b      	subs	r0, #11
 80077ac:	d017      	beq.n	80077de <__b2d+0x92>
 80077ae:	f1c0 0c20 	rsb	ip, r0, #32
 80077b2:	fa04 f500 	lsl.w	r5, r4, r0
 80077b6:	42be      	cmp	r6, r7
 80077b8:	fa21 f40c 	lsr.w	r4, r1, ip
 80077bc:	ea45 0504 	orr.w	r5, r5, r4
 80077c0:	bf8c      	ite	hi
 80077c2:	f856 4c04 	ldrhi.w	r4, [r6, #-4]
 80077c6:	2400      	movls	r4, #0
 80077c8:	f045 537f 	orr.w	r3, r5, #1069547520	; 0x3fc00000
 80077cc:	fa01 f000 	lsl.w	r0, r1, r0
 80077d0:	fa24 f40c 	lsr.w	r4, r4, ip
 80077d4:	f443 1340 	orr.w	r3, r3, #3145728	; 0x300000
 80077d8:	ea40 0204 	orr.w	r2, r0, r4
 80077dc:	e7db      	b.n	8007796 <__b2d+0x4a>
 80077de:	ea44 030c 	orr.w	r3, r4, ip
 80077e2:	460a      	mov	r2, r1
 80077e4:	e7d7      	b.n	8007796 <__b2d+0x4a>
 80077e6:	bf00      	nop
 80077e8:	3ff00000 	.word	0x3ff00000

080077ec <__d2b>:
 80077ec:	e92d 43f7 	stmdb	sp!, {r0, r1, r2, r4, r5, r6, r7, r8, r9, lr}
 80077f0:	4689      	mov	r9, r1
 80077f2:	2101      	movs	r1, #1
 80077f4:	ec57 6b10 	vmov	r6, r7, d0
 80077f8:	4690      	mov	r8, r2
 80077fa:	f7ff fc09 	bl	8007010 <_Balloc>
 80077fe:	4604      	mov	r4, r0
 8007800:	b930      	cbnz	r0, 8007810 <__d2b+0x24>
 8007802:	4602      	mov	r2, r0
 8007804:	4b25      	ldr	r3, [pc, #148]	; (800789c <__d2b+0xb0>)
 8007806:	4826      	ldr	r0, [pc, #152]	; (80078a0 <__d2b+0xb4>)
 8007808:	f240 310a 	movw	r1, #778	; 0x30a
 800780c:	f000 ff6c 	bl	80086e8 <__assert_func>
 8007810:	f3c7 550a 	ubfx	r5, r7, #20, #11
 8007814:	f3c7 0313 	ubfx	r3, r7, #0, #20
 8007818:	bb35      	cbnz	r5, 8007868 <__d2b+0x7c>
 800781a:	2e00      	cmp	r6, #0
 800781c:	9301      	str	r3, [sp, #4]
 800781e:	d028      	beq.n	8007872 <__d2b+0x86>
 8007820:	4668      	mov	r0, sp
 8007822:	9600      	str	r6, [sp, #0]
 8007824:	f7ff fd06 	bl	8007234 <__lo0bits>
 8007828:	9900      	ldr	r1, [sp, #0]
 800782a:	b300      	cbz	r0, 800786e <__d2b+0x82>
 800782c:	9a01      	ldr	r2, [sp, #4]
 800782e:	f1c0 0320 	rsb	r3, r0, #32
 8007832:	fa02 f303 	lsl.w	r3, r2, r3
 8007836:	430b      	orrs	r3, r1
 8007838:	40c2      	lsrs	r2, r0
 800783a:	6163      	str	r3, [r4, #20]
 800783c:	9201      	str	r2, [sp, #4]
 800783e:	9b01      	ldr	r3, [sp, #4]
 8007840:	61a3      	str	r3, [r4, #24]
 8007842:	2b00      	cmp	r3, #0
 8007844:	bf14      	ite	ne
 8007846:	2202      	movne	r2, #2
 8007848:	2201      	moveq	r2, #1
 800784a:	6122      	str	r2, [r4, #16]
 800784c:	b1d5      	cbz	r5, 8007884 <__d2b+0x98>
 800784e:	f2a5 4533 	subw	r5, r5, #1075	; 0x433
 8007852:	4405      	add	r5, r0
 8007854:	f8c9 5000 	str.w	r5, [r9]
 8007858:	f1c0 0035 	rsb	r0, r0, #53	; 0x35
 800785c:	f8c8 0000 	str.w	r0, [r8]
 8007860:	4620      	mov	r0, r4
 8007862:	b003      	add	sp, #12
 8007864:	e8bd 83f0 	ldmia.w	sp!, {r4, r5, r6, r7, r8, r9, pc}
 8007868:	f443 1380 	orr.w	r3, r3, #1048576	; 0x100000
 800786c:	e7d5      	b.n	800781a <__d2b+0x2e>
 800786e:	6161      	str	r1, [r4, #20]
 8007870:	e7e5      	b.n	800783e <__d2b+0x52>
 8007872:	a801      	add	r0, sp, #4
 8007874:	f7ff fcde 	bl	8007234 <__lo0bits>
 8007878:	9b01      	ldr	r3, [sp, #4]
 800787a:	6163      	str	r3, [r4, #20]
 800787c:	2201      	movs	r2, #1
 800787e:	6122      	str	r2, [r4, #16]
 8007880:	3020      	adds	r0, #32
 8007882:	e7e3      	b.n	800784c <__d2b+0x60>
 8007884:	eb04 0382 	add.w	r3, r4, r2, lsl #2
 8007888:	f2a0 4032 	subw	r0, r0, #1074	; 0x432
 800788c:	f8c9 0000 	str.w	r0, [r9]
 8007890:	6918      	ldr	r0, [r3, #16]
 8007892:	f7ff fcaf 	bl	80071f4 <__hi0bits>
 8007896:	ebc0 1042 	rsb	r0, r0, r2, lsl #5
 800789a:	e7df      	b.n	800785c <__d2b+0x70>
 800789c:	080093f8 	.word	0x080093f8
 80078a0:	08009484 	.word	0x08009484

080078a4 <__ratio>:
 80078a4:	e92d 4ff7 	stmdb	sp!, {r0, r1, r2, r4, r5, r6, r7, r8, r9, sl, fp, lr}
 80078a8:	4688      	mov	r8, r1
 80078aa:	4669      	mov	r1, sp
 80078ac:	4681      	mov	r9, r0
 80078ae:	f7ff ff4d 	bl	800774c <__b2d>
 80078b2:	a901      	add	r1, sp, #4
 80078b4:	4640      	mov	r0, r8
 80078b6:	ec55 4b10 	vmov	r4, r5, d0
 80078ba:	f7ff ff47 	bl	800774c <__b2d>
 80078be:	f8d9 3010 	ldr.w	r3, [r9, #16]
 80078c2:	f8d8 2010 	ldr.w	r2, [r8, #16]
 80078c6:	eba3 0c02 	sub.w	ip, r3, r2
 80078ca:	e9dd 3200 	ldrd	r3, r2, [sp]
 80078ce:	1a9b      	subs	r3, r3, r2
 80078d0:	eb03 134c 	add.w	r3, r3, ip, lsl #5
 80078d4:	ec51 0b10 	vmov	r0, r1, d0
 80078d8:	2b00      	cmp	r3, #0
 80078da:	bfd6      	itet	le
 80078dc:	460a      	movle	r2, r1
 80078de:	462a      	movgt	r2, r5
 80078e0:	ebc3 3303 	rsble	r3, r3, r3, lsl #12
 80078e4:	468b      	mov	fp, r1
 80078e6:	462f      	mov	r7, r5
 80078e8:	bfd4      	ite	le
 80078ea:	eb02 5b03 	addle.w	fp, r2, r3, lsl #20
 80078ee:	eb02 5703 	addgt.w	r7, r2, r3, lsl #20
 80078f2:	4620      	mov	r0, r4
 80078f4:	ee10 2a10 	vmov	r2, s0
 80078f8:	465b      	mov	r3, fp
 80078fa:	4639      	mov	r1, r7
 80078fc:	f7f8 ffc6 	bl	800088c <__aeabi_ddiv>
 8007900:	ec41 0b10 	vmov	d0, r0, r1
 8007904:	b003      	add	sp, #12
 8007906:	e8bd 8ff0 	ldmia.w	sp!, {r4, r5, r6, r7, r8, r9, sl, fp, pc}

0800790a <__copybits>:
 800790a:	3901      	subs	r1, #1
 800790c:	b570      	push	{r4, r5, r6, lr}
 800790e:	1149      	asrs	r1, r1, #5
 8007910:	6914      	ldr	r4, [r2, #16]
 8007912:	3101      	adds	r1, #1
 8007914:	f102 0314 	add.w	r3, r2, #20
 8007918:	eb00 0181 	add.w	r1, r0, r1, lsl #2
 800791c:	eb03 0484 	add.w	r4, r3, r4, lsl #2
 8007920:	1f05      	subs	r5, r0, #4
 8007922:	42a3      	cmp	r3, r4
 8007924:	d30c      	bcc.n	8007940 <__copybits+0x36>
 8007926:	1aa3      	subs	r3, r4, r2
 8007928:	3b11      	subs	r3, #17
 800792a:	f023 0303 	bic.w	r3, r3, #3
 800792e:	3211      	adds	r2, #17
 8007930:	42a2      	cmp	r2, r4
 8007932:	bf88      	it	hi
 8007934:	2300      	movhi	r3, #0
 8007936:	4418      	add	r0, r3
 8007938:	2300      	movs	r3, #0
 800793a:	4288      	cmp	r0, r1
 800793c:	d305      	bcc.n	800794a <__copybits+0x40>
 800793e:	bd70      	pop	{r4, r5, r6, pc}
 8007940:	f853 6b04 	ldr.w	r6, [r3], #4
 8007944:	f845 6f04 	str.w	r6, [r5, #4]!
 8007948:	e7eb      	b.n	8007922 <__copybits+0x18>
 800794a:	f840 3b04 	str.w	r3, [r0], #4
 800794e:	e7f4      	b.n	800793a <__copybits+0x30>

08007950 <__any_on>:
 8007950:	f100 0214 	add.w	r2, r0, #20
 8007954:	6900      	ldr	r0, [r0, #16]
 8007956:	114b      	asrs	r3, r1, #5
 8007958:	4298      	cmp	r0, r3
 800795a:	b510      	push	{r4, lr}
 800795c:	db11      	blt.n	8007982 <__any_on+0x32>
 800795e:	dd0a      	ble.n	8007976 <__any_on+0x26>
 8007960:	f011 011f 	ands.w	r1, r1, #31
 8007964:	d007      	beq.n	8007976 <__any_on+0x26>
 8007966:	f852 4023 	ldr.w	r4, [r2, r3, lsl #2]
 800796a:	fa24 f001 	lsr.w	r0, r4, r1
 800796e:	fa00 f101 	lsl.w	r1, r0, r1
 8007972:	428c      	cmp	r4, r1
 8007974:	d10b      	bne.n	800798e <__any_on+0x3e>
 8007976:	eb02 0383 	add.w	r3, r2, r3, lsl #2
 800797a:	4293      	cmp	r3, r2
 800797c:	d803      	bhi.n	8007986 <__any_on+0x36>
 800797e:	2000      	movs	r0, #0
 8007980:	bd10      	pop	{r4, pc}
 8007982:	4603      	mov	r3, r0
 8007984:	e7f7      	b.n	8007976 <__any_on+0x26>
 8007986:	f853 1d04 	ldr.w	r1, [r3, #-4]!
 800798a:	2900      	cmp	r1, #0
 800798c:	d0f5      	beq.n	800797a <__any_on+0x2a>
 800798e:	2001      	movs	r0, #1
 8007990:	e7f6      	b.n	8007980 <__any_on+0x30>

08007992 <_calloc_r>:
 8007992:	b537      	push	{r0, r1, r2, r4, r5, lr}
 8007994:	fba1 2402 	umull	r2, r4, r1, r2
 8007998:	b94c      	cbnz	r4, 80079ae <_calloc_r+0x1c>
 800799a:	4611      	mov	r1, r2
 800799c:	9201      	str	r2, [sp, #4]
 800799e:	f000 f87b 	bl	8007a98 <_malloc_r>
 80079a2:	9a01      	ldr	r2, [sp, #4]
 80079a4:	4605      	mov	r5, r0
 80079a6:	b930      	cbnz	r0, 80079b6 <_calloc_r+0x24>
 80079a8:	4628      	mov	r0, r5
 80079aa:	b003      	add	sp, #12
 80079ac:	bd30      	pop	{r4, r5, pc}
 80079ae:	220c      	movs	r2, #12
 80079b0:	6002      	str	r2, [r0, #0]
 80079b2:	2500      	movs	r5, #0
 80079b4:	e7f8      	b.n	80079a8 <_calloc_r+0x16>
 80079b6:	4621      	mov	r1, r4
 80079b8:	f7fc faf8 	bl	8003fac <memset>
 80079bc:	e7f4      	b.n	80079a8 <_calloc_r+0x16>
	...

080079c0 <_free_r>:
 80079c0:	b537      	push	{r0, r1, r2, r4, r5, lr}
 80079c2:	2900      	cmp	r1, #0
 80079c4:	d044      	beq.n	8007a50 <_free_r+0x90>
 80079c6:	f851 3c04 	ldr.w	r3, [r1, #-4]
 80079ca:	9001      	str	r0, [sp, #4]
 80079cc:	2b00      	cmp	r3, #0
 80079ce:	f1a1 0404 	sub.w	r4, r1, #4
 80079d2:	bfb8      	it	lt
 80079d4:	18e4      	addlt	r4, r4, r3
 80079d6:	f001 f88b 	bl	8008af0 <__malloc_lock>
 80079da:	4a1e      	ldr	r2, [pc, #120]	; (8007a54 <_free_r+0x94>)
 80079dc:	9801      	ldr	r0, [sp, #4]
 80079de:	6813      	ldr	r3, [r2, #0]
 80079e0:	b933      	cbnz	r3, 80079f0 <_free_r+0x30>
 80079e2:	6063      	str	r3, [r4, #4]
 80079e4:	6014      	str	r4, [r2, #0]
 80079e6:	b003      	add	sp, #12
 80079e8:	e8bd 4030 	ldmia.w	sp!, {r4, r5, lr}
 80079ec:	f001 b886 	b.w	8008afc <__malloc_unlock>
 80079f0:	42a3      	cmp	r3, r4
 80079f2:	d908      	bls.n	8007a06 <_free_r+0x46>
 80079f4:	6825      	ldr	r5, [r4, #0]
 80079f6:	1961      	adds	r1, r4, r5
 80079f8:	428b      	cmp	r3, r1
 80079fa:	bf01      	itttt	eq
 80079fc:	6819      	ldreq	r1, [r3, #0]
 80079fe:	685b      	ldreq	r3, [r3, #4]
 8007a00:	1949      	addeq	r1, r1, r5
 8007a02:	6021      	streq	r1, [r4, #0]
 8007a04:	e7ed      	b.n	80079e2 <_free_r+0x22>
 8007a06:	461a      	mov	r2, r3
 8007a08:	685b      	ldr	r3, [r3, #4]
 8007a0a:	b10b      	cbz	r3, 8007a10 <_free_r+0x50>
 8007a0c:	42a3      	cmp	r3, r4
 8007a0e:	d9fa      	bls.n	8007a06 <_free_r+0x46>
 8007a10:	6811      	ldr	r1, [r2, #0]
 8007a12:	1855      	adds	r5, r2, r1
 8007a14:	42a5      	cmp	r5, r4
 8007a16:	d10b      	bne.n	8007a30 <_free_r+0x70>
 8007a18:	6824      	ldr	r4, [r4, #0]
 8007a1a:	4421      	add	r1, r4
 8007a1c:	1854      	adds	r4, r2, r1
 8007a1e:	42a3      	cmp	r3, r4
 8007a20:	6011      	str	r1, [r2, #0]
 8007a22:	d1e0      	bne.n	80079e6 <_free_r+0x26>
 8007a24:	681c      	ldr	r4, [r3, #0]
 8007a26:	685b      	ldr	r3, [r3, #4]
 8007a28:	6053      	str	r3, [r2, #4]
 8007a2a:	4421      	add	r1, r4
 8007a2c:	6011      	str	r1, [r2, #0]
 8007a2e:	e7da      	b.n	80079e6 <_free_r+0x26>
 8007a30:	d902      	bls.n	8007a38 <_free_r+0x78>
 8007a32:	230c      	movs	r3, #12
 8007a34:	6003      	str	r3, [r0, #0]
 8007a36:	e7d6      	b.n	80079e6 <_free_r+0x26>
 8007a38:	6825      	ldr	r5, [r4, #0]
 8007a3a:	1961      	adds	r1, r4, r5
 8007a3c:	428b      	cmp	r3, r1
 8007a3e:	bf04      	itt	eq
 8007a40:	6819      	ldreq	r1, [r3, #0]
 8007a42:	685b      	ldreq	r3, [r3, #4]
 8007a44:	6063      	str	r3, [r4, #4]
 8007a46:	bf04      	itt	eq
 8007a48:	1949      	addeq	r1, r1, r5
 8007a4a:	6021      	streq	r1, [r4, #0]
 8007a4c:	6054      	str	r4, [r2, #4]
 8007a4e:	e7ca      	b.n	80079e6 <_free_r+0x26>
 8007a50:	b003      	add	sp, #12
 8007a52:	bd30      	pop	{r4, r5, pc}
 8007a54:	20000954 	.word	0x20000954

08007a58 <sbrk_aligned>:
 8007a58:	b570      	push	{r4, r5, r6, lr}
 8007a5a:	4e0e      	ldr	r6, [pc, #56]	; (8007a94 <sbrk_aligned+0x3c>)
 8007a5c:	460c      	mov	r4, r1
 8007a5e:	6831      	ldr	r1, [r6, #0]
 8007a60:	4605      	mov	r5, r0
 8007a62:	b911      	cbnz	r1, 8007a6a <sbrk_aligned+0x12>
 8007a64:	f000 fd28 	bl	80084b8 <_sbrk_r>
 8007a68:	6030      	str	r0, [r6, #0]
 8007a6a:	4621      	mov	r1, r4
 8007a6c:	4628      	mov	r0, r5
 8007a6e:	f000 fd23 	bl	80084b8 <_sbrk_r>
 8007a72:	1c43      	adds	r3, r0, #1
 8007a74:	d00a      	beq.n	8007a8c <sbrk_aligned+0x34>
 8007a76:	1cc4      	adds	r4, r0, #3
 8007a78:	f024 0403 	bic.w	r4, r4, #3
 8007a7c:	42a0      	cmp	r0, r4
 8007a7e:	d007      	beq.n	8007a90 <sbrk_aligned+0x38>
 8007a80:	1a21      	subs	r1, r4, r0
 8007a82:	4628      	mov	r0, r5
 8007a84:	f000 fd18 	bl	80084b8 <_sbrk_r>
 8007a88:	3001      	adds	r0, #1
 8007a8a:	d101      	bne.n	8007a90 <sbrk_aligned+0x38>
 8007a8c:	f04f 34ff 	mov.w	r4, #4294967295
 8007a90:	4620      	mov	r0, r4
 8007a92:	bd70      	pop	{r4, r5, r6, pc}
 8007a94:	20000958 	.word	0x20000958

08007a98 <_malloc_r>:
 8007a98:	e92d 41f0 	stmdb	sp!, {r4, r5, r6, r7, r8, lr}
 8007a9c:	1ccd      	adds	r5, r1, #3
 8007a9e:	f025 0503 	bic.w	r5, r5, #3
 8007aa2:	3508      	adds	r5, #8
 8007aa4:	2d0c      	cmp	r5, #12
 8007aa6:	bf38      	it	cc
 8007aa8:	250c      	movcc	r5, #12
 8007aaa:	2d00      	cmp	r5, #0
 8007aac:	4607      	mov	r7, r0
 8007aae:	db01      	blt.n	8007ab4 <_malloc_r+0x1c>
 8007ab0:	42a9      	cmp	r1, r5
 8007ab2:	d905      	bls.n	8007ac0 <_malloc_r+0x28>
 8007ab4:	230c      	movs	r3, #12
 8007ab6:	603b      	str	r3, [r7, #0]
 8007ab8:	2600      	movs	r6, #0
 8007aba:	4630      	mov	r0, r6
 8007abc:	e8bd 81f0 	ldmia.w	sp!, {r4, r5, r6, r7, r8, pc}
 8007ac0:	4e2e      	ldr	r6, [pc, #184]	; (8007b7c <_malloc_r+0xe4>)
 8007ac2:	f001 f815 	bl	8008af0 <__malloc_lock>
 8007ac6:	6833      	ldr	r3, [r6, #0]
 8007ac8:	461c      	mov	r4, r3
 8007aca:	bb34      	cbnz	r4, 8007b1a <_malloc_r+0x82>
 8007acc:	4629      	mov	r1, r5
 8007ace:	4638      	mov	r0, r7
 8007ad0:	f7ff ffc2 	bl	8007a58 <sbrk_aligned>
 8007ad4:	1c43      	adds	r3, r0, #1
 8007ad6:	4604      	mov	r4, r0
 8007ad8:	d14d      	bne.n	8007b76 <_malloc_r+0xde>
 8007ada:	6834      	ldr	r4, [r6, #0]
 8007adc:	4626      	mov	r6, r4
 8007ade:	2e00      	cmp	r6, #0
 8007ae0:	d140      	bne.n	8007b64 <_malloc_r+0xcc>
 8007ae2:	6823      	ldr	r3, [r4, #0]
 8007ae4:	4631      	mov	r1, r6
 8007ae6:	4638      	mov	r0, r7
 8007ae8:	eb04 0803 	add.w	r8, r4, r3
 8007aec:	f000 fce4 	bl	80084b8 <_sbrk_r>
 8007af0:	4580      	cmp	r8, r0
 8007af2:	d13a      	bne.n	8007b6a <_malloc_r+0xd2>
 8007af4:	6821      	ldr	r1, [r4, #0]
 8007af6:	3503      	adds	r5, #3
 8007af8:	1a6d      	subs	r5, r5, r1
 8007afa:	f025 0503 	bic.w	r5, r5, #3
 8007afe:	3508      	adds	r5, #8
 8007b00:	2d0c      	cmp	r5, #12
 8007b02:	bf38      	it	cc
 8007b04:	250c      	movcc	r5, #12
 8007b06:	4629      	mov	r1, r5
 8007b08:	4638      	mov	r0, r7
 8007b0a:	f7ff ffa5 	bl	8007a58 <sbrk_aligned>
 8007b0e:	3001      	adds	r0, #1
 8007b10:	d02b      	beq.n	8007b6a <_malloc_r+0xd2>
 8007b12:	6823      	ldr	r3, [r4, #0]
 8007b14:	442b      	add	r3, r5
 8007b16:	6023      	str	r3, [r4, #0]
 8007b18:	e00e      	b.n	8007b38 <_malloc_r+0xa0>
 8007b1a:	6822      	ldr	r2, [r4, #0]
 8007b1c:	1b52      	subs	r2, r2, r5
 8007b1e:	d41e      	bmi.n	8007b5e <_malloc_r+0xc6>
 8007b20:	2a0b      	cmp	r2, #11
 8007b22:	d916      	bls.n	8007b52 <_malloc_r+0xba>
 8007b24:	1961      	adds	r1, r4, r5
 8007b26:	42a3      	cmp	r3, r4
 8007b28:	6025      	str	r5, [r4, #0]
 8007b2a:	bf18      	it	ne
 8007b2c:	6059      	strne	r1, [r3, #4]
 8007b2e:	6863      	ldr	r3, [r4, #4]
 8007b30:	bf08      	it	eq
 8007b32:	6031      	streq	r1, [r6, #0]
 8007b34:	5162      	str	r2, [r4, r5]
 8007b36:	604b      	str	r3, [r1, #4]
 8007b38:	4638      	mov	r0, r7
 8007b3a:	f104 060b 	add.w	r6, r4, #11
 8007b3e:	f000 ffdd 	bl	8008afc <__malloc_unlock>
 8007b42:	f026 0607 	bic.w	r6, r6, #7
 8007b46:	1d23      	adds	r3, r4, #4
 8007b48:	1af2      	subs	r2, r6, r3
 8007b4a:	d0b6      	beq.n	8007aba <_malloc_r+0x22>
 8007b4c:	1b9b      	subs	r3, r3, r6
 8007b4e:	50a3      	str	r3, [r4, r2]
 8007b50:	e7b3      	b.n	8007aba <_malloc_r+0x22>
 8007b52:	6862      	ldr	r2, [r4, #4]
 8007b54:	42a3      	cmp	r3, r4
 8007b56:	bf0c      	ite	eq
 8007b58:	6032      	streq	r2, [r6, #0]
 8007b5a:	605a      	strne	r2, [r3, #4]
 8007b5c:	e7ec      	b.n	8007b38 <_malloc_r+0xa0>
 8007b5e:	4623      	mov	r3, r4
 8007b60:	6864      	ldr	r4, [r4, #4]
 8007b62:	e7b2      	b.n	8007aca <_malloc_r+0x32>
 8007b64:	4634      	mov	r4, r6
 8007b66:	6876      	ldr	r6, [r6, #4]
 8007b68:	e7b9      	b.n	8007ade <_malloc_r+0x46>
 8007b6a:	230c      	movs	r3, #12
 8007b6c:	603b      	str	r3, [r7, #0]
 8007b6e:	4638      	mov	r0, r7
 8007b70:	f000 ffc4 	bl	8008afc <__malloc_unlock>
 8007b74:	e7a1      	b.n	8007aba <_malloc_r+0x22>
 8007b76:	6025      	str	r5, [r4, #0]
 8007b78:	e7de      	b.n	8007b38 <_malloc_r+0xa0>
 8007b7a:	bf00      	nop
 8007b7c:	20000954 	.word	0x20000954

08007b80 <__ssputs_r>:
 8007b80:	e92d 47f0 	stmdb	sp!, {r4, r5, r6, r7, r8, r9, sl, lr}
 8007b84:	688e      	ldr	r6, [r1, #8]
 8007b86:	429e      	cmp	r6, r3
 8007b88:	4682      	mov	sl, r0
 8007b8a:	460c      	mov	r4, r1
 8007b8c:	4690      	mov	r8, r2
 8007b8e:	461f      	mov	r7, r3
 8007b90:	d838      	bhi.n	8007c04 <__ssputs_r+0x84>
 8007b92:	898a      	ldrh	r2, [r1, #12]
 8007b94:	f412 6f90 	tst.w	r2, #1152	; 0x480
 8007b98:	d032      	beq.n	8007c00 <__ssputs_r+0x80>
 8007b9a:	6825      	ldr	r5, [r4, #0]
 8007b9c:	6909      	ldr	r1, [r1, #16]
 8007b9e:	eba5 0901 	sub.w	r9, r5, r1
 8007ba2:	6965      	ldr	r5, [r4, #20]
 8007ba4:	eb05 0545 	add.w	r5, r5, r5, lsl #1
 8007ba8:	eb05 75d5 	add.w	r5, r5, r5, lsr #31
 8007bac:	3301      	adds	r3, #1
 8007bae:	444b      	add	r3, r9
 8007bb0:	106d      	asrs	r5, r5, #1
 8007bb2:	429d      	cmp	r5, r3
 8007bb4:	bf38      	it	cc
 8007bb6:	461d      	movcc	r5, r3
 8007bb8:	0553      	lsls	r3, r2, #21
 8007bba:	d531      	bpl.n	8007c20 <__ssputs_r+0xa0>
 8007bbc:	4629      	mov	r1, r5
 8007bbe:	f7ff ff6b 	bl	8007a98 <_malloc_r>
 8007bc2:	4606      	mov	r6, r0
 8007bc4:	b950      	cbnz	r0, 8007bdc <__ssputs_r+0x5c>
 8007bc6:	230c      	movs	r3, #12
 8007bc8:	f8ca 3000 	str.w	r3, [sl]
 8007bcc:	89a3      	ldrh	r3, [r4, #12]
 8007bce:	f043 0340 	orr.w	r3, r3, #64	; 0x40
 8007bd2:	81a3      	strh	r3, [r4, #12]
 8007bd4:	f04f 30ff 	mov.w	r0, #4294967295
 8007bd8:	e8bd 87f0 	ldmia.w	sp!, {r4, r5, r6, r7, r8, r9, sl, pc}
 8007bdc:	6921      	ldr	r1, [r4, #16]
 8007bde:	464a      	mov	r2, r9
 8007be0:	f7ff fa08 	bl	8006ff4 <memcpy>
 8007be4:	89a3      	ldrh	r3, [r4, #12]
 8007be6:	f423 6390 	bic.w	r3, r3, #1152	; 0x480
 8007bea:	f043 0380 	orr.w	r3, r3, #128	; 0x80
 8007bee:	81a3      	strh	r3, [r4, #12]
 8007bf0:	6126      	str	r6, [r4, #16]
 8007bf2:	6165      	str	r5, [r4, #20]
 8007bf4:	444e      	add	r6, r9
 8007bf6:	eba5 0509 	sub.w	r5, r5, r9
 8007bfa:	6026      	str	r6, [r4, #0]
 8007bfc:	60a5      	str	r5, [r4, #8]
 8007bfe:	463e      	mov	r6, r7
 8007c00:	42be      	cmp	r6, r7
 8007c02:	d900      	bls.n	8007c06 <__ssputs_r+0x86>
 8007c04:	463e      	mov	r6, r7
 8007c06:	6820      	ldr	r0, [r4, #0]
 8007c08:	4632      	mov	r2, r6
 8007c0a:	4641      	mov	r1, r8
 8007c0c:	f000 ff56 	bl	8008abc <memmove>
 8007c10:	68a3      	ldr	r3, [r4, #8]
 8007c12:	1b9b      	subs	r3, r3, r6
 8007c14:	60a3      	str	r3, [r4, #8]
 8007c16:	6823      	ldr	r3, [r4, #0]
 8007c18:	4433      	add	r3, r6
 8007c1a:	6023      	str	r3, [r4, #0]
 8007c1c:	2000      	movs	r0, #0
 8007c1e:	e7db      	b.n	8007bd8 <__ssputs_r+0x58>
 8007c20:	462a      	mov	r2, r5
 8007c22:	f000 ff71 	bl	8008b08 <_realloc_r>
 8007c26:	4606      	mov	r6, r0
 8007c28:	2800      	cmp	r0, #0
 8007c2a:	d1e1      	bne.n	8007bf0 <__ssputs_r+0x70>
 8007c2c:	6921      	ldr	r1, [r4, #16]
 8007c2e:	4650      	mov	r0, sl
 8007c30:	f7ff fec6 	bl	80079c0 <_free_r>
 8007c34:	e7c7      	b.n	8007bc6 <__ssputs_r+0x46>
	...

08007c38 <_svfiprintf_r>:
 8007c38:	e92d 4ff0 	stmdb	sp!, {r4, r5, r6, r7, r8, r9, sl, fp, lr}
 8007c3c:	4698      	mov	r8, r3
 8007c3e:	898b      	ldrh	r3, [r1, #12]
 8007c40:	061b      	lsls	r3, r3, #24
 8007c42:	b09d      	sub	sp, #116	; 0x74
 8007c44:	4607      	mov	r7, r0
 8007c46:	460d      	mov	r5, r1
 8007c48:	4614      	mov	r4, r2
 8007c4a:	d50e      	bpl.n	8007c6a <_svfiprintf_r+0x32>
 8007c4c:	690b      	ldr	r3, [r1, #16]
 8007c4e:	b963      	cbnz	r3, 8007c6a <_svfiprintf_r+0x32>
 8007c50:	2140      	movs	r1, #64	; 0x40
 8007c52:	f7ff ff21 	bl	8007a98 <_malloc_r>
 8007c56:	6028      	str	r0, [r5, #0]
 8007c58:	6128      	str	r0, [r5, #16]
 8007c5a:	b920      	cbnz	r0, 8007c66 <_svfiprintf_r+0x2e>
 8007c5c:	230c      	movs	r3, #12
 8007c5e:	603b      	str	r3, [r7, #0]
 8007c60:	f04f 30ff 	mov.w	r0, #4294967295
 8007c64:	e0d1      	b.n	8007e0a <_svfiprintf_r+0x1d2>
 8007c66:	2340      	movs	r3, #64	; 0x40
 8007c68:	616b      	str	r3, [r5, #20]
 8007c6a:	2300      	movs	r3, #0
 8007c6c:	9309      	str	r3, [sp, #36]	; 0x24
 8007c6e:	2320      	movs	r3, #32
 8007c70:	f88d 3029 	strb.w	r3, [sp, #41]	; 0x29
 8007c74:	f8cd 800c 	str.w	r8, [sp, #12]
 8007c78:	2330      	movs	r3, #48	; 0x30
 8007c7a:	f8df 81a8 	ldr.w	r8, [pc, #424]	; 8007e24 <_svfiprintf_r+0x1ec>
 8007c7e:	f88d 302a 	strb.w	r3, [sp, #42]	; 0x2a
 8007c82:	f04f 0901 	mov.w	r9, #1
 8007c86:	4623      	mov	r3, r4
 8007c88:	469a      	mov	sl, r3
 8007c8a:	f813 2b01 	ldrb.w	r2, [r3], #1
 8007c8e:	b10a      	cbz	r2, 8007c94 <_svfiprintf_r+0x5c>
 8007c90:	2a25      	cmp	r2, #37	; 0x25
 8007c92:	d1f9      	bne.n	8007c88 <_svfiprintf_r+0x50>
 8007c94:	ebba 0b04 	subs.w	fp, sl, r4
 8007c98:	d00b      	beq.n	8007cb2 <_svfiprintf_r+0x7a>
 8007c9a:	465b      	mov	r3, fp
 8007c9c:	4622      	mov	r2, r4
 8007c9e:	4629      	mov	r1, r5
 8007ca0:	4638      	mov	r0, r7
 8007ca2:	f7ff ff6d 	bl	8007b80 <__ssputs_r>
 8007ca6:	3001      	adds	r0, #1
 8007ca8:	f000 80aa 	beq.w	8007e00 <_svfiprintf_r+0x1c8>
 8007cac:	9a09      	ldr	r2, [sp, #36]	; 0x24
 8007cae:	445a      	add	r2, fp
 8007cb0:	9209      	str	r2, [sp, #36]	; 0x24
 8007cb2:	f89a 3000 	ldrb.w	r3, [sl]
 8007cb6:	2b00      	cmp	r3, #0
 8007cb8:	f000 80a2 	beq.w	8007e00 <_svfiprintf_r+0x1c8>
 8007cbc:	2300      	movs	r3, #0
 8007cbe:	f04f 32ff 	mov.w	r2, #4294967295
 8007cc2:	e9cd 2305 	strd	r2, r3, [sp, #20]
 8007cc6:	f10a 0a01 	add.w	sl, sl, #1
 8007cca:	9304      	str	r3, [sp, #16]
 8007ccc:	9307      	str	r3, [sp, #28]
 8007cce:	f88d 3053 	strb.w	r3, [sp, #83]	; 0x53
 8007cd2:	931a      	str	r3, [sp, #104]	; 0x68
 8007cd4:	4654      	mov	r4, sl
 8007cd6:	2205      	movs	r2, #5
 8007cd8:	f814 1b01 	ldrb.w	r1, [r4], #1
 8007cdc:	4851      	ldr	r0, [pc, #324]	; (8007e24 <_svfiprintf_r+0x1ec>)
 8007cde:	f7f8 fa9f 	bl	8000220 <memchr>
 8007ce2:	9a04      	ldr	r2, [sp, #16]
 8007ce4:	b9d8      	cbnz	r0, 8007d1e <_svfiprintf_r+0xe6>
 8007ce6:	06d0      	lsls	r0, r2, #27
 8007ce8:	bf44      	itt	mi
 8007cea:	2320      	movmi	r3, #32
 8007cec:	f88d 3053 	strbmi.w	r3, [sp, #83]	; 0x53
 8007cf0:	0711      	lsls	r1, r2, #28
 8007cf2:	bf44      	itt	mi
 8007cf4:	232b      	movmi	r3, #43	; 0x2b
 8007cf6:	f88d 3053 	strbmi.w	r3, [sp, #83]	; 0x53
 8007cfa:	f89a 3000 	ldrb.w	r3, [sl]
 8007cfe:	2b2a      	cmp	r3, #42	; 0x2a
 8007d00:	d015      	beq.n	8007d2e <_svfiprintf_r+0xf6>
 8007d02:	9a07      	ldr	r2, [sp, #28]
 8007d04:	4654      	mov	r4, sl
 8007d06:	2000      	movs	r0, #0
 8007d08:	f04f 0c0a 	mov.w	ip, #10
 8007d0c:	4621      	mov	r1, r4
 8007d0e:	f811 3b01 	ldrb.w	r3, [r1], #1
 8007d12:	3b30      	subs	r3, #48	; 0x30
 8007d14:	2b09      	cmp	r3, #9
 8007d16:	d94e      	bls.n	8007db6 <_svfiprintf_r+0x17e>
 8007d18:	b1b0      	cbz	r0, 8007d48 <_svfiprintf_r+0x110>
 8007d1a:	9207      	str	r2, [sp, #28]
 8007d1c:	e014      	b.n	8007d48 <_svfiprintf_r+0x110>
 8007d1e:	eba0 0308 	sub.w	r3, r0, r8
 8007d22:	fa09 f303 	lsl.w	r3, r9, r3
 8007d26:	4313      	orrs	r3, r2
 8007d28:	9304      	str	r3, [sp, #16]
 8007d2a:	46a2      	mov	sl, r4
 8007d2c:	e7d2      	b.n	8007cd4 <_svfiprintf_r+0x9c>
 8007d2e:	9b03      	ldr	r3, [sp, #12]
 8007d30:	1d19      	adds	r1, r3, #4
 8007d32:	681b      	ldr	r3, [r3, #0]
 8007d34:	9103      	str	r1, [sp, #12]
 8007d36:	2b00      	cmp	r3, #0
 8007d38:	bfbb      	ittet	lt
 8007d3a:	425b      	neglt	r3, r3
 8007d3c:	f042 0202 	orrlt.w	r2, r2, #2
 8007d40:	9307      	strge	r3, [sp, #28]
 8007d42:	9307      	strlt	r3, [sp, #28]
 8007d44:	bfb8      	it	lt
 8007d46:	9204      	strlt	r2, [sp, #16]
 8007d48:	7823      	ldrb	r3, [r4, #0]
 8007d4a:	2b2e      	cmp	r3, #46	; 0x2e
 8007d4c:	d10c      	bne.n	8007d68 <_svfiprintf_r+0x130>
 8007d4e:	7863      	ldrb	r3, [r4, #1]
 8007d50:	2b2a      	cmp	r3, #42	; 0x2a
 8007d52:	d135      	bne.n	8007dc0 <_svfiprintf_r+0x188>
 8007d54:	9b03      	ldr	r3, [sp, #12]
 8007d56:	1d1a      	adds	r2, r3, #4
 8007d58:	681b      	ldr	r3, [r3, #0]
 8007d5a:	9203      	str	r2, [sp, #12]
 8007d5c:	2b00      	cmp	r3, #0
 8007d5e:	bfb8      	it	lt
 8007d60:	f04f 33ff 	movlt.w	r3, #4294967295
 8007d64:	3402      	adds	r4, #2
 8007d66:	9305      	str	r3, [sp, #20]
 8007d68:	f8df a0c8 	ldr.w	sl, [pc, #200]	; 8007e34 <_svfiprintf_r+0x1fc>
 8007d6c:	7821      	ldrb	r1, [r4, #0]
 8007d6e:	2203      	movs	r2, #3
 8007d70:	4650      	mov	r0, sl
 8007d72:	f7f8 fa55 	bl	8000220 <memchr>
 8007d76:	b140      	cbz	r0, 8007d8a <_svfiprintf_r+0x152>
 8007d78:	2340      	movs	r3, #64	; 0x40
 8007d7a:	eba0 000a 	sub.w	r0, r0, sl
 8007d7e:	fa03 f000 	lsl.w	r0, r3, r0
 8007d82:	9b04      	ldr	r3, [sp, #16]
 8007d84:	4303      	orrs	r3, r0
 8007d86:	3401      	adds	r4, #1
 8007d88:	9304      	str	r3, [sp, #16]
 8007d8a:	f814 1b01 	ldrb.w	r1, [r4], #1
 8007d8e:	4826      	ldr	r0, [pc, #152]	; (8007e28 <_svfiprintf_r+0x1f0>)
 8007d90:	f88d 1028 	strb.w	r1, [sp, #40]	; 0x28
 8007d94:	2206      	movs	r2, #6
 8007d96:	f7f8 fa43 	bl	8000220 <memchr>
 8007d9a:	2800      	cmp	r0, #0
 8007d9c:	d038      	beq.n	8007e10 <_svfiprintf_r+0x1d8>
 8007d9e:	4b23      	ldr	r3, [pc, #140]	; (8007e2c <_svfiprintf_r+0x1f4>)
 8007da0:	bb1b      	cbnz	r3, 8007dea <_svfiprintf_r+0x1b2>
 8007da2:	9b03      	ldr	r3, [sp, #12]
 8007da4:	3307      	adds	r3, #7
 8007da6:	f023 0307 	bic.w	r3, r3, #7
 8007daa:	3308      	adds	r3, #8
 8007dac:	9303      	str	r3, [sp, #12]
 8007dae:	9b09      	ldr	r3, [sp, #36]	; 0x24
 8007db0:	4433      	add	r3, r6
 8007db2:	9309      	str	r3, [sp, #36]	; 0x24
 8007db4:	e767      	b.n	8007c86 <_svfiprintf_r+0x4e>
 8007db6:	fb0c 3202 	mla	r2, ip, r2, r3
 8007dba:	460c      	mov	r4, r1
 8007dbc:	2001      	movs	r0, #1
 8007dbe:	e7a5      	b.n	8007d0c <_svfiprintf_r+0xd4>
 8007dc0:	2300      	movs	r3, #0
 8007dc2:	3401      	adds	r4, #1
 8007dc4:	9305      	str	r3, [sp, #20]
 8007dc6:	4619      	mov	r1, r3
 8007dc8:	f04f 0c0a 	mov.w	ip, #10
 8007dcc:	4620      	mov	r0, r4
 8007dce:	f810 2b01 	ldrb.w	r2, [r0], #1
 8007dd2:	3a30      	subs	r2, #48	; 0x30
 8007dd4:	2a09      	cmp	r2, #9
 8007dd6:	d903      	bls.n	8007de0 <_svfiprintf_r+0x1a8>
 8007dd8:	2b00      	cmp	r3, #0
 8007dda:	d0c5      	beq.n	8007d68 <_svfiprintf_r+0x130>
 8007ddc:	9105      	str	r1, [sp, #20]
 8007dde:	e7c3      	b.n	8007d68 <_svfiprintf_r+0x130>
 8007de0:	fb0c 2101 	mla	r1, ip, r1, r2
 8007de4:	4604      	mov	r4, r0
 8007de6:	2301      	movs	r3, #1
 8007de8:	e7f0      	b.n	8007dcc <_svfiprintf_r+0x194>
 8007dea:	ab03      	add	r3, sp, #12
 8007dec:	9300      	str	r3, [sp, #0]
 8007dee:	462a      	mov	r2, r5
 8007df0:	4b0f      	ldr	r3, [pc, #60]	; (8007e30 <_svfiprintf_r+0x1f8>)
 8007df2:	a904      	add	r1, sp, #16
 8007df4:	4638      	mov	r0, r7
 8007df6:	f7fc f981 	bl	80040fc <_printf_float>
 8007dfa:	1c42      	adds	r2, r0, #1
 8007dfc:	4606      	mov	r6, r0
 8007dfe:	d1d6      	bne.n	8007dae <_svfiprintf_r+0x176>
 8007e00:	89ab      	ldrh	r3, [r5, #12]
 8007e02:	065b      	lsls	r3, r3, #25
 8007e04:	f53f af2c 	bmi.w	8007c60 <_svfiprintf_r+0x28>
 8007e08:	9809      	ldr	r0, [sp, #36]	; 0x24
 8007e0a:	b01d      	add	sp, #116	; 0x74
 8007e0c:	e8bd 8ff0 	ldmia.w	sp!, {r4, r5, r6, r7, r8, r9, sl, fp, pc}
 8007e10:	ab03      	add	r3, sp, #12
 8007e12:	9300      	str	r3, [sp, #0]
 8007e14:	462a      	mov	r2, r5
 8007e16:	4b06      	ldr	r3, [pc, #24]	; (8007e30 <_svfiprintf_r+0x1f8>)
 8007e18:	a904      	add	r1, sp, #16
 8007e1a:	4638      	mov	r0, r7
 8007e1c:	f7fc fc12 	bl	8004644 <_printf_i>
 8007e20:	e7eb      	b.n	8007dfa <_svfiprintf_r+0x1c2>
 8007e22:	bf00      	nop
 8007e24:	080095dc 	.word	0x080095dc
 8007e28:	080095e6 	.word	0x080095e6
 8007e2c:	080040fd 	.word	0x080040fd
 8007e30:	08007b81 	.word	0x08007b81
 8007e34:	080095e2 	.word	0x080095e2

08007e38 <_sungetc_r>:
 8007e38:	b538      	push	{r3, r4, r5, lr}
 8007e3a:	1c4b      	adds	r3, r1, #1
 8007e3c:	4614      	mov	r4, r2
 8007e3e:	d103      	bne.n	8007e48 <_sungetc_r+0x10>
 8007e40:	f04f 35ff 	mov.w	r5, #4294967295
 8007e44:	4628      	mov	r0, r5
 8007e46:	bd38      	pop	{r3, r4, r5, pc}
 8007e48:	8993      	ldrh	r3, [r2, #12]
 8007e4a:	f023 0320 	bic.w	r3, r3, #32
 8007e4e:	8193      	strh	r3, [r2, #12]
 8007e50:	6b63      	ldr	r3, [r4, #52]	; 0x34
 8007e52:	6852      	ldr	r2, [r2, #4]
 8007e54:	b2cd      	uxtb	r5, r1
 8007e56:	b18b      	cbz	r3, 8007e7c <_sungetc_r+0x44>
 8007e58:	6ba3      	ldr	r3, [r4, #56]	; 0x38
 8007e5a:	4293      	cmp	r3, r2
 8007e5c:	dd08      	ble.n	8007e70 <_sungetc_r+0x38>
 8007e5e:	6823      	ldr	r3, [r4, #0]
 8007e60:	1e5a      	subs	r2, r3, #1
 8007e62:	6022      	str	r2, [r4, #0]
 8007e64:	f803 5c01 	strb.w	r5, [r3, #-1]
 8007e68:	6863      	ldr	r3, [r4, #4]
 8007e6a:	3301      	adds	r3, #1
 8007e6c:	6063      	str	r3, [r4, #4]
 8007e6e:	e7e9      	b.n	8007e44 <_sungetc_r+0xc>
 8007e70:	4621      	mov	r1, r4
 8007e72:	f000 fbf1 	bl	8008658 <__submore>
 8007e76:	2800      	cmp	r0, #0
 8007e78:	d0f1      	beq.n	8007e5e <_sungetc_r+0x26>
 8007e7a:	e7e1      	b.n	8007e40 <_sungetc_r+0x8>
 8007e7c:	6921      	ldr	r1, [r4, #16]
 8007e7e:	6823      	ldr	r3, [r4, #0]
 8007e80:	b151      	cbz	r1, 8007e98 <_sungetc_r+0x60>
 8007e82:	4299      	cmp	r1, r3
 8007e84:	d208      	bcs.n	8007e98 <_sungetc_r+0x60>
 8007e86:	f813 1c01 	ldrb.w	r1, [r3, #-1]
 8007e8a:	42a9      	cmp	r1, r5
 8007e8c:	d104      	bne.n	8007e98 <_sungetc_r+0x60>
 8007e8e:	3b01      	subs	r3, #1
 8007e90:	3201      	adds	r2, #1
 8007e92:	6023      	str	r3, [r4, #0]
 8007e94:	6062      	str	r2, [r4, #4]
 8007e96:	e7d5      	b.n	8007e44 <_sungetc_r+0xc>
 8007e98:	e9c4 320f 	strd	r3, r2, [r4, #60]	; 0x3c
 8007e9c:	f104 0344 	add.w	r3, r4, #68	; 0x44
 8007ea0:	6363      	str	r3, [r4, #52]	; 0x34
 8007ea2:	2303      	movs	r3, #3
 8007ea4:	63a3      	str	r3, [r4, #56]	; 0x38
 8007ea6:	4623      	mov	r3, r4
 8007ea8:	f803 5f46 	strb.w	r5, [r3, #70]!
 8007eac:	6023      	str	r3, [r4, #0]
 8007eae:	2301      	movs	r3, #1
 8007eb0:	e7dc      	b.n	8007e6c <_sungetc_r+0x34>

08007eb2 <__ssrefill_r>:
 8007eb2:	b510      	push	{r4, lr}
 8007eb4:	460c      	mov	r4, r1
 8007eb6:	6b49      	ldr	r1, [r1, #52]	; 0x34
 8007eb8:	b169      	cbz	r1, 8007ed6 <__ssrefill_r+0x24>
 8007eba:	f104 0344 	add.w	r3, r4, #68	; 0x44
 8007ebe:	4299      	cmp	r1, r3
 8007ec0:	d001      	beq.n	8007ec6 <__ssrefill_r+0x14>
 8007ec2:	f7ff fd7d 	bl	80079c0 <_free_r>
 8007ec6:	6c23      	ldr	r3, [r4, #64]	; 0x40
 8007ec8:	6063      	str	r3, [r4, #4]
 8007eca:	2000      	movs	r0, #0
 8007ecc:	6360      	str	r0, [r4, #52]	; 0x34
 8007ece:	b113      	cbz	r3, 8007ed6 <__ssrefill_r+0x24>
 8007ed0:	6be3      	ldr	r3, [r4, #60]	; 0x3c
 8007ed2:	6023      	str	r3, [r4, #0]
 8007ed4:	bd10      	pop	{r4, pc}
 8007ed6:	6923      	ldr	r3, [r4, #16]
 8007ed8:	6023      	str	r3, [r4, #0]
 8007eda:	2300      	movs	r3, #0
 8007edc:	6063      	str	r3, [r4, #4]
 8007ede:	89a3      	ldrh	r3, [r4, #12]
 8007ee0:	f043 0320 	orr.w	r3, r3, #32
 8007ee4:	81a3      	strh	r3, [r4, #12]
 8007ee6:	f04f 30ff 	mov.w	r0, #4294967295
 8007eea:	e7f3      	b.n	8007ed4 <__ssrefill_r+0x22>

08007eec <__ssvfiscanf_r>:
 8007eec:	e92d 47f0 	stmdb	sp!, {r4, r5, r6, r7, r8, r9, sl, lr}
 8007ef0:	460c      	mov	r4, r1
 8007ef2:	f5ad 7d22 	sub.w	sp, sp, #648	; 0x288
 8007ef6:	2100      	movs	r1, #0
 8007ef8:	e9cd 1144 	strd	r1, r1, [sp, #272]	; 0x110
 8007efc:	49a6      	ldr	r1, [pc, #664]	; (8008198 <__ssvfiscanf_r+0x2ac>)
 8007efe:	91a0      	str	r1, [sp, #640]	; 0x280
 8007f00:	f10d 0804 	add.w	r8, sp, #4
 8007f04:	49a5      	ldr	r1, [pc, #660]	; (800819c <__ssvfiscanf_r+0x2b0>)
 8007f06:	4fa6      	ldr	r7, [pc, #664]	; (80081a0 <__ssvfiscanf_r+0x2b4>)
 8007f08:	f8df 9298 	ldr.w	r9, [pc, #664]	; 80081a4 <__ssvfiscanf_r+0x2b8>
 8007f0c:	f8cd 8118 	str.w	r8, [sp, #280]	; 0x118
 8007f10:	4606      	mov	r6, r0
 8007f12:	91a1      	str	r1, [sp, #644]	; 0x284
 8007f14:	9300      	str	r3, [sp, #0]
 8007f16:	7813      	ldrb	r3, [r2, #0]
 8007f18:	2b00      	cmp	r3, #0
 8007f1a:	f000 815a 	beq.w	80081d2 <__ssvfiscanf_r+0x2e6>
 8007f1e:	5dd9      	ldrb	r1, [r3, r7]
 8007f20:	f011 0108 	ands.w	r1, r1, #8
 8007f24:	f102 0501 	add.w	r5, r2, #1
 8007f28:	d019      	beq.n	8007f5e <__ssvfiscanf_r+0x72>
 8007f2a:	6863      	ldr	r3, [r4, #4]
 8007f2c:	2b00      	cmp	r3, #0
 8007f2e:	dd0f      	ble.n	8007f50 <__ssvfiscanf_r+0x64>
 8007f30:	6823      	ldr	r3, [r4, #0]
 8007f32:	781a      	ldrb	r2, [r3, #0]
 8007f34:	5cba      	ldrb	r2, [r7, r2]
 8007f36:	0712      	lsls	r2, r2, #28
 8007f38:	d401      	bmi.n	8007f3e <__ssvfiscanf_r+0x52>
 8007f3a:	462a      	mov	r2, r5
 8007f3c:	e7eb      	b.n	8007f16 <__ssvfiscanf_r+0x2a>
 8007f3e:	9a45      	ldr	r2, [sp, #276]	; 0x114
 8007f40:	3201      	adds	r2, #1
 8007f42:	9245      	str	r2, [sp, #276]	; 0x114
 8007f44:	6862      	ldr	r2, [r4, #4]
 8007f46:	3301      	adds	r3, #1
 8007f48:	3a01      	subs	r2, #1
 8007f4a:	6062      	str	r2, [r4, #4]
 8007f4c:	6023      	str	r3, [r4, #0]
 8007f4e:	e7ec      	b.n	8007f2a <__ssvfiscanf_r+0x3e>
 8007f50:	9ba1      	ldr	r3, [sp, #644]	; 0x284
 8007f52:	4621      	mov	r1, r4
 8007f54:	4630      	mov	r0, r6
 8007f56:	4798      	blx	r3
 8007f58:	2800      	cmp	r0, #0
 8007f5a:	d0e9      	beq.n	8007f30 <__ssvfiscanf_r+0x44>
 8007f5c:	e7ed      	b.n	8007f3a <__ssvfiscanf_r+0x4e>
 8007f5e:	2b25      	cmp	r3, #37	; 0x25
 8007f60:	d012      	beq.n	8007f88 <__ssvfiscanf_r+0x9c>
 8007f62:	469a      	mov	sl, r3
 8007f64:	6863      	ldr	r3, [r4, #4]
 8007f66:	2b00      	cmp	r3, #0
 8007f68:	f340 8091 	ble.w	800808e <__ssvfiscanf_r+0x1a2>
 8007f6c:	6822      	ldr	r2, [r4, #0]
 8007f6e:	7813      	ldrb	r3, [r2, #0]
 8007f70:	4553      	cmp	r3, sl
 8007f72:	f040 812e 	bne.w	80081d2 <__ssvfiscanf_r+0x2e6>
 8007f76:	6863      	ldr	r3, [r4, #4]
 8007f78:	3b01      	subs	r3, #1
 8007f7a:	6063      	str	r3, [r4, #4]
 8007f7c:	9b45      	ldr	r3, [sp, #276]	; 0x114
 8007f7e:	3201      	adds	r2, #1
 8007f80:	3301      	adds	r3, #1
 8007f82:	6022      	str	r2, [r4, #0]
 8007f84:	9345      	str	r3, [sp, #276]	; 0x114
 8007f86:	e7d8      	b.n	8007f3a <__ssvfiscanf_r+0x4e>
 8007f88:	9141      	str	r1, [sp, #260]	; 0x104
 8007f8a:	9143      	str	r1, [sp, #268]	; 0x10c
 8007f8c:	7853      	ldrb	r3, [r2, #1]
 8007f8e:	2b2a      	cmp	r3, #42	; 0x2a
 8007f90:	bf02      	ittt	eq
 8007f92:	2310      	moveq	r3, #16
 8007f94:	1c95      	addeq	r5, r2, #2
 8007f96:	9341      	streq	r3, [sp, #260]	; 0x104
 8007f98:	220a      	movs	r2, #10
 8007f9a:	46aa      	mov	sl, r5
 8007f9c:	f81a 1b01 	ldrb.w	r1, [sl], #1
 8007fa0:	f1a1 0330 	sub.w	r3, r1, #48	; 0x30
 8007fa4:	2b09      	cmp	r3, #9
 8007fa6:	d91d      	bls.n	8007fe4 <__ssvfiscanf_r+0xf8>
 8007fa8:	487e      	ldr	r0, [pc, #504]	; (80081a4 <__ssvfiscanf_r+0x2b8>)
 8007faa:	2203      	movs	r2, #3
 8007fac:	f7f8 f938 	bl	8000220 <memchr>
 8007fb0:	b140      	cbz	r0, 8007fc4 <__ssvfiscanf_r+0xd8>
 8007fb2:	2301      	movs	r3, #1
 8007fb4:	eba0 0009 	sub.w	r0, r0, r9
 8007fb8:	fa03 f000 	lsl.w	r0, r3, r0
 8007fbc:	9b41      	ldr	r3, [sp, #260]	; 0x104
 8007fbe:	4318      	orrs	r0, r3
 8007fc0:	9041      	str	r0, [sp, #260]	; 0x104
 8007fc2:	4655      	mov	r5, sl
 8007fc4:	f815 3b01 	ldrb.w	r3, [r5], #1
 8007fc8:	2b78      	cmp	r3, #120	; 0x78
 8007fca:	d806      	bhi.n	8007fda <__ssvfiscanf_r+0xee>
 8007fcc:	2b57      	cmp	r3, #87	; 0x57
 8007fce:	d810      	bhi.n	8007ff2 <__ssvfiscanf_r+0x106>
 8007fd0:	2b25      	cmp	r3, #37	; 0x25
 8007fd2:	d0c6      	beq.n	8007f62 <__ssvfiscanf_r+0x76>
 8007fd4:	d856      	bhi.n	8008084 <__ssvfiscanf_r+0x198>
 8007fd6:	2b00      	cmp	r3, #0
 8007fd8:	d064      	beq.n	80080a4 <__ssvfiscanf_r+0x1b8>
 8007fda:	2303      	movs	r3, #3
 8007fdc:	9347      	str	r3, [sp, #284]	; 0x11c
 8007fde:	230a      	movs	r3, #10
 8007fe0:	9342      	str	r3, [sp, #264]	; 0x108
 8007fe2:	e071      	b.n	80080c8 <__ssvfiscanf_r+0x1dc>
 8007fe4:	9b43      	ldr	r3, [sp, #268]	; 0x10c
 8007fe6:	fb02 1103 	mla	r1, r2, r3, r1
 8007fea:	3930      	subs	r1, #48	; 0x30
 8007fec:	9143      	str	r1, [sp, #268]	; 0x10c
 8007fee:	4655      	mov	r5, sl
 8007ff0:	e7d3      	b.n	8007f9a <__ssvfiscanf_r+0xae>
 8007ff2:	f1a3 0258 	sub.w	r2, r3, #88	; 0x58
 8007ff6:	2a20      	cmp	r2, #32
 8007ff8:	d8ef      	bhi.n	8007fda <__ssvfiscanf_r+0xee>
 8007ffa:	a101      	add	r1, pc, #4	; (adr r1, 8008000 <__ssvfiscanf_r+0x114>)
 8007ffc:	f851 f022 	ldr.w	pc, [r1, r2, lsl #2]
 8008000:	080080b3 	.word	0x080080b3
 8008004:	08007fdb 	.word	0x08007fdb
 8008008:	08007fdb 	.word	0x08007fdb
 800800c:	08008111 	.word	0x08008111
 8008010:	08007fdb 	.word	0x08007fdb
 8008014:	08007fdb 	.word	0x08007fdb
 8008018:	08007fdb 	.word	0x08007fdb
 800801c:	08007fdb 	.word	0x08007fdb
 8008020:	08007fdb 	.word	0x08007fdb
 8008024:	08007fdb 	.word	0x08007fdb
 8008028:	08007fdb 	.word	0x08007fdb
 800802c:	08008127 	.word	0x08008127
 8008030:	080080fd 	.word	0x080080fd
 8008034:	0800808b 	.word	0x0800808b
 8008038:	0800808b 	.word	0x0800808b
 800803c:	0800808b 	.word	0x0800808b
 8008040:	08007fdb 	.word	0x08007fdb
 8008044:	08008101 	.word	0x08008101
 8008048:	08007fdb 	.word	0x08007fdb
 800804c:	08007fdb 	.word	0x08007fdb
 8008050:	08007fdb 	.word	0x08007fdb
 8008054:	08007fdb 	.word	0x08007fdb
 8008058:	08008137 	.word	0x08008137
 800805c:	08008109 	.word	0x08008109
 8008060:	080080ab 	.word	0x080080ab
 8008064:	08007fdb 	.word	0x08007fdb
 8008068:	08007fdb 	.word	0x08007fdb
 800806c:	08008133 	.word	0x08008133
 8008070:	08007fdb 	.word	0x08007fdb
 8008074:	080080fd 	.word	0x080080fd
 8008078:	08007fdb 	.word	0x08007fdb
 800807c:	08007fdb 	.word	0x08007fdb
 8008080:	080080b3 	.word	0x080080b3
 8008084:	3b45      	subs	r3, #69	; 0x45
 8008086:	2b02      	cmp	r3, #2
 8008088:	d8a7      	bhi.n	8007fda <__ssvfiscanf_r+0xee>
 800808a:	2305      	movs	r3, #5
 800808c:	e01b      	b.n	80080c6 <__ssvfiscanf_r+0x1da>
 800808e:	9ba1      	ldr	r3, [sp, #644]	; 0x284
 8008090:	4621      	mov	r1, r4
 8008092:	4630      	mov	r0, r6
 8008094:	4798      	blx	r3
 8008096:	2800      	cmp	r0, #0
 8008098:	f43f af68 	beq.w	8007f6c <__ssvfiscanf_r+0x80>
 800809c:	9844      	ldr	r0, [sp, #272]	; 0x110
 800809e:	2800      	cmp	r0, #0
 80080a0:	f040 808d 	bne.w	80081be <__ssvfiscanf_r+0x2d2>
 80080a4:	f04f 30ff 	mov.w	r0, #4294967295
 80080a8:	e08f      	b.n	80081ca <__ssvfiscanf_r+0x2de>
 80080aa:	9a41      	ldr	r2, [sp, #260]	; 0x104
 80080ac:	f042 0220 	orr.w	r2, r2, #32
 80080b0:	9241      	str	r2, [sp, #260]	; 0x104
 80080b2:	9a41      	ldr	r2, [sp, #260]	; 0x104
 80080b4:	f442 7200 	orr.w	r2, r2, #512	; 0x200
 80080b8:	9241      	str	r2, [sp, #260]	; 0x104
 80080ba:	2210      	movs	r2, #16
 80080bc:	2b6f      	cmp	r3, #111	; 0x6f
 80080be:	9242      	str	r2, [sp, #264]	; 0x108
 80080c0:	bf34      	ite	cc
 80080c2:	2303      	movcc	r3, #3
 80080c4:	2304      	movcs	r3, #4
 80080c6:	9347      	str	r3, [sp, #284]	; 0x11c
 80080c8:	6863      	ldr	r3, [r4, #4]
 80080ca:	2b00      	cmp	r3, #0
 80080cc:	dd42      	ble.n	8008154 <__ssvfiscanf_r+0x268>
 80080ce:	9b41      	ldr	r3, [sp, #260]	; 0x104
 80080d0:	0659      	lsls	r1, r3, #25
 80080d2:	d404      	bmi.n	80080de <__ssvfiscanf_r+0x1f2>
 80080d4:	6823      	ldr	r3, [r4, #0]
 80080d6:	781a      	ldrb	r2, [r3, #0]
 80080d8:	5cba      	ldrb	r2, [r7, r2]
 80080da:	0712      	lsls	r2, r2, #28
 80080dc:	d441      	bmi.n	8008162 <__ssvfiscanf_r+0x276>
 80080de:	9b47      	ldr	r3, [sp, #284]	; 0x11c
 80080e0:	2b02      	cmp	r3, #2
 80080e2:	dc50      	bgt.n	8008186 <__ssvfiscanf_r+0x29a>
 80080e4:	466b      	mov	r3, sp
 80080e6:	4622      	mov	r2, r4
 80080e8:	a941      	add	r1, sp, #260	; 0x104
 80080ea:	4630      	mov	r0, r6
 80080ec:	f000 f876 	bl	80081dc <_scanf_chars>
 80080f0:	2801      	cmp	r0, #1
 80080f2:	d06e      	beq.n	80081d2 <__ssvfiscanf_r+0x2e6>
 80080f4:	2802      	cmp	r0, #2
 80080f6:	f47f af20 	bne.w	8007f3a <__ssvfiscanf_r+0x4e>
 80080fa:	e7cf      	b.n	800809c <__ssvfiscanf_r+0x1b0>
 80080fc:	220a      	movs	r2, #10
 80080fe:	e7dd      	b.n	80080bc <__ssvfiscanf_r+0x1d0>
 8008100:	2300      	movs	r3, #0
 8008102:	9342      	str	r3, [sp, #264]	; 0x108
 8008104:	2303      	movs	r3, #3
 8008106:	e7de      	b.n	80080c6 <__ssvfiscanf_r+0x1da>
 8008108:	2308      	movs	r3, #8
 800810a:	9342      	str	r3, [sp, #264]	; 0x108
 800810c:	2304      	movs	r3, #4
 800810e:	e7da      	b.n	80080c6 <__ssvfiscanf_r+0x1da>
 8008110:	4629      	mov	r1, r5
 8008112:	4640      	mov	r0, r8
 8008114:	f000 f9e0 	bl	80084d8 <__sccl>
 8008118:	9b41      	ldr	r3, [sp, #260]	; 0x104
 800811a:	f043 0340 	orr.w	r3, r3, #64	; 0x40
 800811e:	9341      	str	r3, [sp, #260]	; 0x104
 8008120:	4605      	mov	r5, r0
 8008122:	2301      	movs	r3, #1
 8008124:	e7cf      	b.n	80080c6 <__ssvfiscanf_r+0x1da>
 8008126:	9b41      	ldr	r3, [sp, #260]	; 0x104
 8008128:	f043 0340 	orr.w	r3, r3, #64	; 0x40
 800812c:	9341      	str	r3, [sp, #260]	; 0x104
 800812e:	2300      	movs	r3, #0
 8008130:	e7c9      	b.n	80080c6 <__ssvfiscanf_r+0x1da>
 8008132:	2302      	movs	r3, #2
 8008134:	e7c7      	b.n	80080c6 <__ssvfiscanf_r+0x1da>
 8008136:	9841      	ldr	r0, [sp, #260]	; 0x104
 8008138:	06c3      	lsls	r3, r0, #27
 800813a:	f53f aefe 	bmi.w	8007f3a <__ssvfiscanf_r+0x4e>
 800813e:	9b00      	ldr	r3, [sp, #0]
 8008140:	9a45      	ldr	r2, [sp, #276]	; 0x114
 8008142:	1d19      	adds	r1, r3, #4
 8008144:	9100      	str	r1, [sp, #0]
 8008146:	681b      	ldr	r3, [r3, #0]
 8008148:	f010 0f01 	tst.w	r0, #1
 800814c:	bf14      	ite	ne
 800814e:	801a      	strhne	r2, [r3, #0]
 8008150:	601a      	streq	r2, [r3, #0]
 8008152:	e6f2      	b.n	8007f3a <__ssvfiscanf_r+0x4e>
 8008154:	9ba1      	ldr	r3, [sp, #644]	; 0x284
 8008156:	4621      	mov	r1, r4
 8008158:	4630      	mov	r0, r6
 800815a:	4798      	blx	r3
 800815c:	2800      	cmp	r0, #0
 800815e:	d0b6      	beq.n	80080ce <__ssvfiscanf_r+0x1e2>
 8008160:	e79c      	b.n	800809c <__ssvfiscanf_r+0x1b0>
 8008162:	9a45      	ldr	r2, [sp, #276]	; 0x114
 8008164:	3201      	adds	r2, #1
 8008166:	9245      	str	r2, [sp, #276]	; 0x114
 8008168:	6862      	ldr	r2, [r4, #4]
 800816a:	3a01      	subs	r2, #1
 800816c:	2a00      	cmp	r2, #0
 800816e:	6062      	str	r2, [r4, #4]
 8008170:	dd02      	ble.n	8008178 <__ssvfiscanf_r+0x28c>
 8008172:	3301      	adds	r3, #1
 8008174:	6023      	str	r3, [r4, #0]
 8008176:	e7ad      	b.n	80080d4 <__ssvfiscanf_r+0x1e8>
 8008178:	9ba1      	ldr	r3, [sp, #644]	; 0x284
 800817a:	4621      	mov	r1, r4
 800817c:	4630      	mov	r0, r6
 800817e:	4798      	blx	r3
 8008180:	2800      	cmp	r0, #0
 8008182:	d0a7      	beq.n	80080d4 <__ssvfiscanf_r+0x1e8>
 8008184:	e78a      	b.n	800809c <__ssvfiscanf_r+0x1b0>
 8008186:	2b04      	cmp	r3, #4
 8008188:	dc0e      	bgt.n	80081a8 <__ssvfiscanf_r+0x2bc>
 800818a:	466b      	mov	r3, sp
 800818c:	4622      	mov	r2, r4
 800818e:	a941      	add	r1, sp, #260	; 0x104
 8008190:	4630      	mov	r0, r6
 8008192:	f000 f87d 	bl	8008290 <_scanf_i>
 8008196:	e7ab      	b.n	80080f0 <__ssvfiscanf_r+0x204>
 8008198:	08007e39 	.word	0x08007e39
 800819c:	08007eb3 	.word	0x08007eb3
 80081a0:	08009279 	.word	0x08009279
 80081a4:	080095e2 	.word	0x080095e2
 80081a8:	4b0b      	ldr	r3, [pc, #44]	; (80081d8 <__ssvfiscanf_r+0x2ec>)
 80081aa:	2b00      	cmp	r3, #0
 80081ac:	f43f aec5 	beq.w	8007f3a <__ssvfiscanf_r+0x4e>
 80081b0:	466b      	mov	r3, sp
 80081b2:	4622      	mov	r2, r4
 80081b4:	a941      	add	r1, sp, #260	; 0x104
 80081b6:	4630      	mov	r0, r6
 80081b8:	f7fc fb6a 	bl	8004890 <_scanf_float>
 80081bc:	e798      	b.n	80080f0 <__ssvfiscanf_r+0x204>
 80081be:	89a3      	ldrh	r3, [r4, #12]
 80081c0:	f013 0f40 	tst.w	r3, #64	; 0x40
 80081c4:	bf18      	it	ne
 80081c6:	f04f 30ff 	movne.w	r0, #4294967295
 80081ca:	f50d 7d22 	add.w	sp, sp, #648	; 0x288
 80081ce:	e8bd 87f0 	ldmia.w	sp!, {r4, r5, r6, r7, r8, r9, sl, pc}
 80081d2:	9844      	ldr	r0, [sp, #272]	; 0x110
 80081d4:	e7f9      	b.n	80081ca <__ssvfiscanf_r+0x2de>
 80081d6:	bf00      	nop
 80081d8:	08004891 	.word	0x08004891

080081dc <_scanf_chars>:
 80081dc:	e92d 43f8 	stmdb	sp!, {r3, r4, r5, r6, r7, r8, r9, lr}
 80081e0:	4615      	mov	r5, r2
 80081e2:	688a      	ldr	r2, [r1, #8]
 80081e4:	4680      	mov	r8, r0
 80081e6:	460c      	mov	r4, r1
 80081e8:	b932      	cbnz	r2, 80081f8 <_scanf_chars+0x1c>
 80081ea:	698a      	ldr	r2, [r1, #24]
 80081ec:	2a00      	cmp	r2, #0
 80081ee:	bf0c      	ite	eq
 80081f0:	2201      	moveq	r2, #1
 80081f2:	f04f 32ff 	movne.w	r2, #4294967295
 80081f6:	608a      	str	r2, [r1, #8]
 80081f8:	6822      	ldr	r2, [r4, #0]
 80081fa:	f8df 9090 	ldr.w	r9, [pc, #144]	; 800828c <_scanf_chars+0xb0>
 80081fe:	06d1      	lsls	r1, r2, #27
 8008200:	bf5f      	itttt	pl
 8008202:	681a      	ldrpl	r2, [r3, #0]
 8008204:	1d11      	addpl	r1, r2, #4
 8008206:	6019      	strpl	r1, [r3, #0]
 8008208:	6816      	ldrpl	r6, [r2, #0]
 800820a:	2700      	movs	r7, #0
 800820c:	69a0      	ldr	r0, [r4, #24]
 800820e:	b188      	cbz	r0, 8008234 <_scanf_chars+0x58>
 8008210:	2801      	cmp	r0, #1
 8008212:	d107      	bne.n	8008224 <_scanf_chars+0x48>
 8008214:	682a      	ldr	r2, [r5, #0]
 8008216:	7811      	ldrb	r1, [r2, #0]
 8008218:	6962      	ldr	r2, [r4, #20]
 800821a:	5c52      	ldrb	r2, [r2, r1]
 800821c:	b952      	cbnz	r2, 8008234 <_scanf_chars+0x58>
 800821e:	2f00      	cmp	r7, #0
 8008220:	d031      	beq.n	8008286 <_scanf_chars+0xaa>
 8008222:	e022      	b.n	800826a <_scanf_chars+0x8e>
 8008224:	2802      	cmp	r0, #2
 8008226:	d120      	bne.n	800826a <_scanf_chars+0x8e>
 8008228:	682b      	ldr	r3, [r5, #0]
 800822a:	781b      	ldrb	r3, [r3, #0]
 800822c:	f813 3009 	ldrb.w	r3, [r3, r9]
 8008230:	071b      	lsls	r3, r3, #28
 8008232:	d41a      	bmi.n	800826a <_scanf_chars+0x8e>
 8008234:	6823      	ldr	r3, [r4, #0]
 8008236:	06da      	lsls	r2, r3, #27
 8008238:	bf5e      	ittt	pl
 800823a:	682b      	ldrpl	r3, [r5, #0]
 800823c:	781b      	ldrbpl	r3, [r3, #0]
 800823e:	f806 3b01 	strbpl.w	r3, [r6], #1
 8008242:	682a      	ldr	r2, [r5, #0]
 8008244:	686b      	ldr	r3, [r5, #4]
 8008246:	3201      	adds	r2, #1
 8008248:	602a      	str	r2, [r5, #0]
 800824a:	68a2      	ldr	r2, [r4, #8]
 800824c:	3b01      	subs	r3, #1
 800824e:	3a01      	subs	r2, #1
 8008250:	606b      	str	r3, [r5, #4]
 8008252:	3701      	adds	r7, #1
 8008254:	60a2      	str	r2, [r4, #8]
 8008256:	b142      	cbz	r2, 800826a <_scanf_chars+0x8e>
 8008258:	2b00      	cmp	r3, #0
 800825a:	dcd7      	bgt.n	800820c <_scanf_chars+0x30>
 800825c:	f8d4 3180 	ldr.w	r3, [r4, #384]	; 0x180
 8008260:	4629      	mov	r1, r5
 8008262:	4640      	mov	r0, r8
 8008264:	4798      	blx	r3
 8008266:	2800      	cmp	r0, #0
 8008268:	d0d0      	beq.n	800820c <_scanf_chars+0x30>
 800826a:	6823      	ldr	r3, [r4, #0]
 800826c:	f013 0310 	ands.w	r3, r3, #16
 8008270:	d105      	bne.n	800827e <_scanf_chars+0xa2>
 8008272:	68e2      	ldr	r2, [r4, #12]
 8008274:	3201      	adds	r2, #1
 8008276:	60e2      	str	r2, [r4, #12]
 8008278:	69a2      	ldr	r2, [r4, #24]
 800827a:	b102      	cbz	r2, 800827e <_scanf_chars+0xa2>
 800827c:	7033      	strb	r3, [r6, #0]
 800827e:	6923      	ldr	r3, [r4, #16]
 8008280:	443b      	add	r3, r7
 8008282:	6123      	str	r3, [r4, #16]
 8008284:	2000      	movs	r0, #0
 8008286:	e8bd 83f8 	ldmia.w	sp!, {r3, r4, r5, r6, r7, r8, r9, pc}
 800828a:	bf00      	nop
 800828c:	08009279 	.word	0x08009279

08008290 <_scanf_i>:
 8008290:	e92d 4ff0 	stmdb	sp!, {r4, r5, r6, r7, r8, r9, sl, fp, lr}
 8008294:	4698      	mov	r8, r3
 8008296:	4b76      	ldr	r3, [pc, #472]	; (8008470 <_scanf_i+0x1e0>)
 8008298:	460c      	mov	r4, r1
 800829a:	4682      	mov	sl, r0
 800829c:	4616      	mov	r6, r2
 800829e:	e893 0007 	ldmia.w	r3, {r0, r1, r2}
 80082a2:	b087      	sub	sp, #28
 80082a4:	ab03      	add	r3, sp, #12
 80082a6:	e883 0007 	stmia.w	r3, {r0, r1, r2}
 80082aa:	4b72      	ldr	r3, [pc, #456]	; (8008474 <_scanf_i+0x1e4>)
 80082ac:	69a1      	ldr	r1, [r4, #24]
 80082ae:	4a72      	ldr	r2, [pc, #456]	; (8008478 <_scanf_i+0x1e8>)
 80082b0:	2903      	cmp	r1, #3
 80082b2:	bf18      	it	ne
 80082b4:	461a      	movne	r2, r3
 80082b6:	68a3      	ldr	r3, [r4, #8]
 80082b8:	9201      	str	r2, [sp, #4]
 80082ba:	1e5a      	subs	r2, r3, #1
 80082bc:	f5b2 7fae 	cmp.w	r2, #348	; 0x15c
 80082c0:	bf88      	it	hi
 80082c2:	f46f 75ae 	mvnhi.w	r5, #348	; 0x15c
 80082c6:	4627      	mov	r7, r4
 80082c8:	bf82      	ittt	hi
 80082ca:	eb03 0905 	addhi.w	r9, r3, r5
 80082ce:	f240 135d 	movwhi	r3, #349	; 0x15d
 80082d2:	60a3      	strhi	r3, [r4, #8]
 80082d4:	f857 3b1c 	ldr.w	r3, [r7], #28
 80082d8:	f443 6350 	orr.w	r3, r3, #3328	; 0xd00
 80082dc:	bf98      	it	ls
 80082de:	f04f 0900 	movls.w	r9, #0
 80082e2:	6023      	str	r3, [r4, #0]
 80082e4:	463d      	mov	r5, r7
 80082e6:	f04f 0b00 	mov.w	fp, #0
 80082ea:	6831      	ldr	r1, [r6, #0]
 80082ec:	ab03      	add	r3, sp, #12
 80082ee:	7809      	ldrb	r1, [r1, #0]
 80082f0:	f853 002b 	ldr.w	r0, [r3, fp, lsl #2]
 80082f4:	2202      	movs	r2, #2
 80082f6:	f7f7 ff93 	bl	8000220 <memchr>
 80082fa:	b328      	cbz	r0, 8008348 <_scanf_i+0xb8>
 80082fc:	f1bb 0f01 	cmp.w	fp, #1
 8008300:	d159      	bne.n	80083b6 <_scanf_i+0x126>
 8008302:	6862      	ldr	r2, [r4, #4]
 8008304:	b92a      	cbnz	r2, 8008312 <_scanf_i+0x82>
 8008306:	6822      	ldr	r2, [r4, #0]
 8008308:	2308      	movs	r3, #8
 800830a:	f442 7200 	orr.w	r2, r2, #512	; 0x200
 800830e:	6063      	str	r3, [r4, #4]
 8008310:	6022      	str	r2, [r4, #0]
 8008312:	6822      	ldr	r2, [r4, #0]
 8008314:	f422 62a0 	bic.w	r2, r2, #1280	; 0x500
 8008318:	6022      	str	r2, [r4, #0]
 800831a:	68a2      	ldr	r2, [r4, #8]
 800831c:	1e51      	subs	r1, r2, #1
 800831e:	60a1      	str	r1, [r4, #8]
 8008320:	b192      	cbz	r2, 8008348 <_scanf_i+0xb8>
 8008322:	6832      	ldr	r2, [r6, #0]
 8008324:	1c51      	adds	r1, r2, #1
 8008326:	6031      	str	r1, [r6, #0]
 8008328:	7812      	ldrb	r2, [r2, #0]
 800832a:	f805 2b01 	strb.w	r2, [r5], #1
 800832e:	6872      	ldr	r2, [r6, #4]
 8008330:	3a01      	subs	r2, #1
 8008332:	2a00      	cmp	r2, #0
 8008334:	6072      	str	r2, [r6, #4]
 8008336:	dc07      	bgt.n	8008348 <_scanf_i+0xb8>
 8008338:	f8d4 2180 	ldr.w	r2, [r4, #384]	; 0x180
 800833c:	4631      	mov	r1, r6
 800833e:	4650      	mov	r0, sl
 8008340:	4790      	blx	r2
 8008342:	2800      	cmp	r0, #0
 8008344:	f040 8085 	bne.w	8008452 <_scanf_i+0x1c2>
 8008348:	f10b 0b01 	add.w	fp, fp, #1
 800834c:	f1bb 0f03 	cmp.w	fp, #3
 8008350:	d1cb      	bne.n	80082ea <_scanf_i+0x5a>
 8008352:	6863      	ldr	r3, [r4, #4]
 8008354:	b90b      	cbnz	r3, 800835a <_scanf_i+0xca>
 8008356:	230a      	movs	r3, #10
 8008358:	6063      	str	r3, [r4, #4]
 800835a:	6863      	ldr	r3, [r4, #4]
 800835c:	4947      	ldr	r1, [pc, #284]	; (800847c <_scanf_i+0x1ec>)
 800835e:	6960      	ldr	r0, [r4, #20]
 8008360:	1ac9      	subs	r1, r1, r3
 8008362:	f000 f8b9 	bl	80084d8 <__sccl>
 8008366:	f04f 0b00 	mov.w	fp, #0
 800836a:	68a3      	ldr	r3, [r4, #8]
 800836c:	6822      	ldr	r2, [r4, #0]
 800836e:	2b00      	cmp	r3, #0
 8008370:	d03d      	beq.n	80083ee <_scanf_i+0x15e>
 8008372:	6831      	ldr	r1, [r6, #0]
 8008374:	6960      	ldr	r0, [r4, #20]
 8008376:	f891 c000 	ldrb.w	ip, [r1]
 800837a:	f810 000c 	ldrb.w	r0, [r0, ip]
 800837e:	2800      	cmp	r0, #0
 8008380:	d035      	beq.n	80083ee <_scanf_i+0x15e>
 8008382:	f1bc 0f30 	cmp.w	ip, #48	; 0x30
 8008386:	d124      	bne.n	80083d2 <_scanf_i+0x142>
 8008388:	0510      	lsls	r0, r2, #20
 800838a:	d522      	bpl.n	80083d2 <_scanf_i+0x142>
 800838c:	f10b 0b01 	add.w	fp, fp, #1
 8008390:	f1b9 0f00 	cmp.w	r9, #0
 8008394:	d003      	beq.n	800839e <_scanf_i+0x10e>
 8008396:	3301      	adds	r3, #1
 8008398:	f109 39ff 	add.w	r9, r9, #4294967295
 800839c:	60a3      	str	r3, [r4, #8]
 800839e:	6873      	ldr	r3, [r6, #4]
 80083a0:	3b01      	subs	r3, #1
 80083a2:	2b00      	cmp	r3, #0
 80083a4:	6073      	str	r3, [r6, #4]
 80083a6:	dd1b      	ble.n	80083e0 <_scanf_i+0x150>
 80083a8:	6833      	ldr	r3, [r6, #0]
 80083aa:	3301      	adds	r3, #1
 80083ac:	6033      	str	r3, [r6, #0]
 80083ae:	68a3      	ldr	r3, [r4, #8]
 80083b0:	3b01      	subs	r3, #1
 80083b2:	60a3      	str	r3, [r4, #8]
 80083b4:	e7d9      	b.n	800836a <_scanf_i+0xda>
 80083b6:	f1bb 0f02 	cmp.w	fp, #2
 80083ba:	d1ae      	bne.n	800831a <_scanf_i+0x8a>
 80083bc:	6822      	ldr	r2, [r4, #0]
 80083be:	f402 61c0 	and.w	r1, r2, #1536	; 0x600
 80083c2:	f5b1 7f00 	cmp.w	r1, #512	; 0x200
 80083c6:	d1bf      	bne.n	8008348 <_scanf_i+0xb8>
 80083c8:	2310      	movs	r3, #16
 80083ca:	6063      	str	r3, [r4, #4]
 80083cc:	f442 7280 	orr.w	r2, r2, #256	; 0x100
 80083d0:	e7a2      	b.n	8008318 <_scanf_i+0x88>
 80083d2:	f422 6210 	bic.w	r2, r2, #2304	; 0x900
 80083d6:	6022      	str	r2, [r4, #0]
 80083d8:	780b      	ldrb	r3, [r1, #0]
 80083da:	f805 3b01 	strb.w	r3, [r5], #1
 80083de:	e7de      	b.n	800839e <_scanf_i+0x10e>
 80083e0:	f8d4 3180 	ldr.w	r3, [r4, #384]	; 0x180
 80083e4:	4631      	mov	r1, r6
 80083e6:	4650      	mov	r0, sl
 80083e8:	4798      	blx	r3
 80083ea:	2800      	cmp	r0, #0
 80083ec:	d0df      	beq.n	80083ae <_scanf_i+0x11e>
 80083ee:	6823      	ldr	r3, [r4, #0]
 80083f0:	05db      	lsls	r3, r3, #23
 80083f2:	d50d      	bpl.n	8008410 <_scanf_i+0x180>
 80083f4:	42bd      	cmp	r5, r7
 80083f6:	d909      	bls.n	800840c <_scanf_i+0x17c>
 80083f8:	f815 1c01 	ldrb.w	r1, [r5, #-1]
 80083fc:	f8d4 317c 	ldr.w	r3, [r4, #380]	; 0x17c
 8008400:	4632      	mov	r2, r6
 8008402:	4650      	mov	r0, sl
 8008404:	4798      	blx	r3
 8008406:	f105 39ff 	add.w	r9, r5, #4294967295
 800840a:	464d      	mov	r5, r9
 800840c:	42bd      	cmp	r5, r7
 800840e:	d02d      	beq.n	800846c <_scanf_i+0x1dc>
 8008410:	6822      	ldr	r2, [r4, #0]
 8008412:	f012 0210 	ands.w	r2, r2, #16
 8008416:	d113      	bne.n	8008440 <_scanf_i+0x1b0>
 8008418:	702a      	strb	r2, [r5, #0]
 800841a:	6863      	ldr	r3, [r4, #4]
 800841c:	9e01      	ldr	r6, [sp, #4]
 800841e:	4639      	mov	r1, r7
 8008420:	4650      	mov	r0, sl
 8008422:	47b0      	blx	r6
 8008424:	6821      	ldr	r1, [r4, #0]
 8008426:	f8d8 3000 	ldr.w	r3, [r8]
 800842a:	f011 0f20 	tst.w	r1, #32
 800842e:	d013      	beq.n	8008458 <_scanf_i+0x1c8>
 8008430:	1d1a      	adds	r2, r3, #4
 8008432:	f8c8 2000 	str.w	r2, [r8]
 8008436:	681b      	ldr	r3, [r3, #0]
 8008438:	6018      	str	r0, [r3, #0]
 800843a:	68e3      	ldr	r3, [r4, #12]
 800843c:	3301      	adds	r3, #1
 800843e:	60e3      	str	r3, [r4, #12]
 8008440:	1bed      	subs	r5, r5, r7
 8008442:	44ab      	add	fp, r5
 8008444:	6925      	ldr	r5, [r4, #16]
 8008446:	445d      	add	r5, fp
 8008448:	6125      	str	r5, [r4, #16]
 800844a:	2000      	movs	r0, #0
 800844c:	b007      	add	sp, #28
 800844e:	e8bd 8ff0 	ldmia.w	sp!, {r4, r5, r6, r7, r8, r9, sl, fp, pc}
 8008452:	f04f 0b00 	mov.w	fp, #0
 8008456:	e7ca      	b.n	80083ee <_scanf_i+0x15e>
 8008458:	1d1a      	adds	r2, r3, #4
 800845a:	f8c8 2000 	str.w	r2, [r8]
 800845e:	681b      	ldr	r3, [r3, #0]
 8008460:	f011 0f01 	tst.w	r1, #1
 8008464:	bf14      	ite	ne
 8008466:	8018      	strhne	r0, [r3, #0]
 8008468:	6018      	streq	r0, [r3, #0]
 800846a:	e7e6      	b.n	800843a <_scanf_i+0x1aa>
 800846c:	2001      	movs	r0, #1
 800846e:	e7ed      	b.n	800844c <_scanf_i+0x1bc>
 8008470:	080091bc 	.word	0x080091bc
 8008474:	08008655 	.word	0x08008655
 8008478:	08005b75 	.word	0x08005b75
 800847c:	08009606 	.word	0x08009606

08008480 <_read_r>:
 8008480:	b538      	push	{r3, r4, r5, lr}
 8008482:	4d07      	ldr	r5, [pc, #28]	; (80084a0 <_read_r+0x20>)
 8008484:	4604      	mov	r4, r0
 8008486:	4608      	mov	r0, r1
 8008488:	4611      	mov	r1, r2
 800848a:	2200      	movs	r2, #0
 800848c:	602a      	str	r2, [r5, #0]
 800848e:	461a      	mov	r2, r3
 8008490:	f7f9 f9a0 	bl	80017d4 <_read>
 8008494:	1c43      	adds	r3, r0, #1
 8008496:	d102      	bne.n	800849e <_read_r+0x1e>
 8008498:	682b      	ldr	r3, [r5, #0]
 800849a:	b103      	cbz	r3, 800849e <_read_r+0x1e>
 800849c:	6023      	str	r3, [r4, #0]
 800849e:	bd38      	pop	{r3, r4, r5, pc}
 80084a0:	2000095c 	.word	0x2000095c
 80084a4:	00000000 	.word	0x00000000

080084a8 <nan>:
 80084a8:	ed9f 0b01 	vldr	d0, [pc, #4]	; 80084b0 <nan+0x8>
 80084ac:	4770      	bx	lr
 80084ae:	bf00      	nop
 80084b0:	00000000 	.word	0x00000000
 80084b4:	7ff80000 	.word	0x7ff80000

080084b8 <_sbrk_r>:
 80084b8:	b538      	push	{r3, r4, r5, lr}
 80084ba:	4d06      	ldr	r5, [pc, #24]	; (80084d4 <_sbrk_r+0x1c>)
 80084bc:	2300      	movs	r3, #0
 80084be:	4604      	mov	r4, r0
 80084c0:	4608      	mov	r0, r1
 80084c2:	602b      	str	r3, [r5, #0]
 80084c4:	f7f9 f9f4 	bl	80018b0 <_sbrk>
 80084c8:	1c43      	adds	r3, r0, #1
 80084ca:	d102      	bne.n	80084d2 <_sbrk_r+0x1a>
 80084cc:	682b      	ldr	r3, [r5, #0]
 80084ce:	b103      	cbz	r3, 80084d2 <_sbrk_r+0x1a>
 80084d0:	6023      	str	r3, [r4, #0]
 80084d2:	bd38      	pop	{r3, r4, r5, pc}
 80084d4:	2000095c 	.word	0x2000095c

080084d8 <__sccl>:
 80084d8:	b570      	push	{r4, r5, r6, lr}
 80084da:	780b      	ldrb	r3, [r1, #0]
 80084dc:	4604      	mov	r4, r0
 80084de:	2b5e      	cmp	r3, #94	; 0x5e
 80084e0:	bf0b      	itete	eq
 80084e2:	784b      	ldrbeq	r3, [r1, #1]
 80084e4:	1c48      	addne	r0, r1, #1
 80084e6:	1c88      	addeq	r0, r1, #2
 80084e8:	2200      	movne	r2, #0
 80084ea:	bf08      	it	eq
 80084ec:	2201      	moveq	r2, #1
 80084ee:	1e61      	subs	r1, r4, #1
 80084f0:	f104 05ff 	add.w	r5, r4, #255	; 0xff
 80084f4:	f801 2f01 	strb.w	r2, [r1, #1]!
 80084f8:	42a9      	cmp	r1, r5
 80084fa:	d1fb      	bne.n	80084f4 <__sccl+0x1c>
 80084fc:	b90b      	cbnz	r3, 8008502 <__sccl+0x2a>
 80084fe:	3801      	subs	r0, #1
 8008500:	bd70      	pop	{r4, r5, r6, pc}
 8008502:	f082 0201 	eor.w	r2, r2, #1
 8008506:	54e2      	strb	r2, [r4, r3]
 8008508:	4605      	mov	r5, r0
 800850a:	4628      	mov	r0, r5
 800850c:	f810 1b01 	ldrb.w	r1, [r0], #1
 8008510:	292d      	cmp	r1, #45	; 0x2d
 8008512:	d006      	beq.n	8008522 <__sccl+0x4a>
 8008514:	295d      	cmp	r1, #93	; 0x5d
 8008516:	d0f3      	beq.n	8008500 <__sccl+0x28>
 8008518:	b909      	cbnz	r1, 800851e <__sccl+0x46>
 800851a:	4628      	mov	r0, r5
 800851c:	e7f0      	b.n	8008500 <__sccl+0x28>
 800851e:	460b      	mov	r3, r1
 8008520:	e7f1      	b.n	8008506 <__sccl+0x2e>
 8008522:	786e      	ldrb	r6, [r5, #1]
 8008524:	2e5d      	cmp	r6, #93	; 0x5d
 8008526:	d0fa      	beq.n	800851e <__sccl+0x46>
 8008528:	42b3      	cmp	r3, r6
 800852a:	dcf8      	bgt.n	800851e <__sccl+0x46>
 800852c:	3502      	adds	r5, #2
 800852e:	4619      	mov	r1, r3
 8008530:	3101      	adds	r1, #1
 8008532:	428e      	cmp	r6, r1
 8008534:	5462      	strb	r2, [r4, r1]
 8008536:	dcfb      	bgt.n	8008530 <__sccl+0x58>
 8008538:	1af1      	subs	r1, r6, r3
 800853a:	3901      	subs	r1, #1
 800853c:	1c58      	adds	r0, r3, #1
 800853e:	42b3      	cmp	r3, r6
 8008540:	bfa8      	it	ge
 8008542:	2100      	movge	r1, #0
 8008544:	1843      	adds	r3, r0, r1
 8008546:	e7e0      	b.n	800850a <__sccl+0x32>

08008548 <strncmp>:
 8008548:	b510      	push	{r4, lr}
 800854a:	b17a      	cbz	r2, 800856c <strncmp+0x24>
 800854c:	4603      	mov	r3, r0
 800854e:	3901      	subs	r1, #1
 8008550:	1884      	adds	r4, r0, r2
 8008552:	f813 0b01 	ldrb.w	r0, [r3], #1
 8008556:	f811 2f01 	ldrb.w	r2, [r1, #1]!
 800855a:	4290      	cmp	r0, r2
 800855c:	d101      	bne.n	8008562 <strncmp+0x1a>
 800855e:	42a3      	cmp	r3, r4
 8008560:	d101      	bne.n	8008566 <strncmp+0x1e>
 8008562:	1a80      	subs	r0, r0, r2
 8008564:	bd10      	pop	{r4, pc}
 8008566:	2800      	cmp	r0, #0
 8008568:	d1f3      	bne.n	8008552 <strncmp+0xa>
 800856a:	e7fa      	b.n	8008562 <strncmp+0x1a>
 800856c:	4610      	mov	r0, r2
 800856e:	e7f9      	b.n	8008564 <strncmp+0x1c>

08008570 <_strtoul_l.constprop.0>:
 8008570:	e92d 43f0 	stmdb	sp!, {r4, r5, r6, r7, r8, r9, lr}
 8008574:	4f36      	ldr	r7, [pc, #216]	; (8008650 <_strtoul_l.constprop.0+0xe0>)
 8008576:	4686      	mov	lr, r0
 8008578:	460d      	mov	r5, r1
 800857a:	4628      	mov	r0, r5
 800857c:	f815 4b01 	ldrb.w	r4, [r5], #1
 8008580:	5de6      	ldrb	r6, [r4, r7]
 8008582:	f016 0608 	ands.w	r6, r6, #8
 8008586:	d1f8      	bne.n	800857a <_strtoul_l.constprop.0+0xa>
 8008588:	2c2d      	cmp	r4, #45	; 0x2d
 800858a:	d12f      	bne.n	80085ec <_strtoul_l.constprop.0+0x7c>
 800858c:	782c      	ldrb	r4, [r5, #0]
 800858e:	2601      	movs	r6, #1
 8008590:	1c85      	adds	r5, r0, #2
 8008592:	2b00      	cmp	r3, #0
 8008594:	d057      	beq.n	8008646 <_strtoul_l.constprop.0+0xd6>
 8008596:	2b10      	cmp	r3, #16
 8008598:	d109      	bne.n	80085ae <_strtoul_l.constprop.0+0x3e>
 800859a:	2c30      	cmp	r4, #48	; 0x30
 800859c:	d107      	bne.n	80085ae <_strtoul_l.constprop.0+0x3e>
 800859e:	7828      	ldrb	r0, [r5, #0]
 80085a0:	f000 00df 	and.w	r0, r0, #223	; 0xdf
 80085a4:	2858      	cmp	r0, #88	; 0x58
 80085a6:	d149      	bne.n	800863c <_strtoul_l.constprop.0+0xcc>
 80085a8:	786c      	ldrb	r4, [r5, #1]
 80085aa:	2310      	movs	r3, #16
 80085ac:	3502      	adds	r5, #2
 80085ae:	f04f 38ff 	mov.w	r8, #4294967295
 80085b2:	2700      	movs	r7, #0
 80085b4:	fbb8 f8f3 	udiv	r8, r8, r3
 80085b8:	fb03 f908 	mul.w	r9, r3, r8
 80085bc:	ea6f 0909 	mvn.w	r9, r9
 80085c0:	4638      	mov	r0, r7
 80085c2:	f1a4 0c30 	sub.w	ip, r4, #48	; 0x30
 80085c6:	f1bc 0f09 	cmp.w	ip, #9
 80085ca:	d814      	bhi.n	80085f6 <_strtoul_l.constprop.0+0x86>
 80085cc:	4664      	mov	r4, ip
 80085ce:	42a3      	cmp	r3, r4
 80085d0:	dd22      	ble.n	8008618 <_strtoul_l.constprop.0+0xa8>
 80085d2:	2f00      	cmp	r7, #0
 80085d4:	db1d      	blt.n	8008612 <_strtoul_l.constprop.0+0xa2>
 80085d6:	4580      	cmp	r8, r0
 80085d8:	d31b      	bcc.n	8008612 <_strtoul_l.constprop.0+0xa2>
 80085da:	d101      	bne.n	80085e0 <_strtoul_l.constprop.0+0x70>
 80085dc:	45a1      	cmp	r9, r4
 80085de:	db18      	blt.n	8008612 <_strtoul_l.constprop.0+0xa2>
 80085e0:	fb00 4003 	mla	r0, r0, r3, r4
 80085e4:	2701      	movs	r7, #1
 80085e6:	f815 4b01 	ldrb.w	r4, [r5], #1
 80085ea:	e7ea      	b.n	80085c2 <_strtoul_l.constprop.0+0x52>
 80085ec:	2c2b      	cmp	r4, #43	; 0x2b
 80085ee:	bf04      	itt	eq
 80085f0:	782c      	ldrbeq	r4, [r5, #0]
 80085f2:	1c85      	addeq	r5, r0, #2
 80085f4:	e7cd      	b.n	8008592 <_strtoul_l.constprop.0+0x22>
 80085f6:	f1a4 0c41 	sub.w	ip, r4, #65	; 0x41
 80085fa:	f1bc 0f19 	cmp.w	ip, #25
 80085fe:	d801      	bhi.n	8008604 <_strtoul_l.constprop.0+0x94>
 8008600:	3c37      	subs	r4, #55	; 0x37
 8008602:	e7e4      	b.n	80085ce <_strtoul_l.constprop.0+0x5e>
 8008604:	f1a4 0c61 	sub.w	ip, r4, #97	; 0x61
 8008608:	f1bc 0f19 	cmp.w	ip, #25
 800860c:	d804      	bhi.n	8008618 <_strtoul_l.constprop.0+0xa8>
 800860e:	3c57      	subs	r4, #87	; 0x57
 8008610:	e7dd      	b.n	80085ce <_strtoul_l.constprop.0+0x5e>
 8008612:	f04f 37ff 	mov.w	r7, #4294967295
 8008616:	e7e6      	b.n	80085e6 <_strtoul_l.constprop.0+0x76>
 8008618:	2f00      	cmp	r7, #0
 800861a:	da07      	bge.n	800862c <_strtoul_l.constprop.0+0xbc>
 800861c:	2322      	movs	r3, #34	; 0x22
 800861e:	f8ce 3000 	str.w	r3, [lr]
 8008622:	f04f 30ff 	mov.w	r0, #4294967295
 8008626:	b932      	cbnz	r2, 8008636 <_strtoul_l.constprop.0+0xc6>
 8008628:	e8bd 83f0 	ldmia.w	sp!, {r4, r5, r6, r7, r8, r9, pc}
 800862c:	b106      	cbz	r6, 8008630 <_strtoul_l.constprop.0+0xc0>
 800862e:	4240      	negs	r0, r0
 8008630:	2a00      	cmp	r2, #0
 8008632:	d0f9      	beq.n	8008628 <_strtoul_l.constprop.0+0xb8>
 8008634:	b107      	cbz	r7, 8008638 <_strtoul_l.constprop.0+0xc8>
 8008636:	1e69      	subs	r1, r5, #1
 8008638:	6011      	str	r1, [r2, #0]
 800863a:	e7f5      	b.n	8008628 <_strtoul_l.constprop.0+0xb8>
 800863c:	2430      	movs	r4, #48	; 0x30
 800863e:	2b00      	cmp	r3, #0
 8008640:	d1b5      	bne.n	80085ae <_strtoul_l.constprop.0+0x3e>
 8008642:	2308      	movs	r3, #8
 8008644:	e7b3      	b.n	80085ae <_strtoul_l.constprop.0+0x3e>
 8008646:	2c30      	cmp	r4, #48	; 0x30
 8008648:	d0a9      	beq.n	800859e <_strtoul_l.constprop.0+0x2e>
 800864a:	230a      	movs	r3, #10
 800864c:	e7af      	b.n	80085ae <_strtoul_l.constprop.0+0x3e>
 800864e:	bf00      	nop
 8008650:	08009279 	.word	0x08009279

08008654 <_strtoul_r>:
 8008654:	f7ff bf8c 	b.w	8008570 <_strtoul_l.constprop.0>

08008658 <__submore>:
 8008658:	e92d 41f0 	stmdb	sp!, {r4, r5, r6, r7, r8, lr}
 800865c:	460c      	mov	r4, r1
 800865e:	6b49      	ldr	r1, [r1, #52]	; 0x34
 8008660:	f104 0344 	add.w	r3, r4, #68	; 0x44
 8008664:	4299      	cmp	r1, r3
 8008666:	d11d      	bne.n	80086a4 <__submore+0x4c>
 8008668:	f44f 6180 	mov.w	r1, #1024	; 0x400
 800866c:	f7ff fa14 	bl	8007a98 <_malloc_r>
 8008670:	b918      	cbnz	r0, 800867a <__submore+0x22>
 8008672:	f04f 30ff 	mov.w	r0, #4294967295
 8008676:	e8bd 81f0 	ldmia.w	sp!, {r4, r5, r6, r7, r8, pc}
 800867a:	f44f 6380 	mov.w	r3, #1024	; 0x400
 800867e:	63a3      	str	r3, [r4, #56]	; 0x38
 8008680:	f894 3046 	ldrb.w	r3, [r4, #70]	; 0x46
 8008684:	6360      	str	r0, [r4, #52]	; 0x34
 8008686:	f880 33ff 	strb.w	r3, [r0, #1023]	; 0x3ff
 800868a:	f894 3045 	ldrb.w	r3, [r4, #69]	; 0x45
 800868e:	f880 33fe 	strb.w	r3, [r0, #1022]	; 0x3fe
 8008692:	f894 3044 	ldrb.w	r3, [r4, #68]	; 0x44
 8008696:	f880 33fd 	strb.w	r3, [r0, #1021]	; 0x3fd
 800869a:	f200 30fd 	addw	r0, r0, #1021	; 0x3fd
 800869e:	6020      	str	r0, [r4, #0]
 80086a0:	2000      	movs	r0, #0
 80086a2:	e7e8      	b.n	8008676 <__submore+0x1e>
 80086a4:	6ba6      	ldr	r6, [r4, #56]	; 0x38
 80086a6:	0077      	lsls	r7, r6, #1
 80086a8:	463a      	mov	r2, r7
 80086aa:	f000 fa2d 	bl	8008b08 <_realloc_r>
 80086ae:	4605      	mov	r5, r0
 80086b0:	2800      	cmp	r0, #0
 80086b2:	d0de      	beq.n	8008672 <__submore+0x1a>
 80086b4:	eb00 0806 	add.w	r8, r0, r6
 80086b8:	4601      	mov	r1, r0
 80086ba:	4632      	mov	r2, r6
 80086bc:	4640      	mov	r0, r8
 80086be:	f7fe fc99 	bl	8006ff4 <memcpy>
 80086c2:	e9c4 570d 	strd	r5, r7, [r4, #52]	; 0x34
 80086c6:	f8c4 8000 	str.w	r8, [r4]
 80086ca:	e7e9      	b.n	80086a0 <__submore+0x48>

080086cc <__ascii_wctomb>:
 80086cc:	b149      	cbz	r1, 80086e2 <__ascii_wctomb+0x16>
 80086ce:	2aff      	cmp	r2, #255	; 0xff
 80086d0:	bf85      	ittet	hi
 80086d2:	238a      	movhi	r3, #138	; 0x8a
 80086d4:	6003      	strhi	r3, [r0, #0]
 80086d6:	700a      	strbls	r2, [r1, #0]
 80086d8:	f04f 30ff 	movhi.w	r0, #4294967295
 80086dc:	bf98      	it	ls
 80086de:	2001      	movls	r0, #1
 80086e0:	4770      	bx	lr
 80086e2:	4608      	mov	r0, r1
 80086e4:	4770      	bx	lr
	...

080086e8 <__assert_func>:
 80086e8:	b51f      	push	{r0, r1, r2, r3, r4, lr}
 80086ea:	4614      	mov	r4, r2
 80086ec:	461a      	mov	r2, r3
 80086ee:	4b09      	ldr	r3, [pc, #36]	; (8008714 <__assert_func+0x2c>)
 80086f0:	681b      	ldr	r3, [r3, #0]
 80086f2:	4605      	mov	r5, r0
 80086f4:	68d8      	ldr	r0, [r3, #12]
 80086f6:	b14c      	cbz	r4, 800870c <__assert_func+0x24>
 80086f8:	4b07      	ldr	r3, [pc, #28]	; (8008718 <__assert_func+0x30>)
 80086fa:	9100      	str	r1, [sp, #0]
 80086fc:	e9cd 3401 	strd	r3, r4, [sp, #4]
 8008700:	4906      	ldr	r1, [pc, #24]	; (800871c <__assert_func+0x34>)
 8008702:	462b      	mov	r3, r5
 8008704:	f000 f9a6 	bl	8008a54 <fiprintf>
 8008708:	f000 fc46 	bl	8008f98 <abort>
 800870c:	4b04      	ldr	r3, [pc, #16]	; (8008720 <__assert_func+0x38>)
 800870e:	461c      	mov	r4, r3
 8008710:	e7f3      	b.n	80086fa <__assert_func+0x12>
 8008712:	bf00      	nop
 8008714:	2000000c 	.word	0x2000000c
 8008718:	08009608 	.word	0x08009608
 800871c:	08009615 	.word	0x08009615
 8008720:	08009643 	.word	0x08009643

08008724 <__sflush_r>:
 8008724:	898a      	ldrh	r2, [r1, #12]
 8008726:	e92d 41f0 	stmdb	sp!, {r4, r5, r6, r7, r8, lr}
 800872a:	4605      	mov	r5, r0
 800872c:	0710      	lsls	r0, r2, #28
 800872e:	460c      	mov	r4, r1
 8008730:	d458      	bmi.n	80087e4 <__sflush_r+0xc0>
 8008732:	684b      	ldr	r3, [r1, #4]
 8008734:	2b00      	cmp	r3, #0
 8008736:	dc05      	bgt.n	8008744 <__sflush_r+0x20>
 8008738:	6c0b      	ldr	r3, [r1, #64]	; 0x40
 800873a:	2b00      	cmp	r3, #0
 800873c:	dc02      	bgt.n	8008744 <__sflush_r+0x20>
 800873e:	2000      	movs	r0, #0
 8008740:	e8bd 81f0 	ldmia.w	sp!, {r4, r5, r6, r7, r8, pc}
 8008744:	6ae6      	ldr	r6, [r4, #44]	; 0x2c
 8008746:	2e00      	cmp	r6, #0
 8008748:	d0f9      	beq.n	800873e <__sflush_r+0x1a>
 800874a:	2300      	movs	r3, #0
 800874c:	f412 5280 	ands.w	r2, r2, #4096	; 0x1000
 8008750:	682f      	ldr	r7, [r5, #0]
 8008752:	602b      	str	r3, [r5, #0]
 8008754:	d032      	beq.n	80087bc <__sflush_r+0x98>
 8008756:	6d60      	ldr	r0, [r4, #84]	; 0x54
 8008758:	89a3      	ldrh	r3, [r4, #12]
 800875a:	075a      	lsls	r2, r3, #29
 800875c:	d505      	bpl.n	800876a <__sflush_r+0x46>
 800875e:	6863      	ldr	r3, [r4, #4]
 8008760:	1ac0      	subs	r0, r0, r3
 8008762:	6b63      	ldr	r3, [r4, #52]	; 0x34
 8008764:	b10b      	cbz	r3, 800876a <__sflush_r+0x46>
 8008766:	6c23      	ldr	r3, [r4, #64]	; 0x40
 8008768:	1ac0      	subs	r0, r0, r3
 800876a:	2300      	movs	r3, #0
 800876c:	4602      	mov	r2, r0
 800876e:	6ae6      	ldr	r6, [r4, #44]	; 0x2c
 8008770:	6a21      	ldr	r1, [r4, #32]
 8008772:	4628      	mov	r0, r5
 8008774:	47b0      	blx	r6
 8008776:	1c43      	adds	r3, r0, #1
 8008778:	89a3      	ldrh	r3, [r4, #12]
 800877a:	d106      	bne.n	800878a <__sflush_r+0x66>
 800877c:	6829      	ldr	r1, [r5, #0]
 800877e:	291d      	cmp	r1, #29
 8008780:	d82c      	bhi.n	80087dc <__sflush_r+0xb8>
 8008782:	4a2a      	ldr	r2, [pc, #168]	; (800882c <__sflush_r+0x108>)
 8008784:	40ca      	lsrs	r2, r1
 8008786:	07d6      	lsls	r6, r2, #31
 8008788:	d528      	bpl.n	80087dc <__sflush_r+0xb8>
 800878a:	2200      	movs	r2, #0
 800878c:	6062      	str	r2, [r4, #4]
 800878e:	04d9      	lsls	r1, r3, #19
 8008790:	6922      	ldr	r2, [r4, #16]
 8008792:	6022      	str	r2, [r4, #0]
 8008794:	d504      	bpl.n	80087a0 <__sflush_r+0x7c>
 8008796:	1c42      	adds	r2, r0, #1
 8008798:	d101      	bne.n	800879e <__sflush_r+0x7a>
 800879a:	682b      	ldr	r3, [r5, #0]
 800879c:	b903      	cbnz	r3, 80087a0 <__sflush_r+0x7c>
 800879e:	6560      	str	r0, [r4, #84]	; 0x54
 80087a0:	6b61      	ldr	r1, [r4, #52]	; 0x34
 80087a2:	602f      	str	r7, [r5, #0]
 80087a4:	2900      	cmp	r1, #0
 80087a6:	d0ca      	beq.n	800873e <__sflush_r+0x1a>
 80087a8:	f104 0344 	add.w	r3, r4, #68	; 0x44
 80087ac:	4299      	cmp	r1, r3
 80087ae:	d002      	beq.n	80087b6 <__sflush_r+0x92>
 80087b0:	4628      	mov	r0, r5
 80087b2:	f7ff f905 	bl	80079c0 <_free_r>
 80087b6:	2000      	movs	r0, #0
 80087b8:	6360      	str	r0, [r4, #52]	; 0x34
 80087ba:	e7c1      	b.n	8008740 <__sflush_r+0x1c>
 80087bc:	6a21      	ldr	r1, [r4, #32]
 80087be:	2301      	movs	r3, #1
 80087c0:	4628      	mov	r0, r5
 80087c2:	47b0      	blx	r6
 80087c4:	1c41      	adds	r1, r0, #1
 80087c6:	d1c7      	bne.n	8008758 <__sflush_r+0x34>
 80087c8:	682b      	ldr	r3, [r5, #0]
 80087ca:	2b00      	cmp	r3, #0
 80087cc:	d0c4      	beq.n	8008758 <__sflush_r+0x34>
 80087ce:	2b1d      	cmp	r3, #29
 80087d0:	d001      	beq.n	80087d6 <__sflush_r+0xb2>
 80087d2:	2b16      	cmp	r3, #22
 80087d4:	d101      	bne.n	80087da <__sflush_r+0xb6>
 80087d6:	602f      	str	r7, [r5, #0]
 80087d8:	e7b1      	b.n	800873e <__sflush_r+0x1a>
 80087da:	89a3      	ldrh	r3, [r4, #12]
 80087dc:	f043 0340 	orr.w	r3, r3, #64	; 0x40
 80087e0:	81a3      	strh	r3, [r4, #12]
 80087e2:	e7ad      	b.n	8008740 <__sflush_r+0x1c>
 80087e4:	690f      	ldr	r7, [r1, #16]
 80087e6:	2f00      	cmp	r7, #0
 80087e8:	d0a9      	beq.n	800873e <__sflush_r+0x1a>
 80087ea:	0793      	lsls	r3, r2, #30
 80087ec:	680e      	ldr	r6, [r1, #0]
 80087ee:	bf08      	it	eq
 80087f0:	694b      	ldreq	r3, [r1, #20]
 80087f2:	600f      	str	r7, [r1, #0]
 80087f4:	bf18      	it	ne
 80087f6:	2300      	movne	r3, #0
 80087f8:	eba6 0807 	sub.w	r8, r6, r7
 80087fc:	608b      	str	r3, [r1, #8]
 80087fe:	f1b8 0f00 	cmp.w	r8, #0
 8008802:	dd9c      	ble.n	800873e <__sflush_r+0x1a>
 8008804:	6a21      	ldr	r1, [r4, #32]
 8008806:	6aa6      	ldr	r6, [r4, #40]	; 0x28
 8008808:	4643      	mov	r3, r8
 800880a:	463a      	mov	r2, r7
 800880c:	4628      	mov	r0, r5
 800880e:	47b0      	blx	r6
 8008810:	2800      	cmp	r0, #0
 8008812:	dc06      	bgt.n	8008822 <__sflush_r+0xfe>
 8008814:	89a3      	ldrh	r3, [r4, #12]
 8008816:	f043 0340 	orr.w	r3, r3, #64	; 0x40
 800881a:	81a3      	strh	r3, [r4, #12]
 800881c:	f04f 30ff 	mov.w	r0, #4294967295
 8008820:	e78e      	b.n	8008740 <__sflush_r+0x1c>
 8008822:	4407      	add	r7, r0
 8008824:	eba8 0800 	sub.w	r8, r8, r0
 8008828:	e7e9      	b.n	80087fe <__sflush_r+0xda>
 800882a:	bf00      	nop
 800882c:	20400001 	.word	0x20400001

08008830 <_fflush_r>:
 8008830:	b538      	push	{r3, r4, r5, lr}
 8008832:	690b      	ldr	r3, [r1, #16]
 8008834:	4605      	mov	r5, r0
 8008836:	460c      	mov	r4, r1
 8008838:	b913      	cbnz	r3, 8008840 <_fflush_r+0x10>
 800883a:	2500      	movs	r5, #0
 800883c:	4628      	mov	r0, r5
 800883e:	bd38      	pop	{r3, r4, r5, pc}
 8008840:	b118      	cbz	r0, 800884a <_fflush_r+0x1a>
 8008842:	6983      	ldr	r3, [r0, #24]
 8008844:	b90b      	cbnz	r3, 800884a <_fflush_r+0x1a>
 8008846:	f000 f887 	bl	8008958 <__sinit>
 800884a:	4b14      	ldr	r3, [pc, #80]	; (800889c <_fflush_r+0x6c>)
 800884c:	429c      	cmp	r4, r3
 800884e:	d11b      	bne.n	8008888 <_fflush_r+0x58>
 8008850:	686c      	ldr	r4, [r5, #4]
 8008852:	f9b4 300c 	ldrsh.w	r3, [r4, #12]
 8008856:	2b00      	cmp	r3, #0
 8008858:	d0ef      	beq.n	800883a <_fflush_r+0xa>
 800885a:	6e62      	ldr	r2, [r4, #100]	; 0x64
 800885c:	07d0      	lsls	r0, r2, #31
 800885e:	d404      	bmi.n	800886a <_fflush_r+0x3a>
 8008860:	0599      	lsls	r1, r3, #22
 8008862:	d402      	bmi.n	800886a <_fflush_r+0x3a>
 8008864:	6da0      	ldr	r0, [r4, #88]	; 0x58
 8008866:	f000 f927 	bl	8008ab8 <__retarget_lock_acquire_recursive>
 800886a:	4628      	mov	r0, r5
 800886c:	4621      	mov	r1, r4
 800886e:	f7ff ff59 	bl	8008724 <__sflush_r>
 8008872:	6e63      	ldr	r3, [r4, #100]	; 0x64
 8008874:	07da      	lsls	r2, r3, #31
 8008876:	4605      	mov	r5, r0
 8008878:	d4e0      	bmi.n	800883c <_fflush_r+0xc>
 800887a:	89a3      	ldrh	r3, [r4, #12]
 800887c:	059b      	lsls	r3, r3, #22
 800887e:	d4dd      	bmi.n	800883c <_fflush_r+0xc>
 8008880:	6da0      	ldr	r0, [r4, #88]	; 0x58
 8008882:	f000 f91a 	bl	8008aba <__retarget_lock_release_recursive>
 8008886:	e7d9      	b.n	800883c <_fflush_r+0xc>
 8008888:	4b05      	ldr	r3, [pc, #20]	; (80088a0 <_fflush_r+0x70>)
 800888a:	429c      	cmp	r4, r3
 800888c:	d101      	bne.n	8008892 <_fflush_r+0x62>
 800888e:	68ac      	ldr	r4, [r5, #8]
 8008890:	e7df      	b.n	8008852 <_fflush_r+0x22>
 8008892:	4b04      	ldr	r3, [pc, #16]	; (80088a4 <_fflush_r+0x74>)
 8008894:	429c      	cmp	r4, r3
 8008896:	bf08      	it	eq
 8008898:	68ec      	ldreq	r4, [r5, #12]
 800889a:	e7da      	b.n	8008852 <_fflush_r+0x22>
 800889c:	08009664 	.word	0x08009664
 80088a0:	08009684 	.word	0x08009684
 80088a4:	08009644 	.word	0x08009644

080088a8 <std>:
 80088a8:	2300      	movs	r3, #0
 80088aa:	b510      	push	{r4, lr}
 80088ac:	4604      	mov	r4, r0
 80088ae:	e9c0 3300 	strd	r3, r3, [r0]
 80088b2:	e9c0 3304 	strd	r3, r3, [r0, #16]
 80088b6:	6083      	str	r3, [r0, #8]
 80088b8:	8181      	strh	r1, [r0, #12]
 80088ba:	6643      	str	r3, [r0, #100]	; 0x64
 80088bc:	81c2      	strh	r2, [r0, #14]
 80088be:	6183      	str	r3, [r0, #24]
 80088c0:	4619      	mov	r1, r3
 80088c2:	2208      	movs	r2, #8
 80088c4:	305c      	adds	r0, #92	; 0x5c
 80088c6:	f7fb fb71 	bl	8003fac <memset>
 80088ca:	4b05      	ldr	r3, [pc, #20]	; (80088e0 <std+0x38>)
 80088cc:	6263      	str	r3, [r4, #36]	; 0x24
 80088ce:	4b05      	ldr	r3, [pc, #20]	; (80088e4 <std+0x3c>)
 80088d0:	62a3      	str	r3, [r4, #40]	; 0x28
 80088d2:	4b05      	ldr	r3, [pc, #20]	; (80088e8 <std+0x40>)
 80088d4:	62e3      	str	r3, [r4, #44]	; 0x2c
 80088d6:	4b05      	ldr	r3, [pc, #20]	; (80088ec <std+0x44>)
 80088d8:	6224      	str	r4, [r4, #32]
 80088da:	6323      	str	r3, [r4, #48]	; 0x30
 80088dc:	bd10      	pop	{r4, pc}
 80088de:	bf00      	nop
 80088e0:	08004d55 	.word	0x08004d55
 80088e4:	08004d7b 	.word	0x08004d7b
 80088e8:	08004db3 	.word	0x08004db3
 80088ec:	08004dd7 	.word	0x08004dd7

080088f0 <_cleanup_r>:
 80088f0:	4901      	ldr	r1, [pc, #4]	; (80088f8 <_cleanup_r+0x8>)
 80088f2:	f000 b8c1 	b.w	8008a78 <_fwalk_reent>
 80088f6:	bf00      	nop
 80088f8:	08008831 	.word	0x08008831

080088fc <__sfmoreglue>:
 80088fc:	b570      	push	{r4, r5, r6, lr}
 80088fe:	2268      	movs	r2, #104	; 0x68
 8008900:	1e4d      	subs	r5, r1, #1
 8008902:	4355      	muls	r5, r2
 8008904:	460e      	mov	r6, r1
 8008906:	f105 0174 	add.w	r1, r5, #116	; 0x74
 800890a:	f7ff f8c5 	bl	8007a98 <_malloc_r>
 800890e:	4604      	mov	r4, r0
 8008910:	b140      	cbz	r0, 8008924 <__sfmoreglue+0x28>
 8008912:	2100      	movs	r1, #0
 8008914:	e9c0 1600 	strd	r1, r6, [r0]
 8008918:	300c      	adds	r0, #12
 800891a:	60a0      	str	r0, [r4, #8]
 800891c:	f105 0268 	add.w	r2, r5, #104	; 0x68
 8008920:	f7fb fb44 	bl	8003fac <memset>
 8008924:	4620      	mov	r0, r4
 8008926:	bd70      	pop	{r4, r5, r6, pc}

08008928 <__sfp_lock_acquire>:
 8008928:	4801      	ldr	r0, [pc, #4]	; (8008930 <__sfp_lock_acquire+0x8>)
 800892a:	f000 b8c5 	b.w	8008ab8 <__retarget_lock_acquire_recursive>
 800892e:	bf00      	nop
 8008930:	20000961 	.word	0x20000961

08008934 <__sfp_lock_release>:
 8008934:	4801      	ldr	r0, [pc, #4]	; (800893c <__sfp_lock_release+0x8>)
 8008936:	f000 b8c0 	b.w	8008aba <__retarget_lock_release_recursive>
 800893a:	bf00      	nop
 800893c:	20000961 	.word	0x20000961

08008940 <__sinit_lock_acquire>:
 8008940:	4801      	ldr	r0, [pc, #4]	; (8008948 <__sinit_lock_acquire+0x8>)
 8008942:	f000 b8b9 	b.w	8008ab8 <__retarget_lock_acquire_recursive>
 8008946:	bf00      	nop
 8008948:	20000962 	.word	0x20000962

0800894c <__sinit_lock_release>:
 800894c:	4801      	ldr	r0, [pc, #4]	; (8008954 <__sinit_lock_release+0x8>)
 800894e:	f000 b8b4 	b.w	8008aba <__retarget_lock_release_recursive>
 8008952:	bf00      	nop
 8008954:	20000962 	.word	0x20000962

08008958 <__sinit>:
 8008958:	b510      	push	{r4, lr}
 800895a:	4604      	mov	r4, r0
 800895c:	f7ff fff0 	bl	8008940 <__sinit_lock_acquire>
 8008960:	69a3      	ldr	r3, [r4, #24]
 8008962:	b11b      	cbz	r3, 800896c <__sinit+0x14>
 8008964:	e8bd 4010 	ldmia.w	sp!, {r4, lr}
 8008968:	f7ff bff0 	b.w	800894c <__sinit_lock_release>
 800896c:	e9c4 3312 	strd	r3, r3, [r4, #72]	; 0x48
 8008970:	6523      	str	r3, [r4, #80]	; 0x50
 8008972:	4b13      	ldr	r3, [pc, #76]	; (80089c0 <__sinit+0x68>)
 8008974:	4a13      	ldr	r2, [pc, #76]	; (80089c4 <__sinit+0x6c>)
 8008976:	681b      	ldr	r3, [r3, #0]
 8008978:	62a2      	str	r2, [r4, #40]	; 0x28
 800897a:	42a3      	cmp	r3, r4
 800897c:	bf04      	itt	eq
 800897e:	2301      	moveq	r3, #1
 8008980:	61a3      	streq	r3, [r4, #24]
 8008982:	4620      	mov	r0, r4
 8008984:	f000 f820 	bl	80089c8 <__sfp>
 8008988:	6060      	str	r0, [r4, #4]
 800898a:	4620      	mov	r0, r4
 800898c:	f000 f81c 	bl	80089c8 <__sfp>
 8008990:	60a0      	str	r0, [r4, #8]
 8008992:	4620      	mov	r0, r4
 8008994:	f000 f818 	bl	80089c8 <__sfp>
 8008998:	2200      	movs	r2, #0
 800899a:	60e0      	str	r0, [r4, #12]
 800899c:	2104      	movs	r1, #4
 800899e:	6860      	ldr	r0, [r4, #4]
 80089a0:	f7ff ff82 	bl	80088a8 <std>
 80089a4:	68a0      	ldr	r0, [r4, #8]
 80089a6:	2201      	movs	r2, #1
 80089a8:	2109      	movs	r1, #9
 80089aa:	f7ff ff7d 	bl	80088a8 <std>
 80089ae:	68e0      	ldr	r0, [r4, #12]
 80089b0:	2202      	movs	r2, #2
 80089b2:	2112      	movs	r1, #18
 80089b4:	f7ff ff78 	bl	80088a8 <std>
 80089b8:	2301      	movs	r3, #1
 80089ba:	61a3      	str	r3, [r4, #24]
 80089bc:	e7d2      	b.n	8008964 <__sinit+0xc>
 80089be:	bf00      	nop
 80089c0:	080091e8 	.word	0x080091e8
 80089c4:	080088f1 	.word	0x080088f1

080089c8 <__sfp>:
 80089c8:	b5f8      	push	{r3, r4, r5, r6, r7, lr}
 80089ca:	4607      	mov	r7, r0
 80089cc:	f7ff ffac 	bl	8008928 <__sfp_lock_acquire>
 80089d0:	4b1e      	ldr	r3, [pc, #120]	; (8008a4c <__sfp+0x84>)
 80089d2:	681e      	ldr	r6, [r3, #0]
 80089d4:	69b3      	ldr	r3, [r6, #24]
 80089d6:	b913      	cbnz	r3, 80089de <__sfp+0x16>
 80089d8:	4630      	mov	r0, r6
 80089da:	f7ff ffbd 	bl	8008958 <__sinit>
 80089de:	3648      	adds	r6, #72	; 0x48
 80089e0:	e9d6 3401 	ldrd	r3, r4, [r6, #4]
 80089e4:	3b01      	subs	r3, #1
 80089e6:	d503      	bpl.n	80089f0 <__sfp+0x28>
 80089e8:	6833      	ldr	r3, [r6, #0]
 80089ea:	b30b      	cbz	r3, 8008a30 <__sfp+0x68>
 80089ec:	6836      	ldr	r6, [r6, #0]
 80089ee:	e7f7      	b.n	80089e0 <__sfp+0x18>
 80089f0:	f9b4 500c 	ldrsh.w	r5, [r4, #12]
 80089f4:	b9d5      	cbnz	r5, 8008a2c <__sfp+0x64>
 80089f6:	4b16      	ldr	r3, [pc, #88]	; (8008a50 <__sfp+0x88>)
 80089f8:	60e3      	str	r3, [r4, #12]
 80089fa:	f104 0058 	add.w	r0, r4, #88	; 0x58
 80089fe:	6665      	str	r5, [r4, #100]	; 0x64
 8008a00:	f000 f859 	bl	8008ab6 <__retarget_lock_init_recursive>
 8008a04:	f7ff ff96 	bl	8008934 <__sfp_lock_release>
 8008a08:	e9c4 5501 	strd	r5, r5, [r4, #4]
 8008a0c:	e9c4 5504 	strd	r5, r5, [r4, #16]
 8008a10:	6025      	str	r5, [r4, #0]
 8008a12:	61a5      	str	r5, [r4, #24]
 8008a14:	2208      	movs	r2, #8
 8008a16:	4629      	mov	r1, r5
 8008a18:	f104 005c 	add.w	r0, r4, #92	; 0x5c
 8008a1c:	f7fb fac6 	bl	8003fac <memset>
 8008a20:	e9c4 550d 	strd	r5, r5, [r4, #52]	; 0x34
 8008a24:	e9c4 5512 	strd	r5, r5, [r4, #72]	; 0x48
 8008a28:	4620      	mov	r0, r4
 8008a2a:	bdf8      	pop	{r3, r4, r5, r6, r7, pc}
 8008a2c:	3468      	adds	r4, #104	; 0x68
 8008a2e:	e7d9      	b.n	80089e4 <__sfp+0x1c>
 8008a30:	2104      	movs	r1, #4
 8008a32:	4638      	mov	r0, r7
 8008a34:	f7ff ff62 	bl	80088fc <__sfmoreglue>
 8008a38:	4604      	mov	r4, r0
 8008a3a:	6030      	str	r0, [r6, #0]
 8008a3c:	2800      	cmp	r0, #0
 8008a3e:	d1d5      	bne.n	80089ec <__sfp+0x24>
 8008a40:	f7ff ff78 	bl	8008934 <__sfp_lock_release>
 8008a44:	230c      	movs	r3, #12
 8008a46:	603b      	str	r3, [r7, #0]
 8008a48:	e7ee      	b.n	8008a28 <__sfp+0x60>
 8008a4a:	bf00      	nop
 8008a4c:	080091e8 	.word	0x080091e8
 8008a50:	ffff0001 	.word	0xffff0001

08008a54 <fiprintf>:
 8008a54:	b40e      	push	{r1, r2, r3}
 8008a56:	b503      	push	{r0, r1, lr}
 8008a58:	4601      	mov	r1, r0
 8008a5a:	ab03      	add	r3, sp, #12
 8008a5c:	4805      	ldr	r0, [pc, #20]	; (8008a74 <fiprintf+0x20>)
 8008a5e:	f853 2b04 	ldr.w	r2, [r3], #4
 8008a62:	6800      	ldr	r0, [r0, #0]
 8008a64:	9301      	str	r3, [sp, #4]
 8008a66:	f000 f8a7 	bl	8008bb8 <_vfiprintf_r>
 8008a6a:	b002      	add	sp, #8
 8008a6c:	f85d eb04 	ldr.w	lr, [sp], #4
 8008a70:	b003      	add	sp, #12
 8008a72:	4770      	bx	lr
 8008a74:	2000000c 	.word	0x2000000c

08008a78 <_fwalk_reent>:
 8008a78:	e92d 43f8 	stmdb	sp!, {r3, r4, r5, r6, r7, r8, r9, lr}
 8008a7c:	4606      	mov	r6, r0
 8008a7e:	4688      	mov	r8, r1
 8008a80:	f100 0448 	add.w	r4, r0, #72	; 0x48
 8008a84:	2700      	movs	r7, #0
 8008a86:	e9d4 9501 	ldrd	r9, r5, [r4, #4]
 8008a8a:	f1b9 0901 	subs.w	r9, r9, #1
 8008a8e:	d505      	bpl.n	8008a9c <_fwalk_reent+0x24>
 8008a90:	6824      	ldr	r4, [r4, #0]
 8008a92:	2c00      	cmp	r4, #0
 8008a94:	d1f7      	bne.n	8008a86 <_fwalk_reent+0xe>
 8008a96:	4638      	mov	r0, r7
 8008a98:	e8bd 83f8 	ldmia.w	sp!, {r3, r4, r5, r6, r7, r8, r9, pc}
 8008a9c:	89ab      	ldrh	r3, [r5, #12]
 8008a9e:	2b01      	cmp	r3, #1
 8008aa0:	d907      	bls.n	8008ab2 <_fwalk_reent+0x3a>
 8008aa2:	f9b5 300e 	ldrsh.w	r3, [r5, #14]
 8008aa6:	3301      	adds	r3, #1
 8008aa8:	d003      	beq.n	8008ab2 <_fwalk_reent+0x3a>
 8008aaa:	4629      	mov	r1, r5
 8008aac:	4630      	mov	r0, r6
 8008aae:	47c0      	blx	r8
 8008ab0:	4307      	orrs	r7, r0
 8008ab2:	3568      	adds	r5, #104	; 0x68
 8008ab4:	e7e9      	b.n	8008a8a <_fwalk_reent+0x12>

08008ab6 <__retarget_lock_init_recursive>:
 8008ab6:	4770      	bx	lr

08008ab8 <__retarget_lock_acquire_recursive>:
 8008ab8:	4770      	bx	lr

08008aba <__retarget_lock_release_recursive>:
 8008aba:	4770      	bx	lr

08008abc <memmove>:
 8008abc:	4288      	cmp	r0, r1
 8008abe:	b510      	push	{r4, lr}
 8008ac0:	eb01 0402 	add.w	r4, r1, r2
 8008ac4:	d902      	bls.n	8008acc <memmove+0x10>
 8008ac6:	4284      	cmp	r4, r0
 8008ac8:	4623      	mov	r3, r4
 8008aca:	d807      	bhi.n	8008adc <memmove+0x20>
 8008acc:	1e43      	subs	r3, r0, #1
 8008ace:	42a1      	cmp	r1, r4
 8008ad0:	d008      	beq.n	8008ae4 <memmove+0x28>
 8008ad2:	f811 2b01 	ldrb.w	r2, [r1], #1
 8008ad6:	f803 2f01 	strb.w	r2, [r3, #1]!
 8008ada:	e7f8      	b.n	8008ace <memmove+0x12>
 8008adc:	4402      	add	r2, r0
 8008ade:	4601      	mov	r1, r0
 8008ae0:	428a      	cmp	r2, r1
 8008ae2:	d100      	bne.n	8008ae6 <memmove+0x2a>
 8008ae4:	bd10      	pop	{r4, pc}
 8008ae6:	f813 4d01 	ldrb.w	r4, [r3, #-1]!
 8008aea:	f802 4d01 	strb.w	r4, [r2, #-1]!
 8008aee:	e7f7      	b.n	8008ae0 <memmove+0x24>

08008af0 <__malloc_lock>:
 8008af0:	4801      	ldr	r0, [pc, #4]	; (8008af8 <__malloc_lock+0x8>)
 8008af2:	f7ff bfe1 	b.w	8008ab8 <__retarget_lock_acquire_recursive>
 8008af6:	bf00      	nop
 8008af8:	20000960 	.word	0x20000960

08008afc <__malloc_unlock>:
 8008afc:	4801      	ldr	r0, [pc, #4]	; (8008b04 <__malloc_unlock+0x8>)
 8008afe:	f7ff bfdc 	b.w	8008aba <__retarget_lock_release_recursive>
 8008b02:	bf00      	nop
 8008b04:	20000960 	.word	0x20000960

08008b08 <_realloc_r>:
 8008b08:	e92d 41f0 	stmdb	sp!, {r4, r5, r6, r7, r8, lr}
 8008b0c:	4680      	mov	r8, r0
 8008b0e:	4614      	mov	r4, r2
 8008b10:	460e      	mov	r6, r1
 8008b12:	b921      	cbnz	r1, 8008b1e <_realloc_r+0x16>
 8008b14:	e8bd 41f0 	ldmia.w	sp!, {r4, r5, r6, r7, r8, lr}
 8008b18:	4611      	mov	r1, r2
 8008b1a:	f7fe bfbd 	b.w	8007a98 <_malloc_r>
 8008b1e:	b92a      	cbnz	r2, 8008b2c <_realloc_r+0x24>
 8008b20:	f7fe ff4e 	bl	80079c0 <_free_r>
 8008b24:	4625      	mov	r5, r4
 8008b26:	4628      	mov	r0, r5
 8008b28:	e8bd 81f0 	ldmia.w	sp!, {r4, r5, r6, r7, r8, pc}
 8008b2c:	f000 faa0 	bl	8009070 <_malloc_usable_size_r>
 8008b30:	4284      	cmp	r4, r0
 8008b32:	4607      	mov	r7, r0
 8008b34:	d802      	bhi.n	8008b3c <_realloc_r+0x34>
 8008b36:	ebb4 0f50 	cmp.w	r4, r0, lsr #1
 8008b3a:	d812      	bhi.n	8008b62 <_realloc_r+0x5a>
 8008b3c:	4621      	mov	r1, r4
 8008b3e:	4640      	mov	r0, r8
 8008b40:	f7fe ffaa 	bl	8007a98 <_malloc_r>
 8008b44:	4605      	mov	r5, r0
 8008b46:	2800      	cmp	r0, #0
 8008b48:	d0ed      	beq.n	8008b26 <_realloc_r+0x1e>
 8008b4a:	42bc      	cmp	r4, r7
 8008b4c:	4622      	mov	r2, r4
 8008b4e:	4631      	mov	r1, r6
 8008b50:	bf28      	it	cs
 8008b52:	463a      	movcs	r2, r7
 8008b54:	f7fe fa4e 	bl	8006ff4 <memcpy>
 8008b58:	4631      	mov	r1, r6
 8008b5a:	4640      	mov	r0, r8
 8008b5c:	f7fe ff30 	bl	80079c0 <_free_r>
 8008b60:	e7e1      	b.n	8008b26 <_realloc_r+0x1e>
 8008b62:	4635      	mov	r5, r6
 8008b64:	e7df      	b.n	8008b26 <_realloc_r+0x1e>

08008b66 <__sfputc_r>:
 8008b66:	6893      	ldr	r3, [r2, #8]
 8008b68:	3b01      	subs	r3, #1
 8008b6a:	2b00      	cmp	r3, #0
 8008b6c:	b410      	push	{r4}
 8008b6e:	6093      	str	r3, [r2, #8]
 8008b70:	da08      	bge.n	8008b84 <__sfputc_r+0x1e>
 8008b72:	6994      	ldr	r4, [r2, #24]
 8008b74:	42a3      	cmp	r3, r4
 8008b76:	db01      	blt.n	8008b7c <__sfputc_r+0x16>
 8008b78:	290a      	cmp	r1, #10
 8008b7a:	d103      	bne.n	8008b84 <__sfputc_r+0x1e>
 8008b7c:	f85d 4b04 	ldr.w	r4, [sp], #4
 8008b80:	f000 b94a 	b.w	8008e18 <__swbuf_r>
 8008b84:	6813      	ldr	r3, [r2, #0]
 8008b86:	1c58      	adds	r0, r3, #1
 8008b88:	6010      	str	r0, [r2, #0]
 8008b8a:	7019      	strb	r1, [r3, #0]
 8008b8c:	4608      	mov	r0, r1
 8008b8e:	f85d 4b04 	ldr.w	r4, [sp], #4
 8008b92:	4770      	bx	lr

08008b94 <__sfputs_r>:
 8008b94:	b5f8      	push	{r3, r4, r5, r6, r7, lr}
 8008b96:	4606      	mov	r6, r0
 8008b98:	460f      	mov	r7, r1
 8008b9a:	4614      	mov	r4, r2
 8008b9c:	18d5      	adds	r5, r2, r3
 8008b9e:	42ac      	cmp	r4, r5
 8008ba0:	d101      	bne.n	8008ba6 <__sfputs_r+0x12>
 8008ba2:	2000      	movs	r0, #0
 8008ba4:	e007      	b.n	8008bb6 <__sfputs_r+0x22>
 8008ba6:	f814 1b01 	ldrb.w	r1, [r4], #1
 8008baa:	463a      	mov	r2, r7
 8008bac:	4630      	mov	r0, r6
 8008bae:	f7ff ffda 	bl	8008b66 <__sfputc_r>
 8008bb2:	1c43      	adds	r3, r0, #1
 8008bb4:	d1f3      	bne.n	8008b9e <__sfputs_r+0xa>
 8008bb6:	bdf8      	pop	{r3, r4, r5, r6, r7, pc}

08008bb8 <_vfiprintf_r>:
 8008bb8:	e92d 4ff0 	stmdb	sp!, {r4, r5, r6, r7, r8, r9, sl, fp, lr}
 8008bbc:	460d      	mov	r5, r1
 8008bbe:	b09d      	sub	sp, #116	; 0x74
 8008bc0:	4614      	mov	r4, r2
 8008bc2:	4698      	mov	r8, r3
 8008bc4:	4606      	mov	r6, r0
 8008bc6:	b118      	cbz	r0, 8008bd0 <_vfiprintf_r+0x18>
 8008bc8:	6983      	ldr	r3, [r0, #24]
 8008bca:	b90b      	cbnz	r3, 8008bd0 <_vfiprintf_r+0x18>
 8008bcc:	f7ff fec4 	bl	8008958 <__sinit>
 8008bd0:	4b89      	ldr	r3, [pc, #548]	; (8008df8 <_vfiprintf_r+0x240>)
 8008bd2:	429d      	cmp	r5, r3
 8008bd4:	d11b      	bne.n	8008c0e <_vfiprintf_r+0x56>
 8008bd6:	6875      	ldr	r5, [r6, #4]
 8008bd8:	6e6b      	ldr	r3, [r5, #100]	; 0x64
 8008bda:	07d9      	lsls	r1, r3, #31
 8008bdc:	d405      	bmi.n	8008bea <_vfiprintf_r+0x32>
 8008bde:	89ab      	ldrh	r3, [r5, #12]
 8008be0:	059a      	lsls	r2, r3, #22
 8008be2:	d402      	bmi.n	8008bea <_vfiprintf_r+0x32>
 8008be4:	6da8      	ldr	r0, [r5, #88]	; 0x58
 8008be6:	f7ff ff67 	bl	8008ab8 <__retarget_lock_acquire_recursive>
 8008bea:	89ab      	ldrh	r3, [r5, #12]
 8008bec:	071b      	lsls	r3, r3, #28
 8008bee:	d501      	bpl.n	8008bf4 <_vfiprintf_r+0x3c>
 8008bf0:	692b      	ldr	r3, [r5, #16]
 8008bf2:	b9eb      	cbnz	r3, 8008c30 <_vfiprintf_r+0x78>
 8008bf4:	4629      	mov	r1, r5
 8008bf6:	4630      	mov	r0, r6
 8008bf8:	f000 f960 	bl	8008ebc <__swsetup_r>
 8008bfc:	b1c0      	cbz	r0, 8008c30 <_vfiprintf_r+0x78>
 8008bfe:	6e6b      	ldr	r3, [r5, #100]	; 0x64
 8008c00:	07dc      	lsls	r4, r3, #31
 8008c02:	d50e      	bpl.n	8008c22 <_vfiprintf_r+0x6a>
 8008c04:	f04f 30ff 	mov.w	r0, #4294967295
 8008c08:	b01d      	add	sp, #116	; 0x74
 8008c0a:	e8bd 8ff0 	ldmia.w	sp!, {r4, r5, r6, r7, r8, r9, sl, fp, pc}
 8008c0e:	4b7b      	ldr	r3, [pc, #492]	; (8008dfc <_vfiprintf_r+0x244>)
 8008c10:	429d      	cmp	r5, r3
 8008c12:	d101      	bne.n	8008c18 <_vfiprintf_r+0x60>
 8008c14:	68b5      	ldr	r5, [r6, #8]
 8008c16:	e7df      	b.n	8008bd8 <_vfiprintf_r+0x20>
 8008c18:	4b79      	ldr	r3, [pc, #484]	; (8008e00 <_vfiprintf_r+0x248>)
 8008c1a:	429d      	cmp	r5, r3
 8008c1c:	bf08      	it	eq
 8008c1e:	68f5      	ldreq	r5, [r6, #12]
 8008c20:	e7da      	b.n	8008bd8 <_vfiprintf_r+0x20>
 8008c22:	89ab      	ldrh	r3, [r5, #12]
 8008c24:	0598      	lsls	r0, r3, #22
 8008c26:	d4ed      	bmi.n	8008c04 <_vfiprintf_r+0x4c>
 8008c28:	6da8      	ldr	r0, [r5, #88]	; 0x58
 8008c2a:	f7ff ff46 	bl	8008aba <__retarget_lock_release_recursive>
 8008c2e:	e7e9      	b.n	8008c04 <_vfiprintf_r+0x4c>
 8008c30:	2300      	movs	r3, #0
 8008c32:	9309      	str	r3, [sp, #36]	; 0x24
 8008c34:	2320      	movs	r3, #32
 8008c36:	f88d 3029 	strb.w	r3, [sp, #41]	; 0x29
 8008c3a:	f8cd 800c 	str.w	r8, [sp, #12]
 8008c3e:	2330      	movs	r3, #48	; 0x30
 8008c40:	f8df 81c0 	ldr.w	r8, [pc, #448]	; 8008e04 <_vfiprintf_r+0x24c>
 8008c44:	f88d 302a 	strb.w	r3, [sp, #42]	; 0x2a
 8008c48:	f04f 0901 	mov.w	r9, #1
 8008c4c:	4623      	mov	r3, r4
 8008c4e:	469a      	mov	sl, r3
 8008c50:	f813 2b01 	ldrb.w	r2, [r3], #1
 8008c54:	b10a      	cbz	r2, 8008c5a <_vfiprintf_r+0xa2>
 8008c56:	2a25      	cmp	r2, #37	; 0x25
 8008c58:	d1f9      	bne.n	8008c4e <_vfiprintf_r+0x96>
 8008c5a:	ebba 0b04 	subs.w	fp, sl, r4
 8008c5e:	d00b      	beq.n	8008c78 <_vfiprintf_r+0xc0>
 8008c60:	465b      	mov	r3, fp
 8008c62:	4622      	mov	r2, r4
 8008c64:	4629      	mov	r1, r5
 8008c66:	4630      	mov	r0, r6
 8008c68:	f7ff ff94 	bl	8008b94 <__sfputs_r>
 8008c6c:	3001      	adds	r0, #1
 8008c6e:	f000 80aa 	beq.w	8008dc6 <_vfiprintf_r+0x20e>
 8008c72:	9a09      	ldr	r2, [sp, #36]	; 0x24
 8008c74:	445a      	add	r2, fp
 8008c76:	9209      	str	r2, [sp, #36]	; 0x24
 8008c78:	f89a 3000 	ldrb.w	r3, [sl]
 8008c7c:	2b00      	cmp	r3, #0
 8008c7e:	f000 80a2 	beq.w	8008dc6 <_vfiprintf_r+0x20e>
 8008c82:	2300      	movs	r3, #0
 8008c84:	f04f 32ff 	mov.w	r2, #4294967295
 8008c88:	e9cd 2305 	strd	r2, r3, [sp, #20]
 8008c8c:	f10a 0a01 	add.w	sl, sl, #1
 8008c90:	9304      	str	r3, [sp, #16]
 8008c92:	9307      	str	r3, [sp, #28]
 8008c94:	f88d 3053 	strb.w	r3, [sp, #83]	; 0x53
 8008c98:	931a      	str	r3, [sp, #104]	; 0x68
 8008c9a:	4654      	mov	r4, sl
 8008c9c:	2205      	movs	r2, #5
 8008c9e:	f814 1b01 	ldrb.w	r1, [r4], #1
 8008ca2:	4858      	ldr	r0, [pc, #352]	; (8008e04 <_vfiprintf_r+0x24c>)
 8008ca4:	f7f7 fabc 	bl	8000220 <memchr>
 8008ca8:	9a04      	ldr	r2, [sp, #16]
 8008caa:	b9d8      	cbnz	r0, 8008ce4 <_vfiprintf_r+0x12c>
 8008cac:	06d1      	lsls	r1, r2, #27
 8008cae:	bf44      	itt	mi
 8008cb0:	2320      	movmi	r3, #32
 8008cb2:	f88d 3053 	strbmi.w	r3, [sp, #83]	; 0x53
 8008cb6:	0713      	lsls	r3, r2, #28
 8008cb8:	bf44      	itt	mi
 8008cba:	232b      	movmi	r3, #43	; 0x2b
 8008cbc:	f88d 3053 	strbmi.w	r3, [sp, #83]	; 0x53
 8008cc0:	f89a 3000 	ldrb.w	r3, [sl]
 8008cc4:	2b2a      	cmp	r3, #42	; 0x2a
 8008cc6:	d015      	beq.n	8008cf4 <_vfiprintf_r+0x13c>
 8008cc8:	9a07      	ldr	r2, [sp, #28]
 8008cca:	4654      	mov	r4, sl
 8008ccc:	2000      	movs	r0, #0
 8008cce:	f04f 0c0a 	mov.w	ip, #10
 8008cd2:	4621      	mov	r1, r4
 8008cd4:	f811 3b01 	ldrb.w	r3, [r1], #1
 8008cd8:	3b30      	subs	r3, #48	; 0x30
 8008cda:	2b09      	cmp	r3, #9
 8008cdc:	d94e      	bls.n	8008d7c <_vfiprintf_r+0x1c4>
 8008cde:	b1b0      	cbz	r0, 8008d0e <_vfiprintf_r+0x156>
 8008ce0:	9207      	str	r2, [sp, #28]
 8008ce2:	e014      	b.n	8008d0e <_vfiprintf_r+0x156>
 8008ce4:	eba0 0308 	sub.w	r3, r0, r8
 8008ce8:	fa09 f303 	lsl.w	r3, r9, r3
 8008cec:	4313      	orrs	r3, r2
 8008cee:	9304      	str	r3, [sp, #16]
 8008cf0:	46a2      	mov	sl, r4
 8008cf2:	e7d2      	b.n	8008c9a <_vfiprintf_r+0xe2>
 8008cf4:	9b03      	ldr	r3, [sp, #12]
 8008cf6:	1d19      	adds	r1, r3, #4
 8008cf8:	681b      	ldr	r3, [r3, #0]
 8008cfa:	9103      	str	r1, [sp, #12]
 8008cfc:	2b00      	cmp	r3, #0
 8008cfe:	bfbb      	ittet	lt
 8008d00:	425b      	neglt	r3, r3
 8008d02:	f042 0202 	orrlt.w	r2, r2, #2
 8008d06:	9307      	strge	r3, [sp, #28]
 8008d08:	9307      	strlt	r3, [sp, #28]
 8008d0a:	bfb8      	it	lt
 8008d0c:	9204      	strlt	r2, [sp, #16]
 8008d0e:	7823      	ldrb	r3, [r4, #0]
 8008d10:	2b2e      	cmp	r3, #46	; 0x2e
 8008d12:	d10c      	bne.n	8008d2e <_vfiprintf_r+0x176>
 8008d14:	7863      	ldrb	r3, [r4, #1]
 8008d16:	2b2a      	cmp	r3, #42	; 0x2a
 8008d18:	d135      	bne.n	8008d86 <_vfiprintf_r+0x1ce>
 8008d1a:	9b03      	ldr	r3, [sp, #12]
 8008d1c:	1d1a      	adds	r2, r3, #4
 8008d1e:	681b      	ldr	r3, [r3, #0]
 8008d20:	9203      	str	r2, [sp, #12]
 8008d22:	2b00      	cmp	r3, #0
 8008d24:	bfb8      	it	lt
 8008d26:	f04f 33ff 	movlt.w	r3, #4294967295
 8008d2a:	3402      	adds	r4, #2
 8008d2c:	9305      	str	r3, [sp, #20]
 8008d2e:	f8df a0e4 	ldr.w	sl, [pc, #228]	; 8008e14 <_vfiprintf_r+0x25c>
 8008d32:	7821      	ldrb	r1, [r4, #0]
 8008d34:	2203      	movs	r2, #3
 8008d36:	4650      	mov	r0, sl
 8008d38:	f7f7 fa72 	bl	8000220 <memchr>
 8008d3c:	b140      	cbz	r0, 8008d50 <_vfiprintf_r+0x198>
 8008d3e:	2340      	movs	r3, #64	; 0x40
 8008d40:	eba0 000a 	sub.w	r0, r0, sl
 8008d44:	fa03 f000 	lsl.w	r0, r3, r0
 8008d48:	9b04      	ldr	r3, [sp, #16]
 8008d4a:	4303      	orrs	r3, r0
 8008d4c:	3401      	adds	r4, #1
 8008d4e:	9304      	str	r3, [sp, #16]
 8008d50:	f814 1b01 	ldrb.w	r1, [r4], #1
 8008d54:	482c      	ldr	r0, [pc, #176]	; (8008e08 <_vfiprintf_r+0x250>)
 8008d56:	f88d 1028 	strb.w	r1, [sp, #40]	; 0x28
 8008d5a:	2206      	movs	r2, #6
 8008d5c:	f7f7 fa60 	bl	8000220 <memchr>
 8008d60:	2800      	cmp	r0, #0
 8008d62:	d03f      	beq.n	8008de4 <_vfiprintf_r+0x22c>
 8008d64:	4b29      	ldr	r3, [pc, #164]	; (8008e0c <_vfiprintf_r+0x254>)
 8008d66:	bb1b      	cbnz	r3, 8008db0 <_vfiprintf_r+0x1f8>
 8008d68:	9b03      	ldr	r3, [sp, #12]
 8008d6a:	3307      	adds	r3, #7
 8008d6c:	f023 0307 	bic.w	r3, r3, #7
 8008d70:	3308      	adds	r3, #8
 8008d72:	9303      	str	r3, [sp, #12]
 8008d74:	9b09      	ldr	r3, [sp, #36]	; 0x24
 8008d76:	443b      	add	r3, r7
 8008d78:	9309      	str	r3, [sp, #36]	; 0x24
 8008d7a:	e767      	b.n	8008c4c <_vfiprintf_r+0x94>
 8008d7c:	fb0c 3202 	mla	r2, ip, r2, r3
 8008d80:	460c      	mov	r4, r1
 8008d82:	2001      	movs	r0, #1
 8008d84:	e7a5      	b.n	8008cd2 <_vfiprintf_r+0x11a>
 8008d86:	2300      	movs	r3, #0
 8008d88:	3401      	adds	r4, #1
 8008d8a:	9305      	str	r3, [sp, #20]
 8008d8c:	4619      	mov	r1, r3
 8008d8e:	f04f 0c0a 	mov.w	ip, #10
 8008d92:	4620      	mov	r0, r4
 8008d94:	f810 2b01 	ldrb.w	r2, [r0], #1
 8008d98:	3a30      	subs	r2, #48	; 0x30
 8008d9a:	2a09      	cmp	r2, #9
 8008d9c:	d903      	bls.n	8008da6 <_vfiprintf_r+0x1ee>
 8008d9e:	2b00      	cmp	r3, #0
 8008da0:	d0c5      	beq.n	8008d2e <_vfiprintf_r+0x176>
 8008da2:	9105      	str	r1, [sp, #20]
 8008da4:	e7c3      	b.n	8008d2e <_vfiprintf_r+0x176>
 8008da6:	fb0c 2101 	mla	r1, ip, r1, r2
 8008daa:	4604      	mov	r4, r0
 8008dac:	2301      	movs	r3, #1
 8008dae:	e7f0      	b.n	8008d92 <_vfiprintf_r+0x1da>
 8008db0:	ab03      	add	r3, sp, #12
 8008db2:	9300      	str	r3, [sp, #0]
 8008db4:	462a      	mov	r2, r5
 8008db6:	4b16      	ldr	r3, [pc, #88]	; (8008e10 <_vfiprintf_r+0x258>)
 8008db8:	a904      	add	r1, sp, #16
 8008dba:	4630      	mov	r0, r6
 8008dbc:	f7fb f99e 	bl	80040fc <_printf_float>
 8008dc0:	4607      	mov	r7, r0
 8008dc2:	1c78      	adds	r0, r7, #1
 8008dc4:	d1d6      	bne.n	8008d74 <_vfiprintf_r+0x1bc>
 8008dc6:	6e6b      	ldr	r3, [r5, #100]	; 0x64
 8008dc8:	07d9      	lsls	r1, r3, #31
 8008dca:	d405      	bmi.n	8008dd8 <_vfiprintf_r+0x220>
 8008dcc:	89ab      	ldrh	r3, [r5, #12]
 8008dce:	059a      	lsls	r2, r3, #22
 8008dd0:	d402      	bmi.n	8008dd8 <_vfiprintf_r+0x220>
 8008dd2:	6da8      	ldr	r0, [r5, #88]	; 0x58
 8008dd4:	f7ff fe71 	bl	8008aba <__retarget_lock_release_recursive>
 8008dd8:	89ab      	ldrh	r3, [r5, #12]
 8008dda:	065b      	lsls	r3, r3, #25
 8008ddc:	f53f af12 	bmi.w	8008c04 <_vfiprintf_r+0x4c>
 8008de0:	9809      	ldr	r0, [sp, #36]	; 0x24
 8008de2:	e711      	b.n	8008c08 <_vfiprintf_r+0x50>
 8008de4:	ab03      	add	r3, sp, #12
 8008de6:	9300      	str	r3, [sp, #0]
 8008de8:	462a      	mov	r2, r5
 8008dea:	4b09      	ldr	r3, [pc, #36]	; (8008e10 <_vfiprintf_r+0x258>)
 8008dec:	a904      	add	r1, sp, #16
 8008dee:	4630      	mov	r0, r6
 8008df0:	f7fb fc28 	bl	8004644 <_printf_i>
 8008df4:	e7e4      	b.n	8008dc0 <_vfiprintf_r+0x208>
 8008df6:	bf00      	nop
 8008df8:	08009664 	.word	0x08009664
 8008dfc:	08009684 	.word	0x08009684
 8008e00:	08009644 	.word	0x08009644
 8008e04:	080095dc 	.word	0x080095dc
 8008e08:	080095e6 	.word	0x080095e6
 8008e0c:	080040fd 	.word	0x080040fd
 8008e10:	08008b95 	.word	0x08008b95
 8008e14:	080095e2 	.word	0x080095e2

08008e18 <__swbuf_r>:
 8008e18:	b5f8      	push	{r3, r4, r5, r6, r7, lr}
 8008e1a:	460e      	mov	r6, r1
 8008e1c:	4614      	mov	r4, r2
 8008e1e:	4605      	mov	r5, r0
 8008e20:	b118      	cbz	r0, 8008e2a <__swbuf_r+0x12>
 8008e22:	6983      	ldr	r3, [r0, #24]
 8008e24:	b90b      	cbnz	r3, 8008e2a <__swbuf_r+0x12>
 8008e26:	f7ff fd97 	bl	8008958 <__sinit>
 8008e2a:	4b21      	ldr	r3, [pc, #132]	; (8008eb0 <__swbuf_r+0x98>)
 8008e2c:	429c      	cmp	r4, r3
 8008e2e:	d12b      	bne.n	8008e88 <__swbuf_r+0x70>
 8008e30:	686c      	ldr	r4, [r5, #4]
 8008e32:	69a3      	ldr	r3, [r4, #24]
 8008e34:	60a3      	str	r3, [r4, #8]
 8008e36:	89a3      	ldrh	r3, [r4, #12]
 8008e38:	071a      	lsls	r2, r3, #28
 8008e3a:	d52f      	bpl.n	8008e9c <__swbuf_r+0x84>
 8008e3c:	6923      	ldr	r3, [r4, #16]
 8008e3e:	b36b      	cbz	r3, 8008e9c <__swbuf_r+0x84>
 8008e40:	6923      	ldr	r3, [r4, #16]
 8008e42:	6820      	ldr	r0, [r4, #0]
 8008e44:	1ac0      	subs	r0, r0, r3
 8008e46:	6963      	ldr	r3, [r4, #20]
 8008e48:	b2f6      	uxtb	r6, r6
 8008e4a:	4283      	cmp	r3, r0
 8008e4c:	4637      	mov	r7, r6
 8008e4e:	dc04      	bgt.n	8008e5a <__swbuf_r+0x42>
 8008e50:	4621      	mov	r1, r4
 8008e52:	4628      	mov	r0, r5
 8008e54:	f7ff fcec 	bl	8008830 <_fflush_r>
 8008e58:	bb30      	cbnz	r0, 8008ea8 <__swbuf_r+0x90>
 8008e5a:	68a3      	ldr	r3, [r4, #8]
 8008e5c:	3b01      	subs	r3, #1
 8008e5e:	60a3      	str	r3, [r4, #8]
 8008e60:	6823      	ldr	r3, [r4, #0]
 8008e62:	1c5a      	adds	r2, r3, #1
 8008e64:	6022      	str	r2, [r4, #0]
 8008e66:	701e      	strb	r6, [r3, #0]
 8008e68:	6963      	ldr	r3, [r4, #20]
 8008e6a:	3001      	adds	r0, #1
 8008e6c:	4283      	cmp	r3, r0
 8008e6e:	d004      	beq.n	8008e7a <__swbuf_r+0x62>
 8008e70:	89a3      	ldrh	r3, [r4, #12]
 8008e72:	07db      	lsls	r3, r3, #31
 8008e74:	d506      	bpl.n	8008e84 <__swbuf_r+0x6c>
 8008e76:	2e0a      	cmp	r6, #10
 8008e78:	d104      	bne.n	8008e84 <__swbuf_r+0x6c>
 8008e7a:	4621      	mov	r1, r4
 8008e7c:	4628      	mov	r0, r5
 8008e7e:	f7ff fcd7 	bl	8008830 <_fflush_r>
 8008e82:	b988      	cbnz	r0, 8008ea8 <__swbuf_r+0x90>
 8008e84:	4638      	mov	r0, r7
 8008e86:	bdf8      	pop	{r3, r4, r5, r6, r7, pc}
 8008e88:	4b0a      	ldr	r3, [pc, #40]	; (8008eb4 <__swbuf_r+0x9c>)
 8008e8a:	429c      	cmp	r4, r3
 8008e8c:	d101      	bne.n	8008e92 <__swbuf_r+0x7a>
 8008e8e:	68ac      	ldr	r4, [r5, #8]
 8008e90:	e7cf      	b.n	8008e32 <__swbuf_r+0x1a>
 8008e92:	4b09      	ldr	r3, [pc, #36]	; (8008eb8 <__swbuf_r+0xa0>)
 8008e94:	429c      	cmp	r4, r3
 8008e96:	bf08      	it	eq
 8008e98:	68ec      	ldreq	r4, [r5, #12]
 8008e9a:	e7ca      	b.n	8008e32 <__swbuf_r+0x1a>
 8008e9c:	4621      	mov	r1, r4
 8008e9e:	4628      	mov	r0, r5
 8008ea0:	f000 f80c 	bl	8008ebc <__swsetup_r>
 8008ea4:	2800      	cmp	r0, #0
 8008ea6:	d0cb      	beq.n	8008e40 <__swbuf_r+0x28>
 8008ea8:	f04f 37ff 	mov.w	r7, #4294967295
 8008eac:	e7ea      	b.n	8008e84 <__swbuf_r+0x6c>
 8008eae:	bf00      	nop
 8008eb0:	08009664 	.word	0x08009664
 8008eb4:	08009684 	.word	0x08009684
 8008eb8:	08009644 	.word	0x08009644

08008ebc <__swsetup_r>:
 8008ebc:	4b32      	ldr	r3, [pc, #200]	; (8008f88 <__swsetup_r+0xcc>)
 8008ebe:	b570      	push	{r4, r5, r6, lr}
 8008ec0:	681d      	ldr	r5, [r3, #0]
 8008ec2:	4606      	mov	r6, r0
 8008ec4:	460c      	mov	r4, r1
 8008ec6:	b125      	cbz	r5, 8008ed2 <__swsetup_r+0x16>
 8008ec8:	69ab      	ldr	r3, [r5, #24]
 8008eca:	b913      	cbnz	r3, 8008ed2 <__swsetup_r+0x16>
 8008ecc:	4628      	mov	r0, r5
 8008ece:	f7ff fd43 	bl	8008958 <__sinit>
 8008ed2:	4b2e      	ldr	r3, [pc, #184]	; (8008f8c <__swsetup_r+0xd0>)
 8008ed4:	429c      	cmp	r4, r3
 8008ed6:	d10f      	bne.n	8008ef8 <__swsetup_r+0x3c>
 8008ed8:	686c      	ldr	r4, [r5, #4]
 8008eda:	89a3      	ldrh	r3, [r4, #12]
 8008edc:	f9b4 200c 	ldrsh.w	r2, [r4, #12]
 8008ee0:	0719      	lsls	r1, r3, #28
 8008ee2:	d42c      	bmi.n	8008f3e <__swsetup_r+0x82>
 8008ee4:	06dd      	lsls	r5, r3, #27
 8008ee6:	d411      	bmi.n	8008f0c <__swsetup_r+0x50>
 8008ee8:	2309      	movs	r3, #9
 8008eea:	6033      	str	r3, [r6, #0]
 8008eec:	f042 0340 	orr.w	r3, r2, #64	; 0x40
 8008ef0:	81a3      	strh	r3, [r4, #12]
 8008ef2:	f04f 30ff 	mov.w	r0, #4294967295
 8008ef6:	e03e      	b.n	8008f76 <__swsetup_r+0xba>
 8008ef8:	4b25      	ldr	r3, [pc, #148]	; (8008f90 <__swsetup_r+0xd4>)
 8008efa:	429c      	cmp	r4, r3
 8008efc:	d101      	bne.n	8008f02 <__swsetup_r+0x46>
 8008efe:	68ac      	ldr	r4, [r5, #8]
 8008f00:	e7eb      	b.n	8008eda <__swsetup_r+0x1e>
 8008f02:	4b24      	ldr	r3, [pc, #144]	; (8008f94 <__swsetup_r+0xd8>)
 8008f04:	429c      	cmp	r4, r3
 8008f06:	bf08      	it	eq
 8008f08:	68ec      	ldreq	r4, [r5, #12]
 8008f0a:	e7e6      	b.n	8008eda <__swsetup_r+0x1e>
 8008f0c:	0758      	lsls	r0, r3, #29
 8008f0e:	d512      	bpl.n	8008f36 <__swsetup_r+0x7a>
 8008f10:	6b61      	ldr	r1, [r4, #52]	; 0x34
 8008f12:	b141      	cbz	r1, 8008f26 <__swsetup_r+0x6a>
 8008f14:	f104 0344 	add.w	r3, r4, #68	; 0x44
 8008f18:	4299      	cmp	r1, r3
 8008f1a:	d002      	beq.n	8008f22 <__swsetup_r+0x66>
 8008f1c:	4630      	mov	r0, r6
 8008f1e:	f7fe fd4f 	bl	80079c0 <_free_r>
 8008f22:	2300      	movs	r3, #0
 8008f24:	6363      	str	r3, [r4, #52]	; 0x34
 8008f26:	89a3      	ldrh	r3, [r4, #12]
 8008f28:	f023 0324 	bic.w	r3, r3, #36	; 0x24
 8008f2c:	81a3      	strh	r3, [r4, #12]
 8008f2e:	2300      	movs	r3, #0
 8008f30:	6063      	str	r3, [r4, #4]
 8008f32:	6923      	ldr	r3, [r4, #16]
 8008f34:	6023      	str	r3, [r4, #0]
 8008f36:	89a3      	ldrh	r3, [r4, #12]
 8008f38:	f043 0308 	orr.w	r3, r3, #8
 8008f3c:	81a3      	strh	r3, [r4, #12]
 8008f3e:	6923      	ldr	r3, [r4, #16]
 8008f40:	b94b      	cbnz	r3, 8008f56 <__swsetup_r+0x9a>
 8008f42:	89a3      	ldrh	r3, [r4, #12]
 8008f44:	f403 7320 	and.w	r3, r3, #640	; 0x280
 8008f48:	f5b3 7f00 	cmp.w	r3, #512	; 0x200
 8008f4c:	d003      	beq.n	8008f56 <__swsetup_r+0x9a>
 8008f4e:	4621      	mov	r1, r4
 8008f50:	4630      	mov	r0, r6
 8008f52:	f000 f84d 	bl	8008ff0 <__smakebuf_r>
 8008f56:	89a0      	ldrh	r0, [r4, #12]
 8008f58:	f9b4 200c 	ldrsh.w	r2, [r4, #12]
 8008f5c:	f010 0301 	ands.w	r3, r0, #1
 8008f60:	d00a      	beq.n	8008f78 <__swsetup_r+0xbc>
 8008f62:	2300      	movs	r3, #0
 8008f64:	60a3      	str	r3, [r4, #8]
 8008f66:	6963      	ldr	r3, [r4, #20]
 8008f68:	425b      	negs	r3, r3
 8008f6a:	61a3      	str	r3, [r4, #24]
 8008f6c:	6923      	ldr	r3, [r4, #16]
 8008f6e:	b943      	cbnz	r3, 8008f82 <__swsetup_r+0xc6>
 8008f70:	f010 0080 	ands.w	r0, r0, #128	; 0x80
 8008f74:	d1ba      	bne.n	8008eec <__swsetup_r+0x30>
 8008f76:	bd70      	pop	{r4, r5, r6, pc}
 8008f78:	0781      	lsls	r1, r0, #30
 8008f7a:	bf58      	it	pl
 8008f7c:	6963      	ldrpl	r3, [r4, #20]
 8008f7e:	60a3      	str	r3, [r4, #8]
 8008f80:	e7f4      	b.n	8008f6c <__swsetup_r+0xb0>
 8008f82:	2000      	movs	r0, #0
 8008f84:	e7f7      	b.n	8008f76 <__swsetup_r+0xba>
 8008f86:	bf00      	nop
 8008f88:	2000000c 	.word	0x2000000c
 8008f8c:	08009664 	.word	0x08009664
 8008f90:	08009684 	.word	0x08009684
 8008f94:	08009644 	.word	0x08009644

08008f98 <abort>:
 8008f98:	b508      	push	{r3, lr}
 8008f9a:	2006      	movs	r0, #6
 8008f9c:	f000 f898 	bl	80090d0 <raise>
 8008fa0:	2001      	movs	r0, #1
 8008fa2:	f7f8 fc0d 	bl	80017c0 <_exit>

08008fa6 <__swhatbuf_r>:
 8008fa6:	b570      	push	{r4, r5, r6, lr}
 8008fa8:	460e      	mov	r6, r1
 8008faa:	f9b1 100e 	ldrsh.w	r1, [r1, #14]
 8008fae:	2900      	cmp	r1, #0
 8008fb0:	b096      	sub	sp, #88	; 0x58
 8008fb2:	4614      	mov	r4, r2
 8008fb4:	461d      	mov	r5, r3
 8008fb6:	da08      	bge.n	8008fca <__swhatbuf_r+0x24>
 8008fb8:	f9b6 300c 	ldrsh.w	r3, [r6, #12]
 8008fbc:	2200      	movs	r2, #0
 8008fbe:	602a      	str	r2, [r5, #0]
 8008fc0:	061a      	lsls	r2, r3, #24
 8008fc2:	d410      	bmi.n	8008fe6 <__swhatbuf_r+0x40>
 8008fc4:	f44f 6380 	mov.w	r3, #1024	; 0x400
 8008fc8:	e00e      	b.n	8008fe8 <__swhatbuf_r+0x42>
 8008fca:	466a      	mov	r2, sp
 8008fcc:	f000 f89c 	bl	8009108 <_fstat_r>
 8008fd0:	2800      	cmp	r0, #0
 8008fd2:	dbf1      	blt.n	8008fb8 <__swhatbuf_r+0x12>
 8008fd4:	9a01      	ldr	r2, [sp, #4]
 8008fd6:	f402 4270 	and.w	r2, r2, #61440	; 0xf000
 8008fda:	f5a2 5300 	sub.w	r3, r2, #8192	; 0x2000
 8008fde:	425a      	negs	r2, r3
 8008fe0:	415a      	adcs	r2, r3
 8008fe2:	602a      	str	r2, [r5, #0]
 8008fe4:	e7ee      	b.n	8008fc4 <__swhatbuf_r+0x1e>
 8008fe6:	2340      	movs	r3, #64	; 0x40
 8008fe8:	2000      	movs	r0, #0
 8008fea:	6023      	str	r3, [r4, #0]
 8008fec:	b016      	add	sp, #88	; 0x58
 8008fee:	bd70      	pop	{r4, r5, r6, pc}

08008ff0 <__smakebuf_r>:
 8008ff0:	898b      	ldrh	r3, [r1, #12]
 8008ff2:	b573      	push	{r0, r1, r4, r5, r6, lr}
 8008ff4:	079d      	lsls	r5, r3, #30
 8008ff6:	4606      	mov	r6, r0
 8008ff8:	460c      	mov	r4, r1
 8008ffa:	d507      	bpl.n	800900c <__smakebuf_r+0x1c>
 8008ffc:	f104 0347 	add.w	r3, r4, #71	; 0x47
 8009000:	6023      	str	r3, [r4, #0]
 8009002:	6123      	str	r3, [r4, #16]
 8009004:	2301      	movs	r3, #1
 8009006:	6163      	str	r3, [r4, #20]
 8009008:	b002      	add	sp, #8
 800900a:	bd70      	pop	{r4, r5, r6, pc}
 800900c:	ab01      	add	r3, sp, #4
 800900e:	466a      	mov	r2, sp
 8009010:	f7ff ffc9 	bl	8008fa6 <__swhatbuf_r>
 8009014:	9900      	ldr	r1, [sp, #0]
 8009016:	4605      	mov	r5, r0
 8009018:	4630      	mov	r0, r6
 800901a:	f7fe fd3d 	bl	8007a98 <_malloc_r>
 800901e:	b948      	cbnz	r0, 8009034 <__smakebuf_r+0x44>
 8009020:	f9b4 300c 	ldrsh.w	r3, [r4, #12]
 8009024:	059a      	lsls	r2, r3, #22
 8009026:	d4ef      	bmi.n	8009008 <__smakebuf_r+0x18>
 8009028:	f023 0303 	bic.w	r3, r3, #3
 800902c:	f043 0302 	orr.w	r3, r3, #2
 8009030:	81a3      	strh	r3, [r4, #12]
 8009032:	e7e3      	b.n	8008ffc <__smakebuf_r+0xc>
 8009034:	4b0d      	ldr	r3, [pc, #52]	; (800906c <__smakebuf_r+0x7c>)
 8009036:	62b3      	str	r3, [r6, #40]	; 0x28
 8009038:	89a3      	ldrh	r3, [r4, #12]
 800903a:	6020      	str	r0, [r4, #0]
 800903c:	f043 0380 	orr.w	r3, r3, #128	; 0x80
 8009040:	81a3      	strh	r3, [r4, #12]
 8009042:	9b00      	ldr	r3, [sp, #0]
 8009044:	6163      	str	r3, [r4, #20]
 8009046:	9b01      	ldr	r3, [sp, #4]
 8009048:	6120      	str	r0, [r4, #16]
 800904a:	b15b      	cbz	r3, 8009064 <__smakebuf_r+0x74>
 800904c:	f9b4 100e 	ldrsh.w	r1, [r4, #14]
 8009050:	4630      	mov	r0, r6
 8009052:	f000 f86b 	bl	800912c <_isatty_r>
 8009056:	b128      	cbz	r0, 8009064 <__smakebuf_r+0x74>
 8009058:	89a3      	ldrh	r3, [r4, #12]
 800905a:	f023 0303 	bic.w	r3, r3, #3
 800905e:	f043 0301 	orr.w	r3, r3, #1
 8009062:	81a3      	strh	r3, [r4, #12]
 8009064:	89a0      	ldrh	r0, [r4, #12]
 8009066:	4305      	orrs	r5, r0
 8009068:	81a5      	strh	r5, [r4, #12]
 800906a:	e7cd      	b.n	8009008 <__smakebuf_r+0x18>
 800906c:	080088f1 	.word	0x080088f1

08009070 <_malloc_usable_size_r>:
 8009070:	f851 3c04 	ldr.w	r3, [r1, #-4]
 8009074:	1f18      	subs	r0, r3, #4
 8009076:	2b00      	cmp	r3, #0
 8009078:	bfbc      	itt	lt
 800907a:	580b      	ldrlt	r3, [r1, r0]
 800907c:	18c0      	addlt	r0, r0, r3
 800907e:	4770      	bx	lr

08009080 <_raise_r>:
 8009080:	291f      	cmp	r1, #31
 8009082:	b538      	push	{r3, r4, r5, lr}
 8009084:	4604      	mov	r4, r0
 8009086:	460d      	mov	r5, r1
 8009088:	d904      	bls.n	8009094 <_raise_r+0x14>
 800908a:	2316      	movs	r3, #22
 800908c:	6003      	str	r3, [r0, #0]
 800908e:	f04f 30ff 	mov.w	r0, #4294967295
 8009092:	bd38      	pop	{r3, r4, r5, pc}
 8009094:	6c42      	ldr	r2, [r0, #68]	; 0x44
 8009096:	b112      	cbz	r2, 800909e <_raise_r+0x1e>
 8009098:	f852 3021 	ldr.w	r3, [r2, r1, lsl #2]
 800909c:	b94b      	cbnz	r3, 80090b2 <_raise_r+0x32>
 800909e:	4620      	mov	r0, r4
 80090a0:	f000 f830 	bl	8009104 <_getpid_r>
 80090a4:	462a      	mov	r2, r5
 80090a6:	4601      	mov	r1, r0
 80090a8:	4620      	mov	r0, r4
 80090aa:	e8bd 4038 	ldmia.w	sp!, {r3, r4, r5, lr}
 80090ae:	f000 b817 	b.w	80090e0 <_kill_r>
 80090b2:	2b01      	cmp	r3, #1
 80090b4:	d00a      	beq.n	80090cc <_raise_r+0x4c>
 80090b6:	1c59      	adds	r1, r3, #1
 80090b8:	d103      	bne.n	80090c2 <_raise_r+0x42>
 80090ba:	2316      	movs	r3, #22
 80090bc:	6003      	str	r3, [r0, #0]
 80090be:	2001      	movs	r0, #1
 80090c0:	e7e7      	b.n	8009092 <_raise_r+0x12>
 80090c2:	2400      	movs	r4, #0
 80090c4:	f842 4025 	str.w	r4, [r2, r5, lsl #2]
 80090c8:	4628      	mov	r0, r5
 80090ca:	4798      	blx	r3
 80090cc:	2000      	movs	r0, #0
 80090ce:	e7e0      	b.n	8009092 <_raise_r+0x12>

080090d0 <raise>:
 80090d0:	4b02      	ldr	r3, [pc, #8]	; (80090dc <raise+0xc>)
 80090d2:	4601      	mov	r1, r0
 80090d4:	6818      	ldr	r0, [r3, #0]
 80090d6:	f7ff bfd3 	b.w	8009080 <_raise_r>
 80090da:	bf00      	nop
 80090dc:	2000000c 	.word	0x2000000c

080090e0 <_kill_r>:
 80090e0:	b538      	push	{r3, r4, r5, lr}
 80090e2:	4d07      	ldr	r5, [pc, #28]	; (8009100 <_kill_r+0x20>)
 80090e4:	2300      	movs	r3, #0
 80090e6:	4604      	mov	r4, r0
 80090e8:	4608      	mov	r0, r1
 80090ea:	4611      	mov	r1, r2
 80090ec:	602b      	str	r3, [r5, #0]
 80090ee:	f7f8 fb57 	bl	80017a0 <_kill>
 80090f2:	1c43      	adds	r3, r0, #1
 80090f4:	d102      	bne.n	80090fc <_kill_r+0x1c>
 80090f6:	682b      	ldr	r3, [r5, #0]
 80090f8:	b103      	cbz	r3, 80090fc <_kill_r+0x1c>
 80090fa:	6023      	str	r3, [r4, #0]
 80090fc:	bd38      	pop	{r3, r4, r5, pc}
 80090fe:	bf00      	nop
 8009100:	2000095c 	.word	0x2000095c

08009104 <_getpid_r>:
 8009104:	f7f8 bb44 	b.w	8001790 <_getpid>

08009108 <_fstat_r>:
 8009108:	b538      	push	{r3, r4, r5, lr}
 800910a:	4d07      	ldr	r5, [pc, #28]	; (8009128 <_fstat_r+0x20>)
 800910c:	2300      	movs	r3, #0
 800910e:	4604      	mov	r4, r0
 8009110:	4608      	mov	r0, r1
 8009112:	4611      	mov	r1, r2
 8009114:	602b      	str	r3, [r5, #0]
 8009116:	f7f8 fba2 	bl	800185e <_fstat>
 800911a:	1c43      	adds	r3, r0, #1
 800911c:	d102      	bne.n	8009124 <_fstat_r+0x1c>
 800911e:	682b      	ldr	r3, [r5, #0]
 8009120:	b103      	cbz	r3, 8009124 <_fstat_r+0x1c>
 8009122:	6023      	str	r3, [r4, #0]
 8009124:	bd38      	pop	{r3, r4, r5, pc}
 8009126:	bf00      	nop
 8009128:	2000095c 	.word	0x2000095c

0800912c <_isatty_r>:
 800912c:	b538      	push	{r3, r4, r5, lr}
 800912e:	4d06      	ldr	r5, [pc, #24]	; (8009148 <_isatty_r+0x1c>)
 8009130:	2300      	movs	r3, #0
 8009132:	4604      	mov	r4, r0
 8009134:	4608      	mov	r0, r1
 8009136:	602b      	str	r3, [r5, #0]
 8009138:	f7f8 fba1 	bl	800187e <_isatty>
 800913c:	1c43      	adds	r3, r0, #1
 800913e:	d102      	bne.n	8009146 <_isatty_r+0x1a>
 8009140:	682b      	ldr	r3, [r5, #0]
 8009142:	b103      	cbz	r3, 8009146 <_isatty_r+0x1a>
 8009144:	6023      	str	r3, [r4, #0]
 8009146:	bd38      	pop	{r3, r4, r5, pc}
 8009148:	2000095c 	.word	0x2000095c

0800914c <_init>:
 800914c:	b5f8      	push	{r3, r4, r5, r6, r7, lr}
 800914e:	bf00      	nop
 8009150:	bcf8      	pop	{r3, r4, r5, r6, r7}
 8009152:	bc08      	pop	{r3}
 8009154:	469e      	mov	lr, r3
 8009156:	4770      	bx	lr

08009158 <_fini>:
 8009158:	b5f8      	push	{r3, r4, r5, r6, r7, lr}
 800915a:	bf00      	nop
 800915c:	bcf8      	pop	{r3, r4, r5, r6, r7}
 800915e:	bc08      	pop	{r3}
 8009160:	469e      	mov	lr, r3
 8009162:	4770      	bx	lr
